 pathos_x64

 Timestamp is 66a3c466 (Fri Jul 26 18:44:38 2024)

 Preferred load address is 0000000140000000

 Start         Length     Name                   Class
 0001:00000000 000086f0H .text                   CODE
 0001:000086f0 00000dd0H .text$di                CODE
 0001:000094c0 001ec040H .text$mn                CODE
 0001:001f5500 00000040H .text$mn$00             CODE
 0001:001f5540 00003a40H .text$x                 CODE
 0001:001f8f80 000013e8H .text$yd                CODE
 0002:00000000 00000850H .idata$5                DATA
 0002:00000850 00000038H .00cfg                  DATA
 0002:00000888 00000008H .CRT$XCA                DATA
 0002:00000890 00000008H .CRT$XCAA               DATA
 0002:00000898 00000038H .CRT$XCC                DATA
 0002:000008d0 00000010H .CRT$XCL                DATA
 0002:000008e0 000001a8H .CRT$XCU                DATA
 0002:00000a88 00000008H .CRT$XCZ                DATA
 0002:00000a90 00000008H .CRT$XIA                DATA
 0002:00000a98 00000008H .CRT$XIAA               DATA
 0002:00000aa0 00000008H .CRT$XIAC               DATA
 0002:00000aa8 00000008H .CRT$XIZ                DATA
 0002:00000ab0 00000008H .CRT$XLA                DATA
 0002:00000ab8 00000008H .CRT$XLZ                DATA
 0002:00000ac0 00000008H .CRT$XPA                DATA
 0002:00000ac8 00000008H .CRT$XPZ                DATA
 0002:00000ad0 00000008H .CRT$XTA                DATA
 0002:00000ad8 00000008H .CRT$XTZ                DATA
 0002:00000ae0 00000000H .gehcont$y              DATA
 0002:00000ae0 00000000H .gfids$y                DATA
 0002:00000ae0 0004ae20H .rdata                  DATA
 0002:0004b900 00000000H .rdata$CastGuardVftablesA DATA
 0002:0004b900 00000000H .rdata$CastGuardVftablesC DATA
 0002:0004b900 00000028H .rdata$T                DATA
 0002:0004b928 000033ecH .rdata$r                DATA
 0002:0004ed14 0000034cH .rdata$voltmd           DATA
 0002:0004f060 000000e0H .rdata$zzz              DATA
 0002:0004f140 000004f8H .rdata$zzzdbg           DATA
 0002:0004f638 00000008H .rtc$IAA                DATA
 0002:0004f640 00000008H .rtc$IZZ                DATA
 0002:0004f648 00000008H .rtc$TAA                DATA
 0002:0004f650 00000008H .rtc$TZZ                DATA
 0002:0004f658 00000004H .tls                    DATA
 0002:0004f65c 00000004H .tls$                   DATA
 0002:0004f660 00000008H .tls$ZZZ                DATA
 0002:0004f668 0001e970H .xdata                  DATA
 0002:0006dfd8 0000036cH .xdata$x                DATA
 0002:0006e344 00000040H .didat$2                DATA
 0002:0006e384 00000024H .didat$3                DATA
 0002:0006e3a8 000002e8H .didat$4                DATA
 0002:0006e690 00000620H .didat$6                DATA
 0002:0006ecb0 00000440H .didat$7                DATA
 0002:0006f0f0 00000084H .edata                  DATA
 0002:0006f174 00000168H .idata$2                DATA
 0002:0006f2dc 00000014H .idata$3                DATA
 0002:0006f2f0 00000850H .idata$4                DATA
 0002:0006fb40 00001012H .idata$6                DATA
 0003:00000000 00032230H .data                   DATA
 0003:00032230 000001d0H .data$r                 DATA
 0003:00032400 00001048H .data$rs                DATA
 0003:00033448 000002f8H .didat$5                DATA
 0003:00033740 05bc1930H .bss                    DATA
 0004:00000000 00012618H .pdata                  DATA
 0005:00000000 00000018H .detourd                DATA
 0006:00000000 000021f0H .detourc                DATA
 0007:00000000 000001e0H .rsrc$01                DATA
 0007:000001e0 0002a6d8H .rsrc$02                DATA

  Address         Publics by Value              Rva+Base               Lib:Object

 0000:00000000       __AbsoluteZero             0000000000000000     <absolute>
 0000:00000000       ___safe_se_handler_count   0000000000000000     <absolute>
 0000:00000000       ___safe_se_handler_table   0000000000000000     <absolute>
 0000:00000000       __arm64x_extra_rfe_table   0000000000000000     <absolute>
 0000:00000000       __arm64x_extra_rfe_table_size 0000000000000000     <absolute>
 0000:00000000       __arm64x_native_entrypoint 0000000000000000     <absolute>
 0000:00000000       __arm64x_redirection_metadata 0000000000000000     <absolute>
 0000:00000000       __arm64x_redirection_metadata_count 0000000000000000     <absolute>
 0000:00000000       __dynamic_value_reloc_table 0000000000000000     <absolute>
 0000:00000000       __enclave_config           0000000000000000     <absolute>
 0000:00000000       __guard_check_icall_a64n_fptr 0000000000000000     <absolute>
 0000:00000000       __guard_eh_cont_count      0000000000000000     <absolute>
 0000:00000000       __guard_eh_cont_table      0000000000000000     <absolute>
 0000:00000000       __guard_fids_count         0000000000000000     <absolute>
 0000:00000000       __guard_fids_table         0000000000000000     <absolute>
 0000:00000000       __guard_iat_count          0000000000000000     <absolute>
 0000:00000000       __guard_iat_table          0000000000000000     <absolute>
 0000:00000000       __guard_longjmp_count      0000000000000000     <absolute>
 0000:00000000       __guard_longjmp_table      0000000000000000     <absolute>
 0000:00000000       __hybrid_auxiliary_delayload_iat 0000000000000000     <absolute>
 0000:00000000       __hybrid_auxiliary_delayload_iat_copy 0000000000000000     <absolute>
 0000:00000000       __hybrid_auxiliary_iat     0000000000000000     <absolute>
 0000:00000000       __hybrid_auxiliary_iat_copy 0000000000000000     <absolute>
 0000:00000000       __hybrid_code_map          0000000000000000     <absolute>
 0000:00000000       __hybrid_code_map_count    0000000000000000     <absolute>
 0000:00000000       __hybrid_image_info_bitfield 0000000000000000     <absolute>
 0000:00000000       __x64_code_ranges_to_entry_points 0000000000000000     <absolute>
 0000:00000000       __x64_code_ranges_to_entry_points_count 0000000000000000     <absolute>
 0000:00000100       __guard_flags              0000000000000100     <absolute>
 0000:00000000       __ImageBase                0000000140000000     <linker-defined>
 0001:00000000       enet_initialize            0000000140001000 f   enet64:win32.o
 0001:00000070       enet_deinitialize          0000000140001070 f   enet64:win32.o
 0001:00000090       enet_host_random_seed      0000000140001090 f   enet64:win32.o
 0001:000000a0       enet_time_get              00000001400010a0 f   enet64:win32.o
 0001:000000c0       enet_time_set              00000001400010c0 f   enet64:win32.o
 0001:000000e0       enet_address_set_host_ip   00000001400010e0 f   enet64:win32.o
 0001:00000290       enet_address_set_host      0000000140001290 f   enet64:win32.o
 0001:00000480       enet_address_get_host_ip   0000000140001480 f   enet64:win32.o
 0001:000004d0       enet_address_get_host      00000001400014d0 f   enet64:win32.o
 0001:00000560       enet_socket_bind           0000000140001560 f   enet64:win32.o
 0001:000005e0       enet_socket_get_address    00000001400015e0 f   enet64:win32.o
 0001:00000630       enet_socket_listen         0000000140001630 f   enet64:win32.o
 0001:00000660       enet_socket_create         0000000140001660 f   enet64:win32.o
 0001:00000680       enet_socket_set_option     0000000140001680 f   enet64:win32.o
 0001:000007e0       enet_socket_get_option     00000001400017e0 f   enet64:win32.o
 0001:00000830       enet_socket_connect        0000000140001830 f   enet64:win32.o
 0001:000008c0       enet_socket_accept         00000001400018c0 f   enet64:win32.o
 0001:00000930       enet_socket_shutdown       0000000140001930 f   enet64:win32.o
 0001:00000950       enet_socket_destroy        0000000140001950 f   enet64:win32.o
 0001:00000970       enet_socket_send           0000000140001970 f   enet64:win32.o
 0001:00000a50       enet_socket_receive        0000000140001a50 f   enet64:win32.o
 0001:00000b20       enet_socketset_select      0000000140001b20 f   enet64:win32.o
 0001:00000b70       enet_socket_wait           0000000140001b70 f   enet64:win32.o
 0001:00000c70       enet_host_create           0000000140001c70 f   enet64:host.o
 0001:00001000       enet_host_destroy          0000000140002000 f   enet64:host.o
 0001:000010b0       enet_host_connect          00000001400020b0 f   enet64:host.o
 0001:000012f0       enet_host_broadcast        00000001400022f0 f   enet64:host.o
 0001:00001370       enet_host_compress         0000000140002370 f   enet64:host.o
 0001:000013f0       enet_host_channel_limit    00000001400023f0 f   enet64:host.o
 0001:00001410       enet_host_bandwidth_limit  0000000140002410 f   enet64:host.o
 0001:00001420       enet_host_bandwidth_throttle 0000000140002420 f   enet64:host.o
 0001:00001790       enet_peer_throttle_configure 0000000140002790 f   enet64:peer.o
 0001:00001980       enet_peer_throttle         0000000140002980 f   enet64:peer.o
 0001:00001a10       enet_peer_receive          0000000140002a10 f   enet64:peer.o
 0001:00001a90       enet_peer_reset_queues     0000000140002a90 f   enet64:peer.o
 0001:00001df0       enet_peer_on_connect       0000000140002df0 f   enet64:peer.o
 0001:00001e20       enet_peer_on_disconnect    0000000140002e20 f   enet64:peer.o
 0001:00001e50       enet_peer_reset            0000000140002e50 f   enet64:peer.o
 0001:00001f70       enet_peer_ping             0000000140002f70 f   enet64:peer.o
 0001:00002110       enet_peer_ping_interval    0000000140003110 f   enet64:peer.o
 0001:00002130       enet_peer_timeout          0000000140003130 f   enet64:peer.o
 0001:00002170       enet_peer_disconnect       0000000140003170 f   enet64:peer.o
 0001:000024e0       enet_peer_queue_acknowledgement 00000001400034e0 f   enet64:peer.o
 0001:000025b0       enet_peer_setup_outgoing_command 00000001400035b0 f   enet64:peer.o
 0001:00002720       enet_peer_disconnect_later 0000000140003720 f   enet64:peer.o
 0001:00002860       enet_peer_send             0000000140003860 f   enet64:peer.o
 0001:00002b90       enet_peer_disconnect_now   0000000140003b90 f   enet64:peer.o
 0001:00002d60       enet_peer_queue_outgoing_command 0000000140003d60 f   enet64:peer.o
 0001:00002f60       enet_peer_dispatch_incoming_unreliable_commands 0000000140003f60 f   enet64:peer.o
 0001:000031a0       enet_peer_dispatch_incoming_reliable_commands 00000001400041a0 f   enet64:peer.o
 0001:00003280       enet_peer_queue_incoming_command 0000000140004280 f   enet64:peer.o
 0001:000046a0       enet_protocol_command_size 00000001400056a0 f   enet64:protocol.o
 0001:000046b0       enet_host_flush            00000001400056b0 f   enet64:protocol.o
 0001:00004ff0       enet_host_check_events     0000000140005ff0 f   enet64:protocol.o
 0001:00005160       enet_host_service          0000000140006160 f   enet64:protocol.o
 0001:00006f00       enet_packet_create         0000000140007f00 f   enet64:packet.o
 0001:00006fb0       enet_packet_destroy        0000000140007fb0 f   enet64:packet.o
 0001:00007000       enet_packet_resize         0000000140008000 f   enet64:packet.o
 0001:00007070       enet_crc32                 0000000140008070 f   enet64:packet.o
 0001:00007260       enet_initialize_with_callbacks 0000000140008260 f   enet64:callbacks.o
 0001:000072d0       enet_linked_version        00000001400082d0 f   enet64:callbacks.o
 0001:000072e0       enet_malloc                00000001400082e0 f   enet64:callbacks.o
 0001:00007310       enet_free                  0000000140008310 f   enet64:callbacks.o
 0001:00007320       enet_list_clear            0000000140008320 f   enet64:list.o
 0001:00007330       enet_list_insert           0000000140008330 f   enet64:list.o
 0001:00007350       enet_list_remove           0000000140008350 f   enet64:list.o
 0001:00007370       enet_list_move             0000000140008370 f   enet64:list.o
 0001:000073a0       enet_list_size             00000001400083a0 f   enet64:list.o
 0001:000073c0       DetourEnumerateExports     00000001400083c0 f   detours:modules.obj
 0001:000076a0       ?CopyBytes@CDetourDis@@IEAAPEAEPEBUCOPYENTRY@1@PEAE1@Z 00000001400086a0 f   detours:disasm.obj
 0001:000079a0       ?CopyBytesPrefix@CDetourDis@@IEAAPEAEPEBUCOPYENTRY@1@PEAE1@Z 00000001400089a0 f   detours:disasm.obj
 0001:00007a20       ?CopyBytesSegment@CDetourDis@@IEAAPEAEPEBUCOPYENTRY@1@PEAE1@Z 0000000140008a20 f   detours:disasm.obj
 0001:00007a70       ?CopyBytesRax@CDetourDis@@IEAAPEAEPEBUCOPYENTRY@1@PEAE1@Z 0000000140008a70 f   detours:disasm.obj
 0001:00007ac0       ?CopyBytesJump@CDetourDis@@IEAAPEAEPEBUCOPYENTRY@1@PEAE1@Z 0000000140008ac0 f   detours:disasm.obj
 0001:00007c10       ?AdjustTarget@CDetourDis@@IEAAPEAEPEAE0III@Z 0000000140008c10 f   detours:disasm.obj
 0001:00007de0       ?Invalid@CDetourDis@@IEAAPEAEPEBUCOPYENTRY@1@PEAE1@Z 0000000140008de0 f   detours:disasm.obj
 0001:00007e00       ?Copy0F@CDetourDis@@IEAAPEAEPEBUCOPYENTRY@1@PEAE1@Z 0000000140008e00 f   detours:disasm.obj
 0001:00007e80       ?Copy0F78@CDetourDis@@IEAAPEAEPEBUCOPYENTRY@1@PEAE1@Z 0000000140008e80 f   detours:disasm.obj
 0001:00007f00       ?Copy66@CDetourDis@@IEAAPEAEPEBUCOPYENTRY@1@PEAE1@Z 0000000140008f00 f   detours:disasm.obj
 0001:00007f50       ?Copy67@CDetourDis@@IEAAPEAEPEBUCOPYENTRY@1@PEAE1@Z 0000000140008f50 f   detours:disasm.obj
 0001:00007fa0       ?CopyF2@CDetourDis@@IEAAPEAEPEBUCOPYENTRY@1@PEAE1@Z 0000000140008fa0 f   detours:disasm.obj
 0001:00007ff0       ?CopyF3@CDetourDis@@IEAAPEAEPEBUCOPYENTRY@1@PEAE1@Z 0000000140008ff0 f   detours:disasm.obj
 0001:00008040       ?CopyF6@CDetourDis@@IEAAPEAEPEBUCOPYENTRY@1@PEAE1@Z 0000000140009040 f   detours:disasm.obj
 0001:000080b0       ?CopyF7@CDetourDis@@IEAAPEAEPEBUCOPYENTRY@1@PEAE1@Z 00000001400090b0 f   detours:disasm.obj
 0001:00008120       ?CopyFF@CDetourDis@@IEAAPEAEPEBUCOPYENTRY@1@PEAE1@Z 0000000140009120 f   detours:disasm.obj
 0001:00008250       ?CopyVexEvexCommon@CDetourDis@@IEAAPEAEEPEAE0E@Z 0000000140009250 f   detours:disasm.obj
 0001:00008370       ?CopyVexCommon@CDetourDis@@IEAAPEAEEPEAE0@Z 0000000140009370 f   detours:disasm.obj
 0001:000083d0       ?CopyVex3@CDetourDis@@IEAAPEAEPEBUCOPYENTRY@1@PEAE1@Z 00000001400093d0 f   detours:disasm.obj
 0001:00008490       ?CopyVex2@CDetourDis@@IEAAPEAEPEBUCOPYENTRY@1@PEAE1@Z 0000000140009490 f   detours:disasm.obj
 0001:00008500       ?CopyEvex@CDetourDis@@IEAAPEAEPEBUCOPYENTRY@1@PEAE1@Z 0000000140009500 f   detours:disasm.obj
 0001:00008630       ?CopyXop@CDetourDis@@IEAAPEAEPEBUCOPYENTRY@1@PEAE1@Z 0000000140009630 f   detours:disasm.obj
 0001:000094c0       __local_stdio_printf_options 000000014000a4c0 f i cbitset.obj
 0001:000094d0       sprintf                    000000014000a4d0 f i cbitset.obj
 0001:00009530       ?Append@CString@@QEAAXPEBD@Z 000000014000a530 f i cbitset.obj
 0001:00009600       ?c_str@CString@@QEBAPEBDXZ 000000014000a600 f i cbitset.obj
 0001:00009610       ?qstrcpy@@YAPEADPEADPEBD@Z 000000014000a610 f i cbitset.obj
 0001:000096a0       ?qstrcmp@@YAHPEBD0@Z       000000014000a6a0 f i cbitset.obj
 0001:00009740       ?qstrcmp@@YAHAEBVCString@@PEBD@Z 000000014000a740 f i cbitset.obj
 0001:000097e0       ?resize@CBitSet@@QEAAXI@Z  000000014000a7e0 f i cbitset.obj
 0001:00009860       ??_ECString@@QEAAPEAXI@Z   000000014000a860 f i cbitset.obj
 0001:000098a0       ?append@CBuffer@@QEAA_NPEBXI@Z 000000014000a8a0 f i cbuffer.obj
 0001:00009b00       ??0CBuffer@@QEAA@I@Z       000000014000ab00 f   cbuffer.obj
 0001:00009b70       ??1CBuffer@@QEAA@XZ        000000014000ab70 f   cbuffer.obj
 0001:00009ba0       ??1?$CArray@H@@QEAA@XZ     000000014000aba0 f i texturemanager.obj
 0001:00009ba0       ??1?$CArray@I@@QEAA@XZ     000000014000aba0 f i cl_main.obj
 0001:00009ba0       ??1?$CArray@PEAPEAX@@QEAA@XZ 000000014000aba0 f i cbuffer.obj
 0001:00009ba0       ??1?$CArray@PEAUbsp_decal_t@@@@QEAA@XZ 000000014000aba0 f i r_bsp.obj
 0001:00009ba0       ??1?$CArray@PEAUdetail_association_t@@@@QEAA@XZ 000000014000aba0 f i r_wadtextures.obj
 0001:00009ba0       ??1?$CArray@PEAUdetailtexture_t@@@@QEAA@XZ 000000014000aba0 f i r_wadtextures.obj
 0001:00009ba0       ??1?$CArray@PEAUen_texture_t@@@@QEAA@XZ 000000014000aba0 f i r_main.obj
 0001:00009ba0       ??1?$CArray@PEAUentity_extrainfo_t@@@@QEAA@XZ 000000014000aba0 f i cl_main.obj
 0001:00009ba0       ??1?$CArray@PEAUmlight_t@@@@QEAA@XZ 000000014000aba0 f i r_vbm.obj
 0001:00009ba0       ??1?$CArray@PEAUparticle_t@CLegacyParticles@@@@QEAA@XZ 000000014000aba0 f i r_legacyparticles.obj
 0001:00009ba0       ??1?$CArray@PEAUscript_cache_t@@@@QEAA@XZ 000000014000aba0 f i r_particles.obj
 0001:00009ba0       ??1?$CArray@PEAUvertexgroup_t@CNormalSmoothing@@@@QEAA@XZ 000000014000aba0 f i r_nsmoothing.obj
 0001:00009ba0       ??1?$CArray@PEAUvertexnode_t@CNormalSmoothing@@@@QEAA@XZ 000000014000aba0 f i r_nsmoothing.obj
 0001:00009ba0       ??1?$CArray@PEAVCMenuButton@@@@QEAA@XZ 000000014000aba0 f i r_menu.obj
 0001:00009ba0       ??1?$CArray@PEAVCUIObject@@@@QEAA@XZ 000000014000aba0 f i uielements.obj
 0001:00009ba0       ??1?$CArray@Ubsp_surface_t@@@@QEAA@XZ 000000014000aba0 f i r_bsp.obj
 0001:00009ba0       ??1?$CArray@Ubsp_vertex_t@@@@QEAA@XZ 000000014000aba0 f i r_bsp.obj
 0001:00009ba0       ??1?$CArray@Uentity_state_t@@@@QEAA@XZ 000000014000aba0 f i sv_main.obj
 0001:00009ba0       ??1?$CArray@Uglsl_shader_t@CGLSLShader@@@@QEAA@XZ 000000014000aba0 f i r_glsl.obj
 0001:00009ba0       ??1?$CArray@Uinvalid_state_t@CGLSLShader@@@@QEAA@XZ 000000014000aba0 f i r_glsl.obj
 0001:00009ba0       ??1?$CArray@Uiterator_t@?$CLinkedList@PEAUcl_dlight_t@@@@@@QEAA@XZ 000000014000aba0 f i r_dlights.obj
 0001:00009ba0       ??1?$CArray@Uiterator_t@?$CLinkedList@Uline_chunk_t@@@@@@QEAA@XZ 000000014000aba0 f i r_text.obj
 0001:00009ba0       ??1?$CArray@Uiterator_t@?$CLinkedList@Usv_level_connection_t@@@@@@QEAA@XZ 000000014000aba0 f i sv_main.obj
 0001:00009ba0       ??1?$CArray@Unet_msg_t@@@@QEAA@XZ 000000014000aba0 f i networking.obj
 0001:00009ba0       ??1?$CArray@Usnd_playing_t@CSoundEngine@@@@QEAA@XZ 000000014000aba0 f i cl_snd.obj
 0001:00009ba0       ??1?$CArray@Uusercmd_t@@@@QEAA@XZ 000000014000aba0 f i cl_main.obj
 0001:00009ba0       ??1?$CArray@_J@@QEAA@XZ    000000014000aba0 f i cbuffer.obj
 0001:00009ba0       ??1?$CArray@_N@@QEAA@XZ    000000014000aba0 f i sv_main.obj
 0001:00009ba0       ??1glowquery_t@@QEAA@XZ    000000014000aba0 f i r_glqueries.obj
 0001:00009ba0       ??1vbmhull_t@@QEAA@XZ      000000014000aba0 f i cl_main.obj
 0001:00009bb0       ??4CString@@QEAAAEAV0@AEBV0@@Z 000000014000abb0 f i common.obj
 0001:00009ca0       ??6CString@@QEAAAEAV0@PEBD@Z 000000014000aca0 f i common.obj
 0001:00009cc0       ??AVector@@QEAAAEAMI@Z     000000014000acc0 f i common.obj
 0001:00009d20       ??1entitydata_t@@QEAA@XZ   000000014000ad20 f i common.obj
 0001:00009db0       ?ValueForKey@@YAPEBDAEBUentitydata_t@@PEBD@Z 000000014000adb0 f i common.obj
 0001:00009ec0       ?Parse@Common@@YAPEBDPEBDAEAVCString@@0_N2@Z 000000014000aec0 f   common.obj
 0001:0000a190       ?ReadLine@Common@@YAPEBDPEBDPEAD@Z 000000014000b190 f   common.obj
 0001:0000a250       ?ReadLine@Common@@YAPEBDPEBDAEAVCString@@@Z 000000014000b250 f   common.obj
 0001:0000a330       ?GetDate@Common@@YA?AVCString@@XZ 000000014000b330 f i common.obj
 0001:0000a440       ?Basename@Common@@YAXPEBDAEAVCString@@@Z 000000014000b440 f   common.obj
 0001:0000a600       ?IsNumber@Common@@YA_NPEBD@Z 000000014000b600 f   common.obj
 0001:0000a650       ?StringToVector@Common@@YAXPEBDAEAVVector@@@Z 000000014000b650 f   common.obj
 0001:0000a8a0       ?FixVector@Common@@YAXPEAM@Z 000000014000b8a0 f   common.obj
 0001:0000ab30       ?RandomFloat@Common@@YAMMM@Z 000000014000bb30 f i common.obj
 0001:0000aba0       ?CheckVisibility@Common@@YA_NAEBV?$CArray@I@@PEBE@Z 000000014000bba0 f i common.obj
 0001:0000ac70       ?GetWADList@Common@@YA_NPEBDAEAV?$CArray@VCString@@@@@Z 000000014000bc70 f   common.obj
 0001:0000bb90       ?resize@?$CArray@VCString@@@@QEAAXI@Z 000000014000cb90 f i common.obj
 0001:0000bde0       ??0CString@@QEAA@XZ        000000014000cde0 f   cstring.obj
 0001:0000be00       ??0CString@@QEAA@PEBD@Z    000000014000ce00 f   cstring.obj
 0001:0000bea0       ??0CString@@QEAA@AEBV0@@Z  000000014000cea0 f   cstring.obj
 0001:0000bf20       ??1CString@@QEAA@XZ        000000014000cf20 f   cstring.obj
 0001:0000bf20       ??1alias_mapping_t@CTextureManager@@QEAA@XZ 000000014000cf20 f   texturemanager.obj
 0001:0000bf20       ??1cached_decal_t@@QEAA@XZ 000000014000cf20 f   r_decals.obj
 0001:0000bf20       ??1cl_resource_t@@QEAA@XZ  000000014000cf20 f   cl_cmd.obj
 0001:0000bf20       ??1cl_usermsgfunction_t@@QEAA@XZ 000000014000cf20 f   cl_main.obj
 0001:0000bf20       ??1debug_print_t@CConsole@@QEAA@XZ 000000014000cf20 f   console.obj
 0001:0000bf20       ??1decalcache_t@@QEAA@XZ   000000014000cf20 f   cl_main.obj
 0001:0000bf20       ??1decalgroupentry_t@@QEAA@XZ 000000014000cf20 f   decallist.obj
 0001:0000bf20       ??1disabled_state_t@CGLSLShader@@QEAA@XZ 000000014000cf20 f   r_glsl.obj
 0001:0000bf20       ??1dll_export_t@@QEAA@XZ   000000014000cf20 f   sv_main.obj
 0001:0000bf20       ??1hdr_column_t@CUIListHeader@@QEAA@XZ 000000014000cf20 f   uielements.obj
 0001:0000bf20       ??1mtexture_t@@QEAA@XZ     000000014000cf20 f   bspv30.obj
 0001:0000bf20       ??1skytextureset_t@CSkyRenderer@@QEAA@XZ 000000014000cf20 f   r_sky.obj
 0001:0000bf20       ??1snd_missing_t@CSoundEngine@@QEAA@XZ 000000014000cf20 f   cl_snd.obj
 0001:0000bf20       ??1sv_model_t@@QEAA@XZ     000000014000cf20 f   sv_main.obj
 0001:0000bf20       ??1sv_particlecache_t@@QEAA@XZ 000000014000cf20 f   sv_main.obj
 0001:0000bf20       ??1sv_sound_t@@QEAA@XZ     000000014000cf20 f   sv_main.obj
 0001:0000bf20       ??1sv_usermsgfunction_t@@QEAA@XZ 000000014000cf20 f   sv_main.obj
 0001:0000bf20       ??1ui_schemeobject_t@@QEAA@XZ 000000014000cf20 f   uimanager.obj
 0001:0000bf40       ??6CString@@QEAAAEAV0@AEBV0@@Z 000000014000cf40 f i logfile.obj
 0001:0000bf90       ?clear@CString@@QEAAXXZ    000000014000cf90 f i logfile.obj
 0001:0000bfe0       ?assign@CString@@QEAAXPEBDI@Z 000000014000cfe0 f i logfile.obj
 0001:0000c090       ?insert@CString@@QEAAXIPEBD@Z 000000014000d090 f i logfile.obj
 0001:0000c190       ?Init@CLogFile@@QEAA_NXZ   000000014000d190 f   logfile.obj
 0001:0000c730       ?Close@CLogFile@@QEAA_NXZ  000000014000d730 f   logfile.obj
 0001:0000c790       ?Write@CLogFile@@QEAA_NPEBD@Z 000000014000d790 f   logfile.obj
 0001:0000ce60       ?WriteInternal@CLogFile@@AEAA_NPEBD@Z 000000014000de60 f   logfile.obj
 0001:0000cf60       ?Printf@CLogFile@@QEAA_NPEBDZZ 000000014000df60 f   logfile.obj
 0001:0000cfc0       ??0CMatrix@@QEAA@XZ        000000014000dfc0 f   matrix.obj
 0001:0000d120       ??_ECMatrix@@UEAAPEAXI@Z   000000014000e120 f i * CIL library *:* CIL module *
 0001:0000d120       ??_GCMatrix@@UEAAPEAXI@Z   000000014000e120 f i matrix.obj
 0001:0000d160       ??0CMatrix@@QEAA@PEBM@Z    000000014000e160 f   matrix.obj
 0001:0000d330       ??1CMatrix@@UEAA@XZ        000000014000e330 f   matrix.obj
 0001:0000d3a0       ?PushMatrix@CMatrix@@QEAAXXZ 000000014000e3a0 f   matrix.obj
 0001:0000d430       ?PopMatrix@CMatrix@@QEAAXXZ 000000014000e430 f   matrix.obj
 0001:0000d490       ?GetMatrix@CMatrix@@QEAAPEBMXZ 000000014000e490 f   matrix.obj
 0001:0000d510       ?GetInverse@CMatrix@@QEAAPEBMXZ 000000014000e510 f   matrix.obj
 0001:0000df10       ?MultMatrix@CMatrix@@QEAAXPEBM@Z 000000014000ef10 f   matrix.obj
 0001:0000e300       ?Rotate@CMatrix@@QEAAXMMMM@Z 000000014000f300 f   matrix.obj
 0001:0000e4e0       ?SetFrustum@CMatrix@@QEAAXMMMMMM@Z 000000014000f4e0 f   matrix.obj
 0001:0000e5b0       ?Ortho@CMatrix@@QEAAXMMMMMM@Z 000000014000f5b0 f   matrix.obj
 0001:0000e670       ?LookAt@CMatrix@@QEAAXMMMMMMMMM@Z 000000014000f670 f   matrix.obj
 0001:0000e990       ??0CMD5@@QEAA@PEBEI@Z      000000014000f990 f   md5.obj
 0001:0000eb00       ?Transform@CMD5@@AEAAXPEBE@Z 000000014000fb00 f   md5.obj
 0001:0000f3d0       ?Update@CMD5@@QEAAXPEBEI@Z 00000001400103d0 f   md5.obj
 0001:0000f4a0       ?HexDigest@CMD5@@QEBA?AVCString@@XZ 00000001400104a0 f   md5.obj
 0001:0000f5c0       ?AR_readOgg@@YA_KPEAX_K10@Z 00000001400105c0 f   ogg_common.obj
 0001:0000f610       ?AR_seekOgg@@YAHPEAX_JH@Z  0000000140010610 f   ogg_common.obj
 0001:0000f680       ?AR_closeOgg@@YAHPEAX@Z    0000000140010680 f   ogg_common.obj
 0001:0000f680       ?getFullRange@CUIObject@@UEAAIXZ 0000000140010680 f   uielements.obj
 0001:0000f680       ?showmanyc@?$basic_streambuf@DU?$char_traits@D@std@@@std@@MEAA_JXZ 0000000140010680 f   libcpmt:cout.obj
 0001:0000f680       ?sync@?$basic_streambuf@DU?$char_traits@D@std@@@std@@MEAAHXZ 0000000140010680 f   libcpmt:cout.obj
 0001:0000f680       __scrt_exe_initialize_mta  0000000140010680 f   MSVCRT:utility_desktop.obj
 0001:0000f680       __scrt_initialize_winrt    0000000140010680 f   MSVCRT:utility_desktop.obj
 0001:0000f680       __scrt_stub_for_initialize_mta 0000000140010680 f   MSVCRT:utility_desktop.obj
 0001:0000f680       _get_startup_commit_mode   0000000140010680 f   MSVCRT:commit_mode.obj
 0001:0000f680       _get_startup_new_mode      0000000140010680 f   MSVCRT:new_mode.obj
 0001:0000f680       _get_startup_thread_locale_mode 0000000140010680 f   MSVCRT:thread_locale.obj
 0001:0000f680       _matherr                   0000000140010680 f   MSVCRT:matherr.obj
 0001:0000f690       ?AR_tellOgg@@YAJPEAX@Z     0000000140010690 f   ogg_common.obj
 0001:0000f6a0       ??AVector@@QEBAMI@Z        00000001400106a0 f i r_common.obj
 0001:0000f700       ??AVector@@QEAAAEAMH@Z     0000000140010700 f i r_common.obj
 0001:0000f760       ??AVector@@QEBAMH@Z        0000000140010760 f i r_common.obj
 0001:0000f7c0       ?VectorClear@Math@@YAXAEAVVector@@@Z 00000001400107c0 f i r_common.obj
 0001:0000f830       ?AngleVectors@Math@@YAXAEBVVector@@PEAV2@11@Z 0000000140010830 f i r_common.obj
 0001:0000fa00       ?VectorNormalize@Math@@YAMAEAVVector@@@Z 0000000140010a00 f i r_common.obj
 0001:0000fab0       ?PointInMinsMaxs@Math@@YA_NAEBVVector@@00@Z 0000000140010ab0 f i r_common.obj
 0001:0000fba0       ?RotateToEntitySpace@Math@@YAXAEBVVector@@AEAV2@@Z 0000000140010ba0 f i r_common.obj
 0001:0000fe20       ?RotateFromEntitySpace@Math@@YAXAEBVVector@@AEAV2@@Z 0000000140010e20 f i r_common.obj
 0001:00010040       ?AngleMatrix@Math@@YAXAEBVVector@@PEAY03M@Z 0000000140011040 f i r_common.obj
 0001:00010210       ?VectorToAngles@Math@@YA?AVVector@@AEBV2@0@Z 0000000140011210 f i r_common.obj
 0001:000103c0       ?VectorToAngles@Math@@YA?AVVector@@AEBV2@@Z 00000001400113c0 f i r_common.obj
 0001:000104d0       ?MatMultPosition@Math@@YAXPEBMAEBVVector@@PEAV2@@Z 00000001400114d0 f i r_common.obj
 0001:00010560       ?GetUpRight@Math@@YAXAEBVVector@@AEAV2@1@Z 0000000140011560 f i r_common.obj
 0001:00010680       ?VectorTransform@Math@@YAXAEBVVector@@PEAY03MAEAV2@@Z 0000000140011680 f i r_common.obj
 0001:00010710       ?QuaternionMatrix@Math@@YAXAEAY03$$CBMPEAY03M@Z 0000000140011710 f i r_common.obj
 0001:00010930       ?QuaternionBlend@Math@@YAXAEAY03$$CBM0MAEAY03M@Z 0000000140011930 f i r_common.obj
 0001:00010c50       ?AngleQuaternion@Math@@YAXAEBVVector@@AEAY03M@Z 0000000140011c50 f i r_common.obj
 0001:00010da0       ?ConcatTransforms@Math@@YAXPEAY03$$CBM0PEAY03M@Z 0000000140011da0 f i r_common.obj
 0001:00010fc0       ??_H@YAXPEAX_K1P6APEAX0@Z@Z 0000000140011fc0 f i r_common.obj
 0001:00011010       ?getVBMCache@cache_model_t@@QEBAPEBUvbmcache_t@@XZ 0000000140012010 f i r_common.obj
 0001:00011050       ?R_StyleIndex@@YAHPEBUmsurface_t@@I@Z 0000000140012050 f   r_common.obj
 0001:000110f0       ?R_AllocBlock@@YAXIIAEAI0I0PEAI@Z 00000001400120f0 f   r_common.obj
 0001:00011230       ?R_BuildLightmap@@YAPEAUcolor24_t@@GGPEBU1@PEBUmsurface_t@@PEAUcolor32_t@@HIM_N3@Z 0000000140012230 f   r_common.obj
 0001:000118e0       ?R_IsEntityMoved@@YA_NAEBUcl_entity_t@@@Z 00000001400128e0 f   r_common.obj
 0001:00011960       ?R_IsEntityRotated@@YA_NAEBUcl_entity_t@@@Z 0000000140012960 f   r_common.obj
 0001:000119a0       ?R_RotateForEntity@@YAXAEAVCMatrix@@AEBUcl_entity_t@@@Z 00000001400129a0 f   r_common.obj
 0001:00011a90       ?R_CheckShaderVertexAttribute@@YA_NHPEBDPEBVCGLSLShader@@P6AX0ZZ@Z 0000000140012a90 f   r_common.obj
 0001:00011e40       ?R_CheckShaderDeterminator@@YA_NHPEBDPEBVCGLSLShader@@P6AX0ZZ@Z 0000000140012e40 f   r_common.obj
 0001:000121f0       ?R_CheckShaderUniform@@YA_NHPEBDPEBVCGLSLShader@@P6AX0ZZ@Z 00000001400131f0 f   r_common.obj
 0001:000125a0       ?R_ResizeTextureToPOT@@YAXAEAI0AEAPEAE@Z 00000001400135a0 f   r_common.obj
 0001:00012990       ?R_FlipTexture@@YAXIII_N0AEAPEAE@Z 0000000140013990 f   r_common.obj
 0001:00012aa0       ?R_WorldToScreenTransform@@YA_NAEAVCMatrix@@AEBVVector@@AEAV2@@Z 0000000140013aa0 f   r_common.obj
 0001:00012bf0       ?R_SetMatrixData@@YAXPEBMPEAM_N@Z 0000000140013bf0 f   r_common.obj
 0001:00012d10       ?TGA_Load@@YA_NPEBDPEBEAEAPEAEAEAI333AEAW4texture_compression_t@@P6AX0ZZ@Z 0000000140013d10 f   tga.obj
 0001:00013090       ?SetUniformMatrix4fv@CGLSLShader@@QEAAXHPEBM_N@Z 0000000140014090 f i r_basicdraw.obj
 0001:000132d0       ?SetUniform1i@CGLSLShader@@QEAAXHH@Z 00000001400142d0 f i r_basicdraw.obj
 0001:000134e0       ?SetUniform1f@CGLSLShader@@QEAAXHM@Z 00000001400144e0 f i r_basicdraw.obj
 0001:000136f0       ?SetUniform2f@CGLSLShader@@QEAAXHMM@Z 00000001400146f0 f i r_basicdraw.obj
 0001:00013930       ?SetUniform3f@CGLSLShader@@QEAAXHMMM@Z 0000000140014930 f i r_basicdraw.obj
 0001:00013bb0       ?InitGL@CBasicDraw@@QEAA_NAEBVCGLExtF@@AEBUfile_interface_t@@P6AXPEBDZZ@Z 0000000140014bb0 f   r_basicdraw.obj
 0001:00013fb0       ?ClearGL@CBasicDraw@@QEAAXXZ 0000000140014fb0 f   r_basicdraw.obj
 0001:00014040       ??_GCVBO@@QEAAPEAXI@Z      0000000140015040 f i r_basicdraw.obj
 0001:00014090       ?End@CBasicDraw@@QEAAX_N@Z 0000000140015090 f   r_basicdraw.obj
 0001:00014100       ?EnableTexture@CBasicDraw@@QEAA_NXZ 0000000140015100 f   r_basicdraw.obj
 0001:00014160       ?DisableTexture@CBasicDraw@@QEAA_NXZ 0000000140015160 f   r_basicdraw.obj
 0001:000141c0       ?EnableRectangleTexture@CBasicDraw@@QEAA_NXZ 00000001400151c0 f   r_basicdraw.obj
 0001:00014220       ?DisableRectangleTexture@CBasicDraw@@QEAA_NXZ 0000000140015220 f   r_basicdraw.obj
 0001:00014280       ?Enable@CBasicDraw@@QEAA_NXZ 0000000140015280 f   r_basicdraw.obj
 0001:00014380       ?Disable@CBasicDraw@@QEAAXXZ 0000000140015380 f   r_basicdraw.obj
 0001:000143b0       ?TexCoord2f@CBasicDraw@@QEAAXMM@Z 00000001400153b0 f   r_basicdraw.obj
 0001:00014420       ?Vertex3fv@CBasicDraw@@QEAAXPEBM@Z 0000000140015420 f   r_basicdraw.obj
 0001:00014540       ?EnableFog@CBasicDraw@@QEAA_NXZ 0000000140015540 f   r_basicdraw.obj
 0001:000145a0       ?SetFogParams@CBasicDraw@@QEAAXAEBVVector@@MM@Z 00000001400155a0 f   r_basicdraw.obj
 0001:00014610       ?DisableFog@CBasicDraw@@QEAA_NXZ 0000000140015610 f   r_basicdraw.obj
 0001:00014670       ??A?$CArray@F@@QEBAAEAFI@Z 0000000140015670 f i r_basicdraw.obj
 0001:000146b0       ??A?$CArray@H@@QEBAAEAHI@Z 00000001400156b0 f i texturemanager.obj
 0001:000146b0       ??A?$CArray@M@@QEBAAEAMI@Z 00000001400156b0 f i r_basicdraw.obj
 0001:000146f0       ?resize@?$CArray@Ubasic_vertex_t@@@@QEAAXI@Z 00000001400156f0 f i r_basicdraw.obj
 0001:00014860       ??6CString@@QEAAAEAV0@H@Z  0000000140015860 f i sentencesfile.obj
 0001:00014930       ??6CString@@QEAAAEAV0@I@Z  0000000140015930 f i sentencesfile.obj
 0001:00014a00       ?Append@CString@@QEAAXD@Z  0000000140015a00 f i sentencesfile.obj
 0001:00014aa0       ?Init@CSentencesFile@@QEAA_NPEBE@Z 0000000140015aa0 f   sentencesfile.obj
 0001:00016620       ??_Gsentence_t@CSentencesFile@@QEAAPEAXI@Z 0000000140017620 f i sentencesfile.obj
 0001:00016710       ?ParseOptionToken@CSentencesFile@@AEAA_NPEAPEBDPEBDAEAI2222@Z 0000000140017710 f   sentencesfile.obj
 0001:00016b70       ?Clear@CSentencesFile@@QEAAXXZ 0000000140017b70 f   sentencesfile.obj
 0001:00016da0       ?PrecacheSentence@CSentencesFile@@QEAAXPEAUsentence_t@1@@Z 0000000140017da0 f   sentencesfile.obj
 0001:00016f70       ?GetSentenceDefinition@CSentencesFile@@QEAAPEAUsentence_t@1@PEBD@Z 0000000140017f70 f   sentencesfile.obj
 0001:00017290       ?GetSentenceDefinition@CSentencesFile@@QEBAPEBUsentence_t@1@H@Z 0000000140018290 f   sentencesfile.obj
 0001:000172f0       ??0?$CArray@VCString@@@@QEAA@XZ 00000001400182f0 f i sentencesfile.obj
 0001:00017300       ??1?$CArray@VCString@@@@QEAA@XZ 0000000140018300 f i sentencesfile.obj
 0001:00017340       ?clear@?$CArray@VCString@@@@QEAAXXZ 0000000140018340 f i sentencesfile.obj
 0001:000173a0       ??A?$CArray@Ukeyevent_t@CInput@@@@QEBAAEAUkeyevent_t@CInput@@I@Z 00000001400183a0 f i input.obj
 0001:000173a0       ??A?$CArray@VCString@@@@QEBAAEAVCString@@I@Z 00000001400183a0 f i sentencesfile.obj
 0001:000173f0       ??$sprintf_s@$0EA@@@YAHAEAY0EA@DPEBDZZ 00000001400183f0 f i sentencesfile.obj
 0001:00017450       ??A?$CArray@PEAUdecalpolygroup_t@@@@QEBAAEAPEAUdecalpolygroup_t@@I@Z 0000000140018450 f i r_bsp.obj
 0001:00017450       ??A?$CArray@PEAUfbobind_t@@@@QEBAAEAPEAUfbobind_t@@I@Z 0000000140018450 f i r_dlights.obj
 0001:00017450       ??A?$CArray@PEAUfontsetglinfo_t@@@@QEBAAEAPEAUfontsetglinfo_t@@I@Z 0000000140018450 f i r_text.obj
 0001:00017450       ??A?$CArray@PEAUparticle_t@CLegacyParticles@@@@QEBAAEAPEAUparticle_t@CLegacyParticles@@I@Z 0000000140018450 f i r_legacyparticles.obj
 0001:00017450       ??A?$CArray@PEAUsent_chunk_t@CSentencesFile@@@@QEBAAEAPEAUsent_chunk_t@CSentencesFile@@I@Z 0000000140018450 f i sentencesfile.obj
 0001:00017450       ??A?$CArray@PEAUsentence_t@CSentencesFile@@@@QEBAAEAPEAUsentence_t@CSentencesFile@@I@Z 0000000140018450 f i sentencesfile.obj
 0001:00017450       ??A?$CArray@PEAVCMenuButton@@@@QEBAAEAPEAVCMenuButton@@I@Z 0000000140018450 f i r_menu.obj
 0001:00017450       ??A?$CArray@Uglsl_shader_t@CGLSLShader@@@@QEBAAEAUglsl_shader_t@CGLSLShader@@I@Z 0000000140018450 f i r_glsl.obj
 0001:00017490       ??6CString@@QEAAAEAV0@M@Z  0000000140018490 f i texturemanager.obj
 0001:00017570       ?find@CString@@QEAAHIPEBD@Z 0000000140018570 f i texturemanager.obj
 0001:00017660       ?erase@CString@@QEAAXII@Z  0000000140018660 f i texturemanager.obj
 0001:00017750       ??0en_material_t@@QEAA@XZ  0000000140018750 f i texturemanager.obj
 0001:000177e0       ??_Gen_texture_t@@QEAAPEAXI@Z 00000001400187e0 f i texturemanager.obj
 0001:00017820       ?Shutdown@CTextureManager@@QEAAXXZ 0000000140018820 f   texturemanager.obj
 0001:000179e0       ??_Gen_material_t@@QEAAPEAXI@Z 00000001400189e0 f i texturemanager.obj
 0001:00017a60       ?GenTextureIndex@CTextureManager@@QEAAPEAUen_texalloc_t@@W4rs_level_t@@@Z 0000000140018a60 f   texturemanager.obj
 0001:00017b10       ?AllocTexture@CTextureManager@@AEAAPEAUen_texture_t@@XZ 0000000140018b10 f   texturemanager.obj
 0001:00017bc0       ?DeleteBinds@CTextureManager@@AEAAXW4rs_level_t@@@Z 0000000140018bc0 f   texturemanager.obj
 0001:00017db0       ?DeleteMaterials@CTextureManager@@QEAAXW4rs_level_t@@@Z 0000000140018db0 f   texturemanager.obj
 0001:00018210       ?DeleteTextures@CTextureManager@@QEAAXW4rs_level_t@@_N@Z 0000000140019210 f   texturemanager.obj
 0001:00018460       ?DeleteTexture@CTextureManager@@QEAAXPEBD@Z 0000000140019460 f   texturemanager.obj
 0001:000185a0       ?DeleteTexture@CTextureManager@@QEAAXPEAUen_texture_t@@@Z 00000001400195a0 f   texturemanager.obj
 0001:00018660       ?DeleteAllocation@CTextureManager@@QEAAXPEAUen_texalloc_t@@@Z 0000000140019660 f   texturemanager.obj
 0001:00018720       ?CreateDummyTexture@CTextureManager@@AEAAXXZ 0000000140019720 f   texturemanager.obj
 0001:00018b60       ?GetFormat@CTextureManager@@CA?AW4texture_format_t@@PEBD@Z 0000000140019b60 f   texturemanager.obj
 0001:00018d80       ?GetTextureType@CTextureManager@@CA?AW4mt_texture_t@@PEBD@Z 0000000140019d80 f   texturemanager.obj
 0001:00018fe0       ?LoadMaterialScript@CTextureManager@@QEAAPEAUen_material_t@@PEBDW4rs_level_t@@_N2@Z 0000000140019fe0 f   texturemanager.obj
 0001:0001b7f0       ?LoadTexture@CTextureManager@@QEAAPEAUen_texture_t@@PEBDW4rs_level_t@@HPEBH@Z 000000014001c7f0 f   texturemanager.obj
 0001:0001c560       ?LoadFromMemory@CTextureManager@@QEAAPEAUen_texture_t@@PEBDW4rs_level_t@@HPEBEIIII@Z 000000014001d560 f   texturemanager.obj
 0001:0001c8e0       ?FindTexture@CTextureManager@@QEAAPEAUen_texture_t@@PEBDW4rs_level_t@@@Z 000000014001d8e0 f   texturemanager.obj
 0001:0001c9d0       ?FindMaterialScript@CTextureManager@@QEAAPEAUen_material_t@@PEBDW4rs_level_t@@@Z 000000014001d9d0 f   texturemanager.obj
 0001:0001cbd0       ?LoadPallettedTexture@CTextureManager@@QEAAPEAUen_texture_t@@PEBDW4rs_level_t@@PEBEPEBUcolor24_t@@IIH@Z 000000014001dbd0 f   texturemanager.obj
 0001:0001d750       ?WritePMFFile@CTextureManager@@QEAAXPEAUen_material_t@@@Z 000000014001e750 f   texturemanager.obj
 0001:0001f980       ?remove@?$CLinkedList@PEAUbsp_decal_t@@@@QEAAXPEAUlink_t@1@@Z 0000000140020980 f i r_bsp.obj
 0001:0001f980       ?remove@?$CLinkedList@PEAUcache_fbo_t@CFBOCache@@@@QEAAXPEAUlink_t@1@@Z 0000000140020980 f i r_fbocache.obj
 0001:0001f980       ?remove@?$CLinkedList@PEAUcl_dlight_t@@@@QEAAXPEAUlink_t@1@@Z 0000000140020980 f i r_dlights.obj
 0001:0001f980       ?remove@?$CLinkedList@PEAUedict_t@@@@QEAAXPEAUlink_t@1@@Z 0000000140020980 f i sv_main.obj
 0001:0001f980       ?remove@?$CLinkedList@PEAUen_texalloc_t@@@@QEAAXPEAUlink_t@1@@Z 0000000140020980 f i texturemanager.obj
 0001:0001f980       ?remove@?$CLinkedList@PEAUen_texture_t@@@@QEAAXPEAUlink_t@1@@Z 0000000140020980 f i texturemanager.obj
 0001:0001f980       ?remove@?$CLinkedList@PEAUfilechunk_t@@@@QEAAXPEAUlink_t@1@@Z 0000000140020980 f i cl_main.obj
 0001:0001f980       ?remove@?$CLinkedList@PEAUparticle_system_t@@@@QEAAXPEAUlink_t@1@@Z 0000000140020980 f i r_particles.obj
 0001:0001f980       ?remove@?$CLinkedList@PEAUrtt_texture_t@@@@QEAAXPEAUlink_t@1@@Z 0000000140020980 f i r_rttcache.obj
 0001:0001f980       ?remove@?$CLinkedList@PEAUs_msg_cache_t@CSoundEngine@@@@QEAAXPEAUlink_t@1@@Z 0000000140020980 f i cl_snd.obj
 0001:0001f980       ?remove@?$CLinkedList@PEAUshadowmap_t@@@@QEAAXPEAUlink_t@1@@Z 0000000140020980 f i r_dlights.obj
 0001:0001f980       ?remove@?$CLinkedList@PEAUsnd_cache_t@CSoundEngine@@@@QEAAXPEAUlink_t@1@@Z 0000000140020980 f i cl_snd.obj
 0001:0001f980       ?remove@?$CLinkedList@PEAUsnd_music_t@CSoundEngine@@@@QEAAXPEAUlink_t@1@@Z 0000000140020980 f i cl_snd.obj
 0001:0001f980       ?remove@?$CLinkedList@PEAVCUIWindow@@@@QEAAXPEAUlink_t@1@@Z 0000000140020980 f i uimanager.obj
 0001:0001fae0       ?clear@?$CLinkedList@PEAUbsp_decal_t@@@@QEAAXXZ 0000000140020ae0 f i r_bsp.obj
 0001:0001fae0       ?clear@?$CLinkedList@PEAUcache_fbo_t@CFBOCache@@@@QEAAXXZ 0000000140020ae0 f i r_fbocache.obj
 0001:0001fae0       ?clear@?$CLinkedList@PEAUcl_dlight_t@@@@QEAAXXZ 0000000140020ae0 f i r_dlights.obj
 0001:0001fae0       ?clear@?$CLinkedList@PEAUedict_t@@@@QEAAXXZ 0000000140020ae0 f i sv_main.obj
 0001:0001fae0       ?clear@?$CLinkedList@PEAUen_material_t@@@@QEAAXXZ 0000000140020ae0 f i texturemanager.obj
 0001:0001fae0       ?clear@?$CLinkedList@PEAUen_texalloc_t@@@@QEAAXXZ 0000000140020ae0 f i texturemanager.obj
 0001:0001fae0       ?clear@?$CLinkedList@PEAUen_texture_t@@@@QEAAXXZ 0000000140020ae0 f i texturemanager.obj
 0001:0001fae0       ?clear@?$CLinkedList@PEAUfilechunk_t@@@@QEAAXXZ 0000000140020ae0 f i cl_main.obj
 0001:0001fae0       ?clear@?$CLinkedList@PEAUmparticle_t@CMenuParticles@@@@QEAAXXZ 0000000140020ae0 f i r_menuparticles.obj
 0001:0001fae0       ?clear@?$CLinkedList@PEAUparticle_system_t@@@@QEAAXXZ 0000000140020ae0 f i r_particles.obj
 0001:0001fae0       ?clear@?$CLinkedList@PEAUrtt_texture_t@@@@QEAAXXZ 0000000140020ae0 f i r_rttcache.obj
 0001:0001fae0       ?clear@?$CLinkedList@PEAUs_msg_cache_t@CSoundEngine@@@@QEAAXXZ 0000000140020ae0 f i cl_snd.obj
 0001:0001fae0       ?clear@?$CLinkedList@PEAUshadowmap_t@@@@QEAAXXZ 0000000140020ae0 f i r_dlights.obj
 0001:0001fae0       ?clear@?$CLinkedList@PEAUsnd_cache_t@CSoundEngine@@@@QEAAXXZ 0000000140020ae0 f i cl_snd.obj
 0001:0001fae0       ?clear@?$CLinkedList@PEAUsnd_music_t@CSoundEngine@@@@QEAAXXZ 0000000140020ae0 f i cl_snd.obj
 0001:0001fae0       ?clear@?$CLinkedList@PEAUsnd_oggcache_t@@@@QEAAXXZ 0000000140020ae0 f i cl_snd.obj
 0001:0001fae0       ?clear@?$CLinkedList@PEAUthreadfile_t@@@@QEAAXXZ 0000000140020ae0 f i filewriterthread.obj
 0001:0001fae0       ?clear@?$CLinkedList@PEAUusermsgdata_t@@@@QEAAXXZ 0000000140020ae0 f i sv_main.obj
 0001:0001fae0       ?clear@?$CLinkedList@PEAVCCVar@@@@QEAAXXZ 0000000140020ae0 f i console.obj
 0001:0001fae0       ?clear@?$CLinkedList@PEAVCUIWindow@@@@QEAAXXZ 0000000140020ae0 f i uimanager.obj
 0001:0001fca0       ??1?$CLinkedList@PEAUbsp_decal_t@@@@QEAA@XZ 0000000140020ca0 f i r_bsp.obj
 0001:0001fca0       ??1?$CLinkedList@PEAUen_texture_t@@@@QEAA@XZ 0000000140020ca0 f i texturemanager.obj
 0001:0001fca0       ??1?$CLinkedList@PEAUmparticle_t@CMenuParticles@@@@QEAA@XZ 0000000140020ca0 f i r_menuparticles.obj
 0001:0001fca0       ??1?$CLinkedList@PEAUparticle_system_t@@@@QEAA@XZ 0000000140020ca0 f i r_particles.obj
 0001:0001fca0       ??1?$CLinkedList@PEAUs_msg_cache_t@CSoundEngine@@@@QEAA@XZ 0000000140020ca0 f i cl_snd.obj
 0001:0001fca0       ??1?$CLinkedList@PEAUsnd_cache_t@CSoundEngine@@@@QEAA@XZ 0000000140020ca0 f i cl_snd.obj
 0001:0001fca0       ??1?$CLinkedList@PEAUsnd_music_t@CSoundEngine@@@@QEAA@XZ 0000000140020ca0 f i cl_snd.obj
 0001:0001fca0       ??1?$CLinkedList@PEAUsnd_oggcache_t@@@@QEAA@XZ 0000000140020ca0 f i cl_snd.obj
 0001:0001fca0       ??1?$CLinkedList@PEAVCCVar@@@@QEAA@XZ 0000000140020ca0 f i console.obj
 0001:0001fca0       ??1?$CLinkedList@PEAVCUIWindow@@@@QEAA@XZ 0000000140020ca0 f i uimanager.obj
 0001:0001fcd0       ?resize@?$CArray@PEAUbsp_decal_t@@@@QEAAXI@Z 0000000140020cd0 f i r_bsp.obj
 0001:0001fcd0       ?resize@?$CArray@PEAUdetail_association_t@@@@QEAAXI@Z 0000000140020cd0 f i r_wadtextures.obj
 0001:0001fcd0       ?resize@?$CArray@PEAUdetailtexture_t@@@@QEAAXI@Z 0000000140020cd0 f i r_wadtextures.obj
 0001:0001fcd0       ?resize@?$CArray@PEAUen_material_t@@@@QEAAXI@Z 0000000140020cd0 f i texturemanager.obj
 0001:0001fcd0       ?resize@?$CArray@PEAUentity_extrainfo_t@@@@QEAAXI@Z 0000000140020cd0 f i cl_main.obj
 0001:0001fcd0       ?resize@?$CArray@PEAUmaterial_association_t@CWADTextureResource@@@@QEAAXI@Z 0000000140020cd0 f i r_wadtextures.obj
 0001:0001fcd0       ?resize@?$CArray@PEAUvbm_decal_mesh_t@@@@QEAAXI@Z 0000000140020cd0 f i r_vbm.obj
 0001:0001fcd0       ?resize@?$CArray@PEAVCUIObject@@@@QEAAXI@Z 0000000140020cd0 f i uielements.obj
 0001:0001fde0       ?clear@?$CLinkedList@Ualias_mapping_t@CTextureManager@@@@QEAAXXZ 0000000140020de0 f i texturemanager.obj
 0001:0001fde0       ?clear@?$CLinkedList@Ucl_resource_t@@@@QEAAXXZ 0000000140020de0 f i cl_main.obj
 0001:0001ffc0       ?resize@?$CArray@H@@QEAAXI@Z 0000000140020fc0 f i texturemanager.obj
 0001:0001ffc0       ?resize@?$CArray@I@@QEAAXI@Z 0000000140020fc0 f i brushmodel.obj
 0001:000200d0       ?getBrushmodel@cache_model_t@@QEAAPEAUbrushmodel_t@@XZ 00000001400210d0 f i ald.obj
 0001:00020110       ?ALD_Load@@YAPEAEW4daystage_t@@@Z 0000000140021110 f   ald.obj
 0001:00020590       ?ALD_ExportLightmaps@@YAXXZ 0000000140021590 f   ald.obj
 0001:00020980       ?BoxOnPlaneSide@@YAIAEBVVector@@0PEBUplane_t@@@Z 0000000140021980 f i brushmodel.obj
 0001:00020bb0       ?RotatePointAroundVector@@YAXAEBVVector@@0MAEAV1@@Z 0000000140021bb0 f i brushmodel.obj
 0001:00020da0       ?Mod_PointInLeaf@@YAPEBUmleaf_t@@AEBVVector@@AEBUbrushmodel_t@@@Z 0000000140021da0 f   brushmodel.obj
 0001:00020e20       ?Mod_DecompressVIS@@YAPEAEPEAEI0AEBUbrushmodel_t@@I@Z 0000000140021e20 f   brushmodel.obj
 0001:00020f40       ?Mod_DecompressPAS@@YAPEAEPEAEI0AEBUbrushmodel_t@@I@Z 0000000140021f40 f   brushmodel.obj
 0001:00021060       ?Mod_LeafPVS@@YAPEBEPEAEIAEBUmleaf_t@@AEBUbrushmodel_t@@@Z 0000000140022060 f   brushmodel.obj
 0001:000210e0       ?Mod_LeafPAS@@YAPEBEPEAEIAEBUmleaf_t@@AEBUbrushmodel_t@@@Z 00000001400220e0 f   brushmodel.obj
 0001:00021160       ?Mod_SurfaceAtPoint@@YAPEBUmsurface_t@@PEBUbrushmodel_t@@PEBUmnode_t@@AEBVVector@@2@Z 0000000140022160 f   brushmodel.obj
 0001:000213a0       ?Mod_FindTouchedLeafs@@YAXPEBUbrushmodel_t@@AEAV?$CArray@I@@AEBVVector@@2PEAUmnode_t@@@Z 00000001400223a0 f   brushmodel.obj
 0001:00021480       ?Mod_RecursiveLightPoint@@YA_NPEBUbrushmodel_t@@PEAUmnode_t@@AEBVVector@@2AEAV3@@Z 0000000140022480 f   brushmodel.obj
 0001:00021820       ?Mod_RecursiveLightPoint_BumpData@@YA_NPEBUbrushmodel_t@@PEAUmnode_t@@AEBVVector@@2AEAV3@33@Z 0000000140022820 f   brushmodel.obj
 0001:00021e10       ??ACString@@QEBADI@Z       0000000140022e10 f i bspv30.obj
 0001:00021e90       ??0plane_t@@QEAA@XZ        0000000140022e90 f i bspv30.obj
 0001:00021eb0       ??0mtexture_t@@QEAA@XZ     0000000140022eb0 f i bspv30.obj
 0001:00021ee0       ??0msurface_t@@QEAA@XZ     0000000140022ee0 f i bspv30.obj
 0001:00021f30       ??0brushmodel_t@@QEAA@XZ   0000000140022f30 f i bspv30.obj
 0001:000220d0       ??1brushmodel_t@@QEAA@XZ   00000001400230d0 f i bspv30.obj
 0001:00022290       ??1msurface_t@@QEAA@XZ     0000000140023290 f i bspv30.obj
 0001:000222a0       ?BSPV30_Load@@YAPEAUbrushmodel_t@@PEBEPEBUdheader_t@@PEBD@Z 00000001400232a0 f   bspv30.obj
 0001:00022ac0       ?BSPV30_LoadTextures@@YA_NPEBEAEAUbrushmodel_t@@AEBUlump_t@@@Z 0000000140023ac0 f   bspv30.obj
 0001:00023330       ?BSPV30_LoadFaces@@YA_NPEBEAEAUbrushmodel_t@@AEBUlump_t@@@Z 0000000140024330 f   bspv30.obj
 0001:00023640       ?BSPV30_LoadLeafs@@YA_NPEBEAEAUbrushmodel_t@@AEBUlump_t@@@Z 0000000140024640 f   bspv30.obj
 0001:00023800       ?BSPV30_LoadNodes@@YA_NPEBEAEAUbrushmodel_t@@AEBUlump_t@@@Z 0000000140024800 f   bspv30.obj
 0001:00023a20       ?BSPV30_LoadClipnodes@@YA_NPEBEAEAUbrushmodel_t@@AEBUlump_t@@@Z 0000000140024a20 f   bspv30.obj
 0001:00023c20       ?BSPV30_LoadSubmodels@@YA_NPEBEAEAUbrushmodel_t@@AEBUlump_t@@@Z 0000000140024c20 f   bspv30.obj
 0001:00023dd0       ?BSPV30_SetNodeParent@@YAXPEAUmnode_t@@0@Z 0000000140024dd0 f   bspv30.obj
 0001:00023dd0       ?PBSPV1_SetNodeParent@@YAXPEAUmnode_t@@0@Z 0000000140024dd0 f   pbspv1.obj
 0001:00023e10       ?BSPV30_CalcSurfaceExtents@@YA_NPEAUmsurface_t@@AEAUbrushmodel_t@@@Z 0000000140024e10 f   bspv30.obj
 0001:00024200       ?BSPV30_SetupPAS@@YAXAEAUbrushmodel_t@@@Z 0000000140025200 f   bspv30.obj
 0001:00024740       ?Cmd_Disconnect@@YAXXZ     0000000140025740 f   cl_cmd.obj
 0001:000247b0       ?Cmd_Connect@@YAXXZ        00000001400257b0 f   cl_cmd.obj
 0001:000248b0       ?Cmd_DownloadFile@@YAXXZ   00000001400258b0 f   cl_cmd.obj
 0001:00024ab0       ?Cmd_Heartbeat@@YAXXZ      0000000140025ab0 f   cl_cmd.obj
 0001:00024ac0       ?radd@?$CLinkedList@Ucl_resource_t@@@@QEAAPEAUlink_t@1@Ucl_resource_t@@@Z 0000000140025ac0 f i cl_cmd.obj
 0001:00024b80       ?CL_AllocStaticSpriteEntity@@YAPEAUcl_entity_t@@XZ 0000000140025b80 f   cl_efx.obj
 0001:00024be0       ?CL_AllocTempSpriteEntity@@YAPEAUcl_entity_t@@HM@Z 0000000140025be0 f   cl_efx.obj
 0001:00024bf0       ?CL_AllocEntityLight@@YAPEAUmlight_t@@HMH@Z 0000000140025bf0 f   cl_efx.obj
 0001:00024da0       ?CL_CreateCableEntity@@YAXAEBVVector@@0III@Z 0000000140025da0 f   cl_efx.obj
 0001:00024dd0       ?CL_SetFogParameters@@YAXHAEBVVector@@MM_NM@Z 0000000140025dd0 f   cl_efx.obj
 0001:00024f40       ?CL_SetSkyboxParameters@@YAXAEBVVector@@MMM0H_N1@Z 0000000140025f40 f   cl_efx.obj
 0001:00025030       ?CL_AllocDynamicPointLight@@YAPEAUcl_dlight_t@@HH_N0PEAUcl_entity_t@@@Z 0000000140026030 f   cl_efx.obj
 0001:00025060       ?CL_AllocDynamicSpotLight@@YAPEAUcl_dlight_t@@HH_N0PEAUcl_entity_t@@@Z 0000000140026060 f   cl_efx.obj
 0001:00025090       ?CL_SetDayStage@@YAXW4daystage_t@@@Z 0000000140026090 f   cl_efx.obj
 0001:00025230       ?CL_SetSpecialFog@@YAX_N@Z 0000000140026230 f   cl_efx.obj
 0001:00025270       ?CL_FreeEntityData@@YAXHH@Z 0000000140026270 f   cl_efx.obj
 0001:00025440       ?CL_SetLightStyle@@YAXHPEBD_NM@Z 0000000140026440 f   cl_efx.obj
 0001:00025480       ?CL_GetDecalList@@YAAEAVCDecalList@@XZ 0000000140026480 f   cl_efx.obj
 0001:00025490       ?CL_DecalVBMEntity@@YAXAEBVVector@@0PEAUdecalgroupentry_t@@PEAUcl_entity_t@@H@Z 0000000140026490 f   cl_efx.obj
 0001:000254c0       ?CL_CreateGenericDecal@@YAXPEBDAEBVVector@@1HHMMM@Z 00000001400264c0 f   cl_efx.obj
 0001:00025520       ?CL_PrecacheParticleScript@@YAXW4part_script_type_t@@PEBD@Z 0000000140026520 f   cl_efx.obj
 0001:00025540       ?CL_RemoveParticleSystem@@YAXIH_N@Z 0000000140026540 f   cl_efx.obj
 0001:000255e0       ?CL_KillEntityParticleSystems@@YAXH@Z 00000001400265e0 f   cl_efx.obj
 0001:000255f0       ?CL_SpawnParticleSystem@@YAXAEBVVector@@0W4part_script_type_t@@PEBDHHHHH@Z 00000001400265f0 f   cl_efx.obj
 0001:00025650       ?CL_SetMotionBlur@@YAX_NM0@Z 0000000140026650 f   cl_efx.obj
 0001:000256d0       ?CL_SetVignette@@YAX_NMM@Z 00000001400266d0 f   cl_efx.obj
 0001:00025700       ?CL_SetFilmGrain@@YAX_NM@Z 0000000140026700 f   cl_efx.obj
 0001:00025720       ?CL_SetBlackWhite@@YAX_NM@Z 0000000140026720 f   cl_efx.obj
 0001:00025740       ?CL_SetChromatic@@YAX_NM@Z 0000000140026740 f   cl_efx.obj
 0001:00025760       ?CL_SetFade@@YAXIMMHAEBUcolor24_t@@EM@Z 0000000140026760 f   cl_efx.obj
 0001:000258b0       ?CL_SetGaussianBlur@@YAX_NM@Z 00000001400268b0 f   cl_efx.obj
 0001:000258d0       ?CL_BreakModel@@YAXAEBVVector@@00IMIIHMMH@Z 00000001400268d0 f   cl_efx.obj
 0001:00025950       ?CL_Bubbles@@YAXAEBVVector@@0MIIM@Z 0000000140026950 f   cl_efx.obj
 0001:00025980       ?CL_BubbleTrail@@YAXAEBVVector@@0MIIM@Z 0000000140026980 f   cl_efx.obj
 0001:000259b0       ?CL_FunnelSprite@@YAXAEBVVector@@0MI_N@Z 00000001400269b0 f   cl_efx.obj
 0001:000259e0       ?CL_SphereModel@@YAXAEBVVector@@MMIIMMH@Z 00000001400269e0 f   cl_efx.obj
 0001:00025a30       ?CL_TempModel@@YAPEAUtempentity_t@@AEBVVector@@00MIHMMH@Z 0000000140026a30 f   cl_efx.obj
 0001:00025a90       ?CL_TempSprite@@YAPEAUtempentity_t@@AEBVVector@@0MIHHMMHH@Z 0000000140026a90 f   cl_efx.obj
 0001:00025af0       ?CL_ParticleExplosion1@@YAXAEBVVector@@@Z 0000000140026af0 f   cl_efx.obj
 0001:00025b00       ?CL_ParticleExplosion2@@YAXAEBVVector@@II@Z 0000000140026b00 f   cl_efx.obj
 0001:00025b10       ?CL_BlobExplosion@@YAXAEBVVector@@@Z 0000000140026b10 f   cl_efx.obj
 0001:00025b20       ?CL_RocketExplosion@@YAXAEBVVector@@I@Z 0000000140026b20 f   cl_efx.obj
 0001:00025b30       ?CL_ParticleEffect@@YAXAEBVVector@@0II@Z 0000000140026b30 f   cl_efx.obj
 0001:00025b50       ?CL_LavaSplash@@YAXAEBVVector@@@Z 0000000140026b50 f   cl_efx.obj
 0001:00025b60       ?CL_TeleportSplash@@YAXAEBVVector@@@Z 0000000140026b60 f   cl_efx.obj
 0001:00025b70       ?CL_RocketTrail@@YAXAEBVVector@@0I@Z 0000000140026b70 f   cl_efx.obj
 0001:00025b80       ?CL_BeamLightning@@YAPEAUbeam_t@@AEBVVector@@0HMMMMMMH@Z 0000000140026b80 f   cl_efx.obj
 0001:00025c00       ?CL_BeamCirclePoints@@YAPEAUbeam_t@@W4beam_types_t@@AEBVVector@@1HMMMMMMIMMMMH@Z 0000000140026c00 f   cl_efx.obj
 0001:00025cd0       ?CL_BeamEntityPoint@@YAPEAUbeam_t@@HHAEBVVector@@HMMMMMMIMMMMH@Z 0000000140026cd0 f   cl_efx.obj
 0001:00025da0       ?CL_BeamEntities@@YAPEAUbeam_t@@HHHHHMMMMMMIMMMMH@Z 0000000140026da0 f   cl_efx.obj
 0001:00025e80       ?CL_BeamFollow@@YAPEAUbeam_t@@HHHMMMMMM@Z 0000000140026e80 f   cl_efx.obj
 0001:00025ef0       ?CL_BeamPoints@@YAPEAUbeam_t@@AEBVVector@@0HMMMMMMIMMMMH@Z 0000000140026ef0 f   cl_efx.obj
 0001:00025fb0       ?CL_BeamRing@@YAPEAUbeam_t@@HHHHHMMMMMMIMMMMH@Z 0000000140026fb0 f   cl_efx.obj
 0001:00026090       ?CL_BeamVaporTrail@@YAPEAUbeam_t@@AEBVVector@@0HHMMMMMMMMMMMH@Z 0000000140027090 f   cl_efx.obj
 0001:00026170       ?CL_KillEntityBeams@@YAXH@Z 0000000140027170 f   cl_efx.obj
 0001:00026180       ?CL_CreateBlackHole@@YAXHAEBVVector@@MMMMMM@Z 0000000140027180 f   cl_efx.obj
 0001:00026300       ?CL_KillBlackHole@@YAXH@Z  0000000140027300 f   cl_efx.obj
 0001:00026530       ?CL_SetSunFlare@@YAXH_NMMMAEBVVector@@0@Z 0000000140027530 f   cl_efx.obj
 0001:00026570       ?CL_AddSkyTextureSet@@YAXPEBDH@Z 0000000140027570 f   cl_efx.obj
 0001:00026580       ?CL_SetSkyTexture@@YAXH@Z  0000000140027580 f   cl_efx.obj
 0001:000265d0       ??0entity_state_t@@QEAA@XZ 00000001400275d0 f i cl_main.obj
 0001:00026820       ??0cl_entity_t@@QEAA@XZ    0000000140027820 f i cl_main.obj
 0001:00026900       ??1glowstate_t@@QEAA@XZ    0000000140027900 f i cl_main.obj
 0001:00026910       ??0pm_info_t@@QEAA@XZ      0000000140027910 f i cl_main.obj
 0001:000269d0       ??0flexstate_t@@QEAA@XZ    00000001400279d0 f i cl_main.obj
 0001:00026ce0       ??0entity_lightinfo_t@@QEAA@XZ 0000000140027ce0 f i cl_main.obj
 0001:00026f00       ??0usermsgdata_t@@QEAA@XZ  0000000140027f00 f i cl_main.obj
 0001:00026f50       ??1cl_download_t@@QEAA@XZ  0000000140027f50 f i cl_main.obj
 0001:00026f90       ??0clientstate_t@@QEAA@XZ  0000000140027f90 f i cl_main.obj
 0001:00027240       ??1cl_net_t@@QEAA@XZ       0000000140028240 f i cl_main.obj
 0001:00027370       ??4entity_state_t@@QEAAAEAU0@$$QEAU0@@Z 0000000140028370 f i cl_main.obj
 0001:00027370       ??4entity_state_t@@QEAAAEAU0@AEBU0@@Z 0000000140028370 f i cl_main.obj
 0001:00027a50       ??1cl_entity_t@@QEAA@XZ    0000000140028a50 f i cl_main.obj
 0001:00027a70       ?CL_Init@@YA_NXZ           0000000140028a70 f   cl_main.obj
 0001:00028590       ?CL_ResetGame@@YAXXZ       0000000140029590 f   cl_main.obj
 0001:00028860       ?CL_SendCmd@@YAXXZ         0000000140029860 f   cl_main.obj
 0001:00028d80       ?CL_Frame@@YAXXZ           0000000140029d80 f   cl_main.obj
 0001:00029030       ?CL_InitGame@@YA_NXZ       000000014002a030 f   cl_main.obj
 0001:00029730       ?CL_EstablishConnection@@YA_NPEBD_N@Z 000000014002a730 f   cl_main.obj
 0001:00029aa0       ?CL_Disconnect@@YAX_N0@Z   000000014002aaa0 f   cl_main.obj
 0001:00029c30       ?CL_CheckGameReady@@YA_NXZ 000000014002ac30 f   cl_main.obj
 0001:00029cd0       ?CL_SendHeartbeat@@YAX_N@Z 000000014002acd0 f   cl_main.obj
 0001:00029d70       ?CL_SetEntityTypeData@@YAXPEAUcl_entity_t@@PEAUentity_extrainfo_t@@W4entity_type_t@@@Z 000000014002ad70 f   cl_main.obj
 0001:00029f40       ?CL_GetEntityExtraData@@YAPEAUentity_extrainfo_t@@PEAUcl_entity_t@@@Z 000000014002af40 f   cl_main.obj
 0001:0002a1a0       ?CL_ClearEntities@@YAXXZ   000000014002b1a0 f   cl_main.obj
 0001:0002a490       ??4cl_entity_t@@QEAAAEAU0@$$QEAU0@@Z 000000014002b490 f i cl_main.obj
 0001:0002a490       ??4cl_entity_t@@QEAAAEAU0@AEBU0@@Z 000000014002b490 f i cl_main.obj
 0001:0002a810       ?CL_ResetLighting@@YAXXZ   000000014002b810 f   cl_main.obj
 0001:0002a8c0       ?CL_PrecacheFlexScript@@YAXW4flextypes_t@@PEBD@Z 000000014002b8c0 f   cl_main.obj
 0001:0002a920       ?CL_SetFlexScript@@YAXHPEBD@Z 000000014002b920 f   cl_main.obj
 0001:0002aa20       ?CL_ClientCommand@@YAXPEBD@Z 000000014002ba20 f   cl_main.obj
 0001:0002aa50       ?CL_ServerCommand@@YAXPEBD@Z 000000014002ba50 f   cl_main.obj
 0001:0002ab20       ?CL_LinkMapTextureMaterials@@YAXAEAV?$CArray@VCString@@@@@Z 000000014002bb20 f   cl_main.obj
 0001:0002b310       ??0adv_choice_t@CUISettingsWindow@@QEAA@XZ 000000014002c310 f i uisettingswindow.obj
 0001:0002b310       ??0maptexturematerial_t@@QEAA@XZ 000000014002c310 f i cl_main.obj
 0001:0002b310       ??0sent_assoc_t@@QEAA@XZ   000000014002c310 f i flexmanager.obj
 0001:0002b310       ??0setting_t@CUISettingsWindow@@QEAA@XZ 000000014002c310 f i uisettingswindow.obj
 0001:0002b330       ??1adv_choice_t@CUISettingsWindow@@QEAA@XZ 000000014002c330 f i uisettingswindow.obj
 0001:0002b330       ??1cmd_definition_t@CCommandManager@@QEAA@XZ 000000014002c330 f i commands.obj
 0001:0002b330       ??1con_input_t@@QEAA@XZ    000000014002c330 f i console.obj
 0001:0002b330       ??1maptexturematerial_t@@QEAA@XZ 000000014002c330 f i cl_main.obj
 0001:0002b330       ??1sent_assoc_t@@QEAA@XZ   000000014002c330 f i flexmanager.obj
 0001:0002b330       ??1setting_t@CUISettingsWindow@@QEAA@XZ 000000014002c330 f i uisettingswindow.obj
 0001:0002b330       ??1sv_level_connection_t@@QEAA@XZ 000000014002c330 f i sv_main.obj
 0001:0002b380       ?CL_UpdateAttachments@@YAXPEAUcl_entity_t@@@Z 000000014002c380 f   cl_main.obj
 0001:0002b390       ?CL_GetMaxClients@@YAIXZ   000000014002c390 f   cl_main.obj
 0001:0002b3a0       ?CL_UpdateParentedEntities@@YAXXZ 000000014002c3a0 f   cl_main.obj
 0001:0002b590       ?CL_SetPaused@@YAX_N0@Z    000000014002c590 f   cl_main.obj
 0001:0002b650       ??4?$CArray@M@@QEAAXAEBV0@@Z 000000014002c650 f i cl_main.obj
 0001:0002b6c0       ??1?$CArray@Uusermsg_t@@@@QEAA@XZ 000000014002c6c0 f i cl_main.obj
 0001:0002b700       ??1?$CArray@Ucl_usermsgfunction_t@@@@QEAA@XZ 000000014002c700 f i cl_main.obj
 0001:0002b700       ??1?$CArray@Uhdr_column_t@CUIListHeader@@@@QEAA@XZ 000000014002c700 f i uielements.obj
 0001:0002b740       ??1?$CLinkedList@Ucl_resource_t@@@@QEAA@XZ 000000014002c740 f i cl_main.obj
 0001:0002b770       ??1?$CArray@Udecalcache_t@@@@QEAA@XZ 000000014002c770 f i cl_main.obj
 0001:0002b770       ??1?$CArray@Udisabled_state_t@CGLSLShader@@@@QEAA@XZ 000000014002c770 f i r_glsl.obj
 0001:0002b770       ??1?$CArray@Usnd_missing_t@CSoundEngine@@@@QEAA@XZ 000000014002c770 f i cl_snd.obj
 0001:0002b7c0       ??1?$CArray@Ucl_entity_t@@@@QEAA@XZ 000000014002c7c0 f i cl_main.obj
 0001:0002b800       ?resize@?$CArray@Ucl_entity_t@@@@QEAAXI@Z 000000014002c800 f i cl_main.obj
 0001:0002b980       ??A?$CArray@Ucl_entity_t@@@@QEBAAEAUcl_entity_t@@I@Z 000000014002c980 f i cl_main.obj
 0001:0002b9d0       ?resize@?$CArray@Uusercmd_t@@@@QEAAXI@Z 000000014002c9d0 f i cl_main.obj
 0001:0002bd80       ??1?$CArray@Umaptexturematerial_t@@@@QEAA@XZ 000000014002cd80 f i cl_main.obj
 0001:0002bdc0       ??_Eusermsg_t@@QEAAPEAXI@Z 000000014002cdc0 f i cl_main.obj
 0001:0002be00       ??_Ecl_usermsgfunction_t@@QEAAPEAXI@Z 000000014002ce00 f i cl_main.obj
 0001:0002be00       ??_Ehdr_column_t@CUIListHeader@@QEAAPEAXI@Z 000000014002ce00 f i uielements.obj
 0001:0002be00       ??_Esv_usermsgfunction_t@@QEAAPEAXI@Z 000000014002ce00 f i sv_main.obj
 0001:0002be40       ??_Edecalcache_t@@QEAAPEAXI@Z 000000014002ce40 f i cl_main.obj
 0001:0002be40       ??_Edisabled_state_t@CGLSLShader@@QEAAPEAXI@Z 000000014002ce40 f i r_glsl.obj
 0001:0002be40       ??_Edll_export_t@@QEAAPEAXI@Z 000000014002ce40 f i sv_main.obj
 0001:0002be40       ??_Esnd_missing_t@CSoundEngine@@QEAAPEAXI@Z 000000014002ce40 f i cl_snd.obj
 0001:0002be40       ??_Esv_model_t@@QEAAPEAXI@Z 000000014002ce40 f i sv_main.obj
 0001:0002be40       ??_Esv_particlecache_t@@QEAAPEAXI@Z 000000014002ce40 f i sv_main.obj
 0001:0002be40       ??_Esv_sound_t@@QEAAPEAXI@Z 000000014002ce40 f i sv_main.obj
 0001:0002be80       ??_Ecl_entity_t@@QEAAPEAXI@Z 000000014002ce80 f i cl_main.obj
 0001:0002bec0       ??_Eadv_choice_t@CUISettingsWindow@@QEAAPEAXI@Z 000000014002cec0 f i uisettingswindow.obj
 0001:0002bec0       ??_Emaptexturematerial_t@@QEAAPEAXI@Z 000000014002cec0 f i cl_main.obj
 0001:0002bec0       ??_Esent_assoc_t@@QEAAPEAXI@Z 000000014002cec0 f i flexmanager.obj
 0001:0002bec0       ??_Esetting_t@CUISettingsWindow@@QEAAPEAXI@Z 000000014002cec0 f i uisettingswindow.obj
 0001:0002bf00       ??1part_msg_cache_t@@QEAA@XZ 000000014002cf00 f i r_particles.obj
 0001:0002bf00       ??1usermsg_t@@QEAA@XZ      000000014002cf00 f i cl_main.obj
 0001:0002bf20       ?resize@?$CArray@M@@QEAAXI@Z 000000014002cf20 f i cl_main.obj
 0001:0002c0c0       ?resize@?$CArray@Uadv_choice_t@CUISettingsWindow@@@@QEAAXI@Z 000000014002d0c0 f i uisettingswindow.obj
 0001:0002c0c0       ?resize@?$CArray@Umaptexturematerial_t@@@@QEAAXI@Z 000000014002d0c0 f i cl_main.obj
 0001:0002c0c0       ?resize@?$CArray@Usent_assoc_t@@@@QEAAXI@Z 000000014002d0c0 f i flexmanager.obj
 0001:0002c0c0       ?resize@?$CArray@Usetting_t@CUISettingsWindow@@@@QEAAXI@Z 000000014002d0c0 f i uisettingswindow.obj
 0001:0002c290       ??0decalcache_t@@QEAA@XZ   000000014002d290 f i cl_msg.obj
 0001:0002c290       ??0snd_missing_t@CSoundEngine@@QEAA@XZ 000000014002d290 f i cl_snd.obj
 0001:0002c290       ??0sv_particlecache_t@@QEAA@XZ 000000014002d290 f i sv_msg.obj
 0001:0002c2b0       ?HasError@CMSGReader@@QEAA_NXZ 000000014002d2b0 f i cl_msg.obj
 0001:0002c3d0       ?ReadByte@CMSGReader@@QEAAEXZ 000000014002d3d0 f i cl_msg.obj
 0001:0002c4d0       ?ReadInt16@CMSGReader@@QEAAFXZ 000000014002d4d0 f i cl_msg.obj
 0001:0002c4d0       ?ReadUint16@CMSGReader@@QEAAGXZ 000000014002d4d0 f i cl_msg.obj
 0001:0002c5e0       ?ReadInt32@CMSGReader@@QEAAHXZ 000000014002d5e0 f i cl_msg.obj
 0001:0002c5e0       ?ReadUint32@CMSGReader@@QEAAIXZ 000000014002d5e0 f i cl_msg.obj
 0001:0002c6e0       ?ReadInt64@CMSGReader@@QEAA_JXZ 000000014002d6e0 f i cl_msg.obj
 0001:0002c6e0       ?ReadUint64@CMSGReader@@QEAA_KXZ 000000014002d6e0 f i cl_msg.obj
 0001:0002c7e0       ?ReadSmallFloat@CMSGReader@@QEAAMXZ 000000014002d7e0 f i cl_msg.obj
 0001:0002c830       ?ReadFloat@CMSGReader@@QEAAMXZ 000000014002d830 f i cl_msg.obj
 0001:0002c930       ?ReadString@CMSGReader@@QEAAPEBDXZ 000000014002d930 f i cl_msg.obj
 0001:0002ca50       ?ReadBuffer@CMSGReader@@QEAAPEBEI@Z 000000014002da50 f i cl_msg.obj
 0001:0002cb50       ??0cl_usermsgfunction_t@@QEAA@XZ 000000014002db50 f i cl_msg.obj
 0001:0002cb50       ??0sv_usermsgfunction_t@@QEAA@XZ 000000014002db50 f i sv_msg.obj
 0001:0002cb70       ?CL_ReadMessages@@YA_NXZ   000000014002db70 f   cl_msg.obj
 0001:0002d6c0       ?CL_ParseAddAVelocity@@YAXXZ 000000014002e6c0 f   cl_msg.obj
 0001:0002d8d0       ?CL_ParseViewSetAngles@@YAXXZ 000000014002e8d0 f   cl_msg.obj
 0001:0002dab0       ?CL_ParseServerInfo@@YA_NXZ 000000014002eab0 f   cl_msg.obj
 0001:0002dea0       ?CL_ReadClientData@@YA_NXZ 000000014002eea0 f   cl_msg.obj
 0001:0002e160       ?CL_UpdateLatchedState@@YAXPEAUcl_entity_t@@@Z 000000014002f160 f   cl_msg.obj
 0001:0002e560       ?CL_ResetLatchedState@@YAXPEAUcl_entity_t@@@Z 000000014002f560 f   cl_msg.obj
 0001:0002e9c0       ?CL_ReadPacketEntities@@YA_NXZ 000000014002f9c0 f   cl_msg.obj
 0001:00033820       ?CL_ReadDecalPrecacheMessage@@YAXXZ 0000000140034820 f   cl_msg.obj
 0001:00033a30       ?CL_RegisterUserMessage@@YAXXZ 0000000140034a30 f   cl_msg.obj
 0001:00033dd0       ?CL_ReadSoundEngineMessage@@YAXXZ 0000000140034dd0 f   cl_msg.obj
 0001:000346e0       ?CL_RegisterClientUserMessage@@YAHPEBDH@Z 00000001400356e0 f   cl_msg.obj
 0001:00034700       ?CL_ClientUserMessageBegin@@YAXH@Z 0000000140035700 f   cl_msg.obj
 0001:00034790       ?CL_ClientUserMessageEnd@@YAXXZ 0000000140035790 f   cl_msg.obj
 0001:00034900       ?CL_Msg_WriteByte@@YAXE@Z  0000000140035900 f   cl_msg.obj
 0001:00034960       ?CL_Msg_WriteChar@@YAXD@Z  0000000140035960 f   cl_msg.obj
 0001:000349c0       ?CL_Msg_WriteInt16@@YAXF@Z 00000001400359c0 f   cl_msg.obj
 0001:00034a20       ?CL_Msg_WriteUint16@@YAXG@Z 0000000140035a20 f   cl_msg.obj
 0001:00034a80       ?CL_Msg_WriteEntindex@@YAXH@Z 0000000140035a80 f   cl_msg.obj
 0001:00034a80       ?CL_Msg_WriteInt32@@YAXH@Z 0000000140035a80 f   cl_msg.obj
 0001:00034ae0       ?CL_Msg_WriteUint32@@YAXI@Z 0000000140035ae0 f   cl_msg.obj
 0001:00034b40       ?CL_Msg_WriteInt64@@YAX_J@Z 0000000140035b40 f   cl_msg.obj
 0001:00034ba0       ?CL_Msg_WriteUint64@@YAX_K@Z 0000000140035ba0 f   cl_msg.obj
 0001:00034c00       ?CL_Msg_WriteSmallFloat@@YAXM@Z 0000000140035c00 f   cl_msg.obj
 0001:00034c70       ?CL_Msg_WriteFloat@@YAXM@Z 0000000140035c70 f   cl_msg.obj
 0001:00034cd0       ?CL_Msg_WriteDouble@@YAXN@Z 0000000140035cd0 f   cl_msg.obj
 0001:00034d30       ?CL_Msg_WriteBuffer@@YAXPEBEI@Z 0000000140035d30 f   cl_msg.obj
 0001:00034dc0       ?CL_Msg_WriteString@@YAXPEBD@Z 0000000140035dc0 f   cl_msg.obj
 0001:00034f00       ?resize@?$CArray@Ucl_usermsgfunction_t@@@@QEAAXI@Z 0000000140035f00 f i cl_msg.obj
 0001:00034f00       ?resize@?$CArray@Usv_usermsgfunction_t@@@@QEAAXI@Z 0000000140035f00 f i sv_msg.obj
 0001:000350a0       ?resize@?$CArray@Udecalcache_t@@@@QEAAXI@Z 00000001400360a0 f i cl_msg.obj
 0001:000350a0       ?resize@?$CArray@Usnd_missing_t@CSoundEngine@@@@QEAAXI@Z 00000001400360a0 f i cl_snd.obj
 0001:000350a0       ?resize@?$CArray@Usv_particlecache_t@@@@QEAAXI@Z 00000001400360a0 f i sv_msg.obj
 0001:00035230       ?IsZero@Vector@@QEBA_NXZ   0000000140036230 f i cl_pmove.obj
 0001:00035260       ?getBrushmodel@cache_model_t@@QEBAPEBUbrushmodel_t@@XZ 0000000140036260 f i cl_pmove.obj
 0001:000352a0       ?CL_TestPlayerPosition@@YAHW4hull_types_t@@HAEBVVector@@@Z 00000001400362a0 f   cl_pmove.obj
 0001:00035330       ?CL_PointContents@@YAHAEBVVector@@PEAH@Z 0000000140036330 f   cl_pmove.obj
 0001:00035800       ?CL_PointContents@@YAHPEAUcl_entity_t@@AEBVVector@@@Z 0000000140036800 f   cl_pmove.obj
 0001:00035970       ?CL_TruePointContents@@YAHAEBVVector@@@Z 0000000140036970 f   cl_pmove.obj
 0001:00035980       ?CL_PlayerTrace@@YAXAEBVVector@@0HW4hull_types_t@@HAEAUtrace_t@@@Z 0000000140036980 f   cl_pmove.obj
 0001:00035ef0       ?CL_TraceLine@@YAXAEBVVector@@0HW4hull_types_t@@HAEAUtrace_t@@@Z 0000000140036ef0 f   cl_pmove.obj
 0001:00035f00       ?CL_HullForBSP@@YAPEBUhull_t@@HW4hull_types_t@@PEAVVector@@@Z 0000000140036f00 f   cl_pmove.obj
 0001:00036040       ?CL_TraceModel@@YAMHAEBVVector@@0W4hull_types_t@@HAEAUtrace_t@@@Z 0000000140037040 f   cl_pmove.obj
 0001:00036120       ?CL_TraceTexture@@YAPEBDHAEBVVector@@0@Z 0000000140037120 f   cl_pmove.obj
 0001:000361f0       ?CL_GetNextMissingResource@@YAPEAUcl_resource_t@@XZ 00000001400371f0 f   cl_resource.obj
 0001:00036240       ?CL_ClearDownload@@YAXXZ   0000000140037240 f   cl_resource.obj
 0001:000362e0       ?CL_ClearResources@@YAXXZ  00000001400372e0 f   cl_resource.obj
 0001:00036340       ?CL_CancelDownload@@YA_NXZ 0000000140037340 f   cl_resource.obj
 0001:00036390       ?CL_GetResourceAbsolutePath@@YA?BVCString@@PEAUcl_resource_t@@@Z 0000000140037390 f   cl_resource.obj
 0001:00036550       ?CL_BeginResourceDownload@@YA_NPEAUcl_resource_t@@@Z 0000000140037550 f   cl_resource.obj
 0001:00036690       ?CL_BeginFilesDownload@@YA_NXZ 0000000140037690 f   cl_resource.obj
 0001:000367c0       ?CL_ReadFileInfo@@YA_NXZ   00000001400377c0 f   cl_resource.obj
 0001:000369f0       ?CL_LoadResources@@YA_NXZ  00000001400379f0 f   cl_resource.obj
 0001:00036b60       ?CL_FinishDownloadedFile@@YA_NXZ 0000000140037b60 f   cl_resource.obj
 0001:00037230       ?CL_ReadFileChunk@@YA_NXZ  0000000140038230 f   cl_resource.obj
 0001:000376a0       ?CL_ReadResourceList@@YA_NXZ 00000001400386a0 f   cl_resource.obj
 0001:00038560       ?radd@?$CLinkedList@PEAUfilechunk_t@@@@QEAAPEAUlink_t@1@PEAUfilechunk_t@@@Z 0000000140039560 f i cl_resource.obj
 0001:00038560       ?radd@?$CLinkedList@PEAUs_msg_cache_t@CSoundEngine@@@@QEAAPEAUlink_t@1@PEAUs_msg_cache_t@CSoundEngine@@@Z 0000000140039560 f i cl_snd.obj
 0001:000385c0       ?reserve@?$CArray@Udecalcache_t@@@@QEAAXI@Z 00000001400395c0 f i cl_resource.obj
 0001:00038740       ?clear@?$CArray@Udecalcache_t@@@@QEAAXXZ 0000000140039740 f i cl_resource.obj
 0001:000387a0       ??0snd_active_t@CSoundEngine@@QEAA@XZ 00000001400397a0 f i cl_snd.obj
 0001:00038820       ?getSequence@studiohdr_t@@QEBAPEBUmstudioseqdesc_t@@H@Z 0000000140039820 f i cl_snd.obj
 0001:00038880       ?Cmd_PlayMusic@@YAXXZ      0000000140039880 f   cl_snd.obj
 0001:00038aa0       ?Cmd_StopMusic@@YAXXZ      0000000140039aa0 f   cl_snd.obj
 0001:00038ac0       ?Cmd_SetHRTF@@YAXXZ        0000000140039ac0 f   cl_snd.obj
 0001:00038b60       ??0CSoundEngine@@QEAA@XZ   0000000140039b60 f   cl_snd.obj
 0001:00038ff0       ??1CSoundEngine@@QEAA@XZ   0000000140039ff0 f   cl_snd.obj
 0001:00039160       ?Init@CSoundEngine@@QEAA_NXZ 000000014003a160 f   cl_snd.obj
 0001:00039f80       ?Shutdown@CSoundEngine@@QEAAXXZ 000000014003af80 f   cl_snd.obj
 0001:0003a120       ??_GCSentencesFile@@QEAAPEAXI@Z 000000014003b120 f i cl_snd.obj
 0001:0003a1c0       ?FreeResources@CSoundEngine@@QEAAXW4rs_level_t@@_N@Z 000000014003b1c0 f   cl_snd.obj
 0001:0003a690       ??_Gsnd_cache_t@CSoundEngine@@QEAAPEAXI@Z 000000014003b690 f i cl_snd.obj
 0001:0003a6d0       ??_Gsnd_oggcache_t@@QEAAPEAXI@Z 000000014003b6d0 f i cl_snd.obj
 0001:0003a710       ?ResetEngine@CSoundEngine@@QEAAX_N@Z 000000014003b710 f   cl_snd.obj
 0001:0003a830       ?RemovePlaying@CSoundEngine@@CAXAEAUsnd_active_t@1@@Z 000000014003b830 f   cl_snd.obj
 0001:0003a8a0       ?AllocSound@CSoundEngine@@AEAAPEAUsnd_active_t@1@PEBDHHH@Z 000000014003b8a0 f   cl_snd.obj
 0001:0003aaf0       ?KillSound@CSoundEngine@@AEAAXAEAUsnd_active_t@1@@Z 000000014003baf0 f   cl_snd.obj
 0001:0003ad00       ??1snd_active_t@CSoundEngine@@QEAA@XZ 000000014003bd00 f i cl_snd.obj
 0001:0003ad20       ?ShouldPlay@CSoundEngine@@AEBA_NPEAUsnd_active_t@1@AEBVVector@@NHM@Z 000000014003bd20 f   cl_snd.obj
 0001:0003ae00       ?DrawNormal@CSoundEngine@@QEAA_NXZ 000000014003be00 f   cl_snd.obj
 0001:0003b350       ?UpdateReverb@CSoundEngine@@AEAAXPEAUref_params_t@@@Z 000000014003c350 f   cl_snd.obj
 0001:0003b770       ?ClearCache@CSoundEngine@@AEAAXXZ 000000014003c770 f   cl_snd.obj
 0001:0003bf80       ?PrecacheSound@CSoundEngine@@QEAAPEAUsnd_cache_t@1@PEBDHW4rs_level_t@@_N@Z 000000014003cf80 f   cl_snd.obj
 0001:0003c540       ?LoadSoundData@CSoundEngine@@QEAA_NPEBDPEAUsnd_cache_t@1@H_N@Z 000000014003d540 f   cl_snd.obj
 0001:0003c9e0       ?PrecacheServerSound@CSoundEngine@@QEAA_NPEBDH@Z 000000014003d9e0 f   cl_snd.obj
 0001:0003d080       ?GetSoundCache@CSoundEngine@@AEAA_NPEBDHAEAPEAUsnd_cache_t@1@AEAPEBUsentence_t@CSentencesFile@@AEAVCString@@@Z 000000014003e080 f   cl_snd.obj
 0001:0003d3b0       ?UpdateSound@CSoundEngine@@QEAAXPEBDPEBVVector@@HHMHMPEAUcl_entity_t@@HHM@Z 000000014003e3b0 f   cl_snd.obj
 0001:0003d730       ?PlaySound@CSoundEngine@@QEAAXPEBDPEBVVector@@HHMHMPEAUcl_entity_t@@HHM@Z 000000014003e730 f   cl_snd.obj
 0001:0003e2c0       ?CalcGain@CSoundEngine@@AEBAMAEBVVector@@PEAUsnd_active_t@1@MM@Z 000000014003f2c0 f   cl_snd.obj
 0001:0003e4c0       ?Stream@CSoundEngine@@AEAA?AW4stream_result_t@1@IAEAUsnd_music_t@1@@Z 000000014003f4c0 f   cl_snd.obj
 0001:0003e5c0       ?Update@CSoundEngine@@QEAAXPEAUref_params_t@@@Z 000000014003f5c0 f   cl_snd.obj
 0001:0003fcd0       ?UpdateMusicPlayback@CSoundEngine@@AEAAXPEBUref_params_t@@M@Z 0000000140040cd0 f   cl_snd.obj
 0001:0003ff30       ??_Gsnd_music_t@CSoundEngine@@QEAAPEAXI@Z 0000000140040f30 f i cl_snd.obj
 0001:0003ff70       ?UpdateMusicTrackPlayback@CSoundEngine@@AEAA_NAEAUsnd_music_t@1@PEBUref_params_t@@M@Z 0000000140040f70 f   cl_snd.obj
 0001:000404d0       ?CacheMessage@CSoundEngine@@QEAAXPEBVVector@@HHHHHMM_NM@Z 00000001400414d0 f   cl_snd.obj
 0001:000409f0       ?PlayOgg@CSoundEngine@@QEAAXPEBDHMHM@Z 00000001400419f0 f   cl_snd.obj
 0001:00041050       ?StopOgg@CSoundEngine@@QEAAXH_N@Z 0000000140042050 f   cl_snd.obj
 0001:000412f0       ?PrecacheOgg@CSoundEngine@@QEAAPEAUsnd_oggcache_t@@PEBDW4rs_level_t@@@Z 00000001400422f0 f   cl_snd.obj
 0001:00041570       ?ApplySoundEffect@CSoundEngine@@QEAAXHHHW4snd_effects_t@@MM@Z 0000000140042570 f   cl_snd.obj
 0001:000415d0       ?IsSoundPlaying@CSoundEngine@@QEAA_NHHH@Z 00000001400425d0 f   cl_snd.obj
 0001:00041680       ?ApplySoundEffect@CSoundEngine@@QEAAXHPEBDHW4snd_effects_t@@MM@Z 0000000140042680 f   cl_snd.obj
 0001:00041a20       ?SetPauseAllSounds@CSoundEngine@@QEAAX_N@Z 0000000140042a20 f   cl_snd.obj
 0001:00041b10       ?Sentences_PrecacheSound@@YAHPEBD@Z 0000000140042b10 f   cl_snd.obj
 0001:00041b60       ?Sentences_GetSoundDuration@@YAMPEBDI@Z 0000000140042b60 f   cl_snd.obj
 0001:00041fb0       ??1?$CArray@Usnd_active_t@CSoundEngine@@@@QEAA@XZ 0000000140042fb0 f i cl_snd.obj
 0001:00041ff0       ??A?$CArray@Usnd_active_t@CSoundEngine@@@@QEBAAEAUsnd_active_t@CSoundEngine@@I@Z 0000000140042ff0 f i cl_snd.obj
 0001:00042040       ?Normalize@Vector@@QEAAAEAV1@XZ 0000000140043040 f i cl_tempentities.obj
 0001:000420f0       ?DeleteAllTempEntities@CTempEntityManager@@AEAAXXZ 00000001400430f0 f   cl_tempentities.obj
 0001:00042180       ??1tempentity_t@@QEAA@XZ   0000000140043180 f i cl_tempentities.obj
 0001:000421a0       ?AllocateTempEntities@CTempEntityManager@@AEAAXXZ 00000001400431a0 f   cl_tempentities.obj
 0001:00042260       ?FreeTempEntity@CTempEntityManager@@AEAAXPEAUtempentity_t@@@Z 0000000140043260 f   cl_tempentities.obj
 0001:00042370       ??4tempentity_t@@QEAAAEAU0@$$QEAU0@@Z 0000000140043370 f i cl_tempentities.obj
 0001:00042410       ?AllocTempEntity@CTempEntityManager@@QEAAPEAUtempentity_t@@AEBVVector@@PEBUcache_model_t@@@Z 0000000140043410 f   cl_tempentities.obj
 0001:000425f0       ?UpdateTempEntity@CTempEntityManager@@AEBA_NPEAUtempentity_t@@@Z 00000001400435f0 f   cl_tempentities.obj
 0001:00043160       ?PlayTempEntitySound@CTempEntityManager@@CAXPEAUtempentity_t@@M@Z 0000000140044160 f   cl_tempentities.obj
 0001:00043e40       ?CreateFunnel@CTempEntityManager@@QEAAXAEBVVector@@0MI_N@Z 0000000140044e40 f   cl_tempentities.obj
 0001:000443e0       ?CreateBreakModel@CTempEntityManager@@QEAAXAEBVVector@@00IMIIHMMH@Z 00000001400453e0 f   cl_tempentities.obj
 0001:00044a30       ?CreateBubbles@CTempEntityManager@@QEAAXAEBVVector@@0MIIM@Z 0000000140045a30 f   cl_tempentities.obj
 0001:00044f20       ?CreateBubbleTrail@CTempEntityManager@@QEAAXAEBVVector@@0MIIM@Z 0000000140045f20 f   cl_tempentities.obj
 0001:000453a0       ?CreateTempModel@CTempEntityManager@@QEAAPEAUtempentity_t@@AEBVVector@@00MIHMMH@Z 00000001400463a0 f   cl_tempentities.obj
 0001:00045640       ?CreateTempSprite@CTempEntityManager@@QEAAPEAUtempentity_t@@AEBVVector@@0MIHHMMHH@Z 0000000140046640 f   cl_tempentities.obj
 0001:00045830       ?CreateSphereModel@CTempEntityManager@@QEAAXAEBVVector@@MMIIMMH@Z 0000000140046830 f   cl_tempentities.obj
 0001:00045e10       ?CL_GetEntityByIndex@@YAPEAUcl_entity_t@@H@Z 0000000140046e10 f   cl_utils.obj
 0001:00045e80       ?CL_GetLocalPlayer@@YAPEAUcl_entity_t@@XZ 0000000140046e80 f   cl_utils.obj
 0001:00045ea0       ?CL_GetClientTime@@YANXZ   0000000140046ea0 f   cl_utils.obj
 0001:00045eb0       ?CL_GetViewAngles@@YAAEBVVector@@XZ 0000000140046eb0 f   cl_utils.obj
 0001:00045ec0       ?CL_SetViewAngles@@YAXAEBVVector@@@Z 0000000140046ec0 f   cl_utils.obj
 0001:00045ef0       ?CL_GetMouseDelta@@YAXAEAH0@Z 0000000140046ef0 f   cl_utils.obj
 0001:00046050       ?CL_GetMoveVars@@YAPEBUmovevars_t@@XZ 0000000140047050 f   cl_utils.obj
 0001:00046060       ?CL_GetNumEntities@@YAHXZ  0000000140047060 f   cl_utils.obj
 0001:00046070       ?CL_PlayEntitySound@@YAXHHAEBVCString@@MMHHM@Z 0000000140047070 f   cl_utils.obj
 0001:00046110       ?CL_PlayMusic@@YAXAEBVCString@@HMMH@Z 0000000140047110 f   cl_utils.obj
 0001:00046140       ?CL_StopMusic@@YAXH@Z      0000000140047140 f   cl_utils.obj
 0001:00046170       ?CL_PlayAmbientSound@@YAXHAEBVVector@@HAEBVCString@@MMHHM@Z 0000000140047170 f   cl_utils.obj
 0001:000461e0       ?CL_ApplySoundEffect@@YAXHPEBDHW4snd_effects_t@@MM@Z 00000001400471e0 f   cl_utils.obj
 0001:00046220       ?CL_GetSoundFileForServerIndex@@YAPEBDH@Z 0000000140047220 f   cl_utils.obj
 0001:00046270       ?CL_PrecacheDecal@@YAXPEBD@Z 0000000140047270 f   cl_utils.obj
 0001:00046470       ?CL_PrecacheDecalGroup@@YAXPEBD@Z 0000000140047470 f   cl_utils.obj
 0001:00046670       ?CL_PrecacheSound@@YAHPEBDW4rs_level_t@@@Z 0000000140047670 f   cl_utils.obj
 0001:000466c0       ?CL_GetAttachment@@YA?AVVector@@HI@Z 00000001400476c0 f   cl_utils.obj
 0001:00046780       ?CL_GetBonePosition@@YA?AVVector@@HPEBD@Z 0000000140047780 f   cl_utils.obj
 0001:00046840       ?CL_UILoadSchemaFile@@YAPEAUui_schemeinfo_t@@PEBD@Z 0000000140047840 f   cl_utils.obj
 0001:00046850       ?CL_GetMapTextureMaterial@@YAPEBUen_material_t@@PEBD@Z 0000000140047850 f   cl_utils.obj
 0001:00046980       ?CL_GetFrameTime@@YANXZ    0000000140047980 f   cl_utils.obj
 0001:00046990       ?CL_GetMousePosition@@YAXAEAH0@Z 0000000140047990 f   cl_utils.obj
 0001:000469a0       ?CL_ShowMouse@@YAXXZ       00000001400479a0 f   cl_utils.obj
 0001:000469d0       ?CL_HideMouse@@YAXXZ       00000001400479d0 f   cl_utils.obj
 0001:00046a00       ?CL_UpdateMousePositions@@YAXXZ 0000000140047a00 f   cl_utils.obj
 0001:00046a10       ?CL_ResetMouse@@YAXXZ      0000000140047a10 f   cl_utils.obj
 0001:00046a20       ?CL_SetShouldHideMouse@@YAX_N@Z 0000000140047a20 f   cl_utils.obj
 0001:00046a30       ?CL_LeafPVS@@YAPEBEAEBUmleaf_t@@@Z 0000000140047a30 f   cl_utils.obj
 0001:00046a50       ?CL_GetSchemaFontSet@@YAPEBUfont_set_t@@PEBD@Z 0000000140047a50 f   cl_utils.obj
 0001:00046a60       ?CL_GetResolutionSchemaFontSet@@YAPEBUfont_set_t@@PEBDI@Z 0000000140047a60 f   cl_utils.obj
 0001:00046a70       ?Cmd_ToggleConsole@@YAXXZ  0000000140047a70 f   console.obj
 0001:00046a80       ?Cmd_ClearHistory@@YAXXZ   0000000140047a80 f   console.obj
 0001:00046ac0       ?Cmd_CVarList@@YAXXZ       0000000140047ac0 f   console.obj
 0001:00046ad0       ?Cmd_CmdList@@YAXXZ        0000000140047ad0 f   console.obj
 0001:00046ae0       ?Cmd_ConDump@@YAXXZ        0000000140047ae0 f   console.obj
 0001:00046af0       ??1CConsole@@QEAA@XZ       0000000140047af0 f   console.obj
 0001:00046c80       ?Init@CConsole@@QEAAXXZ    0000000140047c80 f   console.obj
 0001:00046ef0       ?AddTextHistory@CConsole@@QEAAXPEBD@Z 0000000140047ef0 f   console.obj
 0001:000471c0       ?HistoryStepForward@CConsole@@QEAAXXZ 00000001400481c0 f   console.obj
 0001:00047220       ?HistoryStepBack@CConsole@@QEAAXXZ 0000000140048220 f   console.obj
 0001:00047260       ?Think@CConsole@@QEAAXXZ   0000000140048260 f   console.obj
 0001:00047730       ?Draw@CConsole@@QEAA_NXZ   0000000140048730 f   console.obj
 0001:000486a0       ?ShowConsole@CConsole@@SAXXZ 00000001400496a0 f   console.obj
 0001:00048750       ?ToggleConsole@CConsole@@SAXXZ 0000000140049750 f   console.obj
 0001:00048840       ?CreateCVar@CConsole@@QEAAPEAVCCVar@@W4cvar_type_t@@HPEBD11P6AXPEAV2@@Z@Z 0000000140049840 f   console.obj
 0001:00048a90       ?GetCVar@CConsole@@QEAAPEAVCCVar@@PEBD@Z 0000000140049a90 f   console.obj
 0001:00048b90       ?AddInput@CConsole@@QEAAXW4input_type_t@@PEBD1@Z 0000000140049b90 f   console.obj
 0001:00049290       ?ProcessCommand@CConsole@@QEAA_NXZ 000000014004a290 f   console.obj
 0001:000497a0       ?CVarSetFloatValue@CConsole@@QEAA_NPEBDM@Z 000000014004a7a0 f   console.obj
 0001:000498a0       ?CVarSetStringValue@CConsole@@QEAA_NPEBD0@Z 000000014004a8a0 f   console.obj
 0001:00049a40       ?GetBestInputChoice@CConsole@@QEAAPEBDPEBD_N@Z 000000014004aa40 f   console.obj
 0001:00049cc0       ?ResetTabbing@CConsole@@QEAAXXZ 000000014004acc0 f   console.obj
 0001:00049d30       ?CmdInputList@CConsole@@QEAAXW4input_type_t@@@Z 000000014004ad30 f   console.obj
 0001:0004af40       ?CmdConDump@CConsole@@QEBAXXZ 000000014004bf40 f   console.obj
 0001:0004b2e0       ??1?$CLinkedList@Ucon_input_t@@@@QEAA@XZ 000000014004c2e0 f i console.obj
 0001:0004b310       ?add@?$CLinkedList@Ucon_input_t@@@@QEAAPEAUlink_t@1@Ucon_input_t@@@Z 000000014004c310 f i console.obj
 0001:0004b3f0       ??1?$CLinkedList@VCString@@@@QEAA@XZ 000000014004c3f0 f i console.obj
 0001:0004b420       ?add@?$CLinkedList@VCString@@@@QEAAPEAUlink_t@1@VCString@@@Z 000000014004c420 f i console.obj
 0001:0004b4c0       ?clear@?$CLinkedList@VCString@@@@QEAAXXZ 000000014004c4c0 f i console.obj
 0001:0004b6a0       ?add@?$CLinkedList@PEAUedict_t@@@@QEAAPEAUlink_t@1@PEAUedict_t@@@Z 000000014004c6a0 f i sv_main.obj
 0001:0004b6a0       ?add@?$CLinkedList@PEAUshadowmap_t@@@@QEAAPEAUlink_t@1@PEAUshadowmap_t@@@Z 000000014004c6a0 f i r_dlights.obj
 0001:0004b6a0       ?add@?$CLinkedList@PEAVCCVar@@@@QEAAPEAUlink_t@1@PEAVCCVar@@@Z 000000014004c6a0 f i console.obj
 0001:0004b700       ??1?$CLinkedList@Udebug_print_t@CConsole@@@@QEAA@XZ 000000014004c700 f i console.obj
 0001:0004b730       ?add@?$CLinkedList@Udebug_print_t@CConsole@@@@QEAAPEAUlink_t@1@Udebug_print_t@CConsole@@@Z 000000014004c730 f i console.obj
 0001:0004b7e0       ?remove@?$CLinkedList@Udebug_print_t@CConsole@@@@QEAAXPEAUlink_t@1@@Z 000000014004c7e0 f i console.obj
 0001:0004b950       ?clear@?$CLinkedList@Ucon_input_t@@@@QEAAXXZ 000000014004c950 f i console.obj
 0001:0004bb40       ?remove@?$CLinkedList@VCString@@@@QEAAXPEAUlink_t@1@@Z 000000014004cb40 f i console.obj
 0001:0004bcb0       ?clear@?$CLinkedList@Udebug_print_t@CConsole@@@@QEAAXXZ 000000014004ccb0 f i console.obj
 0001:0004be90       ??0exception@std@@QEAA@AEBV01@@Z 000000014004ce90 f i discordrpc.obj
 0001:0004bed0       ?what@exception@std@@UEBAPEBDXZ 000000014004ced0 f i discordrpc.obj
 0001:0004bef0       ??_Ebad_alloc@std@@UEAAPEAXI@Z 000000014004cef0 f i * CIL library *:* CIL module *
 0001:0004bef0       ??_Ebad_array_new_length@std@@UEAAPEAXI@Z 000000014004cef0 f i * CIL library *:* CIL module *
 0001:0004bef0       ??_Eexception@std@@UEAAPEAXI@Z 000000014004cef0 f i * CIL library *:* CIL module *
 0001:0004bef0       ??_Eruntime_error@std@@UEAAPEAXI@Z 000000014004cef0 f i * CIL library *:* CIL module *
 0001:0004bef0       ??_Gbad_alloc@std@@UEAAPEAXI@Z 000000014004cef0 f i discordrpc.obj
 0001:0004bef0       ??_Gbad_array_new_length@std@@UEAAPEAXI@Z 000000014004cef0 f i discordrpc.obj
 0001:0004bef0       ??_Gexception@std@@UEAAPEAXI@Z 000000014004cef0 f i discordrpc.obj
 0001:0004bef0       ??_Gruntime_error@std@@UEAAPEAXI@Z 000000014004cef0 f i discordrpc.obj
 0001:0004bf40       ??1bad_alloc@std@@UEAA@XZ  000000014004cf40 f i discordrpc.obj
 0001:0004bf40       ??1bad_array_new_length@std@@UEAA@XZ 000000014004cf40 f i discordrpc.obj
 0001:0004bf40       ??1failure@ios_base@std@@UEAA@XZ 000000014004cf40 f i discordrpc.obj
 0001:0004bf40       ??1runtime_error@std@@UEAA@XZ 000000014004cf40 f i discordrpc.obj
 0001:0004bf60       ??0bad_array_new_length@std@@QEAA@XZ 000000014004cf60 f i discordrpc.obj
 0001:0004bf90       ?_Throw_bad_array_new_length@std@@YAXXZ 000000014004cf90 f i discordrpc.obj
 0001:0004bf90       ?__scrt_throw_std_bad_array_new_length@@YAXXZ 000000014004cf90 f i MSVCRT:throw_bad_alloc.obj
 0001:0004bfb0       ??0bad_array_new_length@std@@QEAA@AEBV01@@Z 000000014004cfb0 f i discordrpc.obj
 0001:0004bff0       ??0bad_alloc@std@@QEAA@AEBV01@@Z 000000014004cff0 f i discordrpc.obj
 0001:0004c030       ?_Xlen_string@std@@YAXXZ   000000014004d030 f i discordrpc.obj
 0001:0004c050       ??0runtime_error@std@@QEAA@AEBV01@@Z 000000014004d050 f i discordrpc.obj
 0001:0004c090       ?default_error_condition@error_category@std@@UEBA?AVerror_condition@2@H@Z 000000014004d090 f i discordrpc.obj
 0001:0004c0a0       ?equivalent@error_category@std@@UEBA_NHAEBVerror_condition@2@@Z 000000014004d0a0 f i discordrpc.obj
 0001:0004c0e0       ?equivalent@error_category@std@@UEBA_NAEBVerror_code@2@H@Z 000000014004d0e0 f i discordrpc.obj
 0001:0004c100       ?make_error_code@std@@YA?AVerror_code@1@W4io_errc@1@@Z 000000014004d100 f i discordrpc.obj
 0001:0004c120       ??0_System_error@std@@IEAA@Verror_code@1@AEBV?$basic_string@DU?$char_traits@D@std@@V?$allocator@D@2@@1@@Z 000000014004d120 f i discordrpc.obj
 0001:0004c340       ??_E_System_error@std@@UEAAPEAXI@Z 000000014004d340 f i * CIL library *:* CIL module *
 0001:0004c340       ??_Efailure@ios_base@std@@UEAAPEAXI@Z 000000014004d340 f i * CIL library *:* CIL module *
 0001:0004c340       ??_Esystem_error@std@@UEAAPEAXI@Z 000000014004d340 f i * CIL library *:* CIL module *
 0001:0004c340       ??_G_System_error@std@@UEAAPEAXI@Z 000000014004d340 f i discordrpc.obj
 0001:0004c340       ??_Gfailure@ios_base@std@@UEAAPEAXI@Z 000000014004d340 f i discordrpc.obj
 0001:0004c340       ??_Gsystem_error@std@@UEAAPEAXI@Z 000000014004d340 f i discordrpc.obj
 0001:0004c390       ??0system_error@std@@QEAA@AEBV01@@Z 000000014004d390 f i discordrpc.obj
 0001:0004c3f0       ??0_System_error@std@@QEAA@AEBV01@@Z 000000014004d3f0 f i discordrpc.obj
 0001:0004c440       ?name@_Iostream_error_category2@std@@UEBAPEBDXZ 000000014004d440 f i discordrpc.obj
 0001:0004c450       ?message@_Iostream_error_category2@std@@UEBA?AV?$basic_string@DU?$char_traits@D@std@@V?$allocator@D@2@@2@H@Z 000000014004d450 f i discordrpc.obj
 0001:0004c510       ??_E_Iostream_error_category2@std@@UEAAPEAXI@Z 000000014004d510 f i * CIL library *:* CIL module *
 0001:0004c510       ??_G_Iostream_error_category2@std@@UEAAPEAXI@Z 000000014004d510 f i discordrpc.obj
 0001:0004c540       ??0failure@ios_base@std@@QEAA@PEBDAEBVerror_code@2@@Z 000000014004d540 f i discordrpc.obj
 0001:0004c620       ??0failure@ios_base@std@@QEAA@AEBV012@@Z 000000014004d620 f i discordrpc.obj
 0001:0004c680       ?handleDiscordReady@@YAXPEBUDiscordUser@@@Z 000000014004d680 f   discordrpc.obj
 0001:0004c690       ?updateRichPresence@@YAXPEBD@Z 000000014004d690 f   discordrpc.obj
 0001:0004ca50       ??1?$basic_string@DU?$char_traits@D@std@@V?$allocator@D@2@@std@@QEAA@XZ 000000014004da50 f i discordrpc.obj
 0001:0004ca50       ?_Tidy_deallocate@?$basic_string@DU?$char_traits@D@std@@V?$allocator@D@2@@std@@AEAAXXZ 000000014004da50 f i discordrpc.obj
 0001:0004cab0       ??0?$basic_string@DU?$char_traits@D@std@@V?$allocator@D@2@@std@@QEAA@AEBV01@@Z 000000014004dab0 f i discordrpc.obj
 0001:0004cbd0       ?_Erase_noexcept@?$basic_string@DU?$char_traits@D@std@@V?$allocator@D@2@@std@@AEAAAEAV12@_K_K@Z 000000014004dbd0 f i discordrpc.obj
 0001:0004cc30       ?append@?$basic_string@DU?$char_traits@D@std@@V?$allocator@D@2@@std@@QEAAAEAV12@QEBD_K@Z 000000014004dc30 f i discordrpc.obj
 0001:0004ccb0       ?_Xran@?$_String_val@U?$_Simple_types@D@std@@@std@@SAXXZ 000000014004dcb0 f i discordrpc.obj
 0001:0004ccd0       ??$?6U?$char_traits@D@std@@@std@@YAAEAV?$basic_ostream@DU?$char_traits@D@std@@@0@AEAV10@PEBD@Z 000000014004dcd0 f i discordrpc.obj
 0001:0004cfb0       ??$_Construct@$00PEBD@?$basic_string@DU?$char_traits@D@std@@V?$allocator@D@2@@std@@AEAAXQEBD_K@Z 000000014004dfb0 f i discordrpc.obj
 0001:0004d0c0       ??$_Reallocate_grow_by@V<lambda_65e615be2a453ca0576c979606f46740>@@PEBD_K@?$basic_string@DU?$char_traits@D@std@@V?$allocator@D@2@@std@@AEAAAEAV01@_KV<lambda_65e615be2a453ca0576c979606f46740>@@PEBD_K@Z 000000014004e0c0 f i discordrpc.obj
 0001:0004d250       ??1sentry@?$basic_ostream@DU?$char_traits@D@std@@@std@@QEAA@XZ 000000014004e250 f i discordrpc.obj
 0001:0004d290       ??0sentry@?$basic_ostream@DU?$char_traits@D@std@@@std@@QEAA@AEAV12@@Z 000000014004e290 f i discordrpc.obj
 0001:0004d310       ?setstate@?$basic_ios@DU?$char_traits@D@std@@@std@@QEAAXH_N@Z 000000014004e310 f i discordrpc.obj
 0001:0004d3b0       ??1_Sentry_base@?$basic_ostream@DU?$char_traits@D@std@@@std@@QEAA@XZ 000000014004e3b0 f i discordrpc.obj
 0001:0004d3e0       ?flush@?$basic_ostream@DU?$char_traits@D@std@@@std@@QEAAAEAV12@XZ 000000014004e3e0 f i discordrpc.obj
 0001:0004d510       ?_Osfx@?$basic_ostream@DU?$char_traits@D@std@@@std@@QEAAXXZ 000000014004e510 f i discordrpc.obj
 0001:0004d560       ??$_Allocate_manually_vector_aligned@U_Default_allocate_traits@std@@@std@@YAPEAX_K@Z 000000014004e560 f i discordrpc.obj
 0001:0004d5a0       ?addhash@CHashList@@QEAA_NPEBEI@Z 000000014004e5a0 f i edictmanager.obj
 0001:0004d6f0       ??0edict_t@@QEAA@XZ        000000014004e6f0 f i edictmanager.obj
 0001:0004d780       ?ClearEdicts@CEdictManager@@QEAAXXZ 000000014004e780 f   edictmanager.obj
 0001:0004d810       ?LoadEntities@CEdictManager@@QEAA_NPEBD@Z 000000014004e810 f   edictmanager.obj
 0001:0004ea90       ?CreatePlayerEntity@CEdictManager@@QEAAPEAUedict_t@@I@Z 000000014004fa90 f   edictmanager.obj
 0001:0004eb40       ?AllocEdict@CEdictManager@@QEAAPEAUedict_t@@XZ 000000014004fb40 f   edictmanager.obj
 0001:0004ed00       ?FreeEdict@CEdictManager@@QEAAXPEAUedict_t@@W4edict_removed_t@@@Z 000000014004fd00 f   edictmanager.obj
 0001:0004eec0       ?ClearEdict@CEdictManager@@CAXPEAUedict_t@@@Z 000000014004fec0 f   edictmanager.obj
 0001:0004efb0       ?GetEdict@CEdictManager@@QEAAPEAUedict_t@@H@Z 000000014004ffb0 f   edictmanager.obj
 0001:0004f020       ?resize@?$CArray@Uedict_t@@@@QEAAXI@Z 0000000140050020 f i edictmanager.obj
 0001:0004f270       ??_Eedict_t@@QEAAPEAXI@Z   0000000140050270 f i edictmanager.obj
 0001:0004f2b0       ??1edict_t@@QEAA@XZ        00000001400502b0 f i edictmanager.obj
 0001:0004f2b0       ??1sunflare_t@CLensFlareRenderer@@QEAA@XZ 00000001400502b0 f i r_lensflare.obj
 0001:0004f2c0       ??4?$CArray@I@@QEAAXAEBV0@@Z 00000001400502c0 f i edictmanager.obj
 0001:0004f330       ?Engine_GetMaterialScript@@YAPEBUen_material_t@@PEBD@Z 0000000140050330 f   enginefuncs.obj
 0001:0004f350       ?Engine_PointInLeaf@@YAPEBUmleaf_t@@AEBVVector@@@Z 0000000140050350 f   enginefuncs.obj
 0001:0004f360       ?Engine_LoadModel@@YAPEBUcache_model_t@@PEBD@Z 0000000140050360 f   enginefuncs.obj
 0001:0004f370       ?Engine_GetLevelName@@YAPEBDXZ 0000000140050370 f   enginefuncs.obj
 0001:0004f3d0       ?Engine_GetEngineTime@@YANXZ 00000001400503d0 f   enginefuncs.obj
 0001:0004f3e0       ?Engine_CreateCVar@@YAPEAVCCVar@@W4cvar_type_t@@HPEBD11@Z 00000001400503e0 f   enginefuncs.obj
 0001:0004f410       ?Engine_CreateCVarCallback@@YAPEAVCCVar@@W4cvar_type_t@@HPEBD11P6AXPEAV1@@Z@Z 0000000140050410 f   enginefuncs.obj
 0001:0004f440       ?Engine_GetCVarPointer@@YAPEAVCCVar@@PEBD@Z 0000000140050440 f   enginefuncs.obj
 0001:0004f450       ?Engine_SetCVarFloat@@YAXPEBDM@Z 0000000140050450 f   enginefuncs.obj
 0001:0004f460       ?Engine_SetCVarString@@YAXPEBD0@Z 0000000140050460 f   enginefuncs.obj
 0001:0004f470       ?Engine_CreateCommand@@YAXPEBDP6AXXZ0@Z 0000000140050470 f   enginefuncs.obj
 0001:0004f490       ?Engine_Cmd_Argc@@YAIXZ    0000000140050490 f   enginefuncs.obj
 0001:0004f4a0       ?Engine_Cmd_Argv@@YAPEBDI@Z 00000001400504a0 f   enginefuncs.obj
 0001:0004f4d0       ?Engine_GetCvarFloatValue@@YAMPEBD@Z 00000001400504d0 f   enginefuncs.obj
 0001:0004f540       ?Engine_GetCvarStringValue@@YAPEBDPEBD@Z 0000000140050540 f   enginefuncs.obj
 0001:0004f5c0       ?Engine_GetVISBufferSize@@YAIXZ 00000001400505c0 f   enginefuncs.obj
 0001:0004f5d0       ?FL_WriteFile@@YA_NPEBEIPEBD_N@Z 00000001400505d0 f   file.obj
 0001:0004faf0       ?FL_WriteLogFile@@YA_NPEBEIPEBD_N@Z 0000000140050af0 f   file.obj
 0001:0004fbf0       ?FL_WriteFileRoot@@YA_NPEBEIPEBD_N@Z 0000000140050bf0 f   file.obj
 0001:00050010       ?FL_LoadFile@@YAPEBEPEBDPEAI@Z 0000000140051010 f   file.obj
 0001:00050890       ?FL_LoadFileFromRoot@@YAPEBEPEBDPEAI@Z 0000000140051890 f   file.obj
 0001:00050fa0       ??_V@YAXPEAX_K@Z           0000000140051fa0 f   MSVCRT:delete_array_size.obj
 0001:00050fa0       ?FL_FreeFile@@YAXPEBX@Z    0000000140051fa0 f   file.obj
 0001:00050fb0       ?FL_FileExists@@YA_NPEBD@Z 0000000140051fb0 f   file.obj
 0001:000514c0       ?FL_DeleteFile@@YA_NPEBD@Z 00000001400524c0 f   file.obj
 0001:00051890       ?FL_CreateDirectory@@YA_NPEBD@Z 0000000140052890 f   file.obj
 0001:00051c30       ?FL_CompareFileDates@@YAHAEBUfile_dateinfo_t@@0@Z 0000000140052c30 f   file.obj
 0001:00051cc0       ?FL_GetFileDate@@YA_NPEBDAEAUfile_dateinfo_t@@@Z 0000000140052cc0 f   file.obj
 0001:000522d0       ?FWT_AddFile@@YA_NPEBDPEBEI_N22@Z 00000001400532d0 f   filewriterthread.obj
 0001:00052580       ?FileWriterThread@@YAKPEAX@Z 0000000140053580 f   filewriterthread.obj
 0001:00052d00       ?FWT_Con_Printf@@YAXPEAUwriterthread_t@@PEBDZZ 0000000140053d00 f   filewriterthread.obj
 0001:00052df0       ?reserve@?$CArray@VCString@@@@QEAAXI@Z 0000000140053df0 f i filewriterthread.obj
 0001:00053020       ?radd@?$CLinkedList@VCString@@@@QEAAPEAUlink_t@1@VCString@@@Z 0000000140054020 f i filewriterthread.obj
 0001:000530c0       ??1mspritegroup_t@@QEAA@XZ 00000001400540c0 f i modelcache.obj
 0001:00053170       ??1mspriteframedesc_t@@QEAA@XZ 0000000140054170 f i modelcache.obj
 0001:000531f0       ?getVBMCache@cache_model_t@@QEAAPEAUvbmcache_t@@XZ 00000001400541f0 f i modelcache.obj
 0001:00053230       ?Mod_DumpCacheModels@@YAXXZ 0000000140054230 f   modelcache.obj
 0001:000532e0       ?ClearCache@CModelCache@@QEAAXXZ 00000001400542e0 f   modelcache.obj
 0001:00053480       ??_Gmsprite_t@@QEAAPEAXI@Z 0000000140054480 f i modelcache.obj
 0001:000534f0       ?LoadModel@CModelCache@@QEAAPEAUcache_model_t@@PEBD@Z 00000001400544f0 f   modelcache.obj
 0001:00053790       ?LoadSpriteModel@CModelCache@@AEAAPEAUcache_model_t@@PEBDPEBEI@Z 0000000140054790 f   modelcache.obj
 0001:00053930       ?LoadVBMModel@CModelCache@@AEAAPEAUcache_model_t@@PEBDPEBEI@Z 0000000140054930 f   modelcache.obj
 0001:00054090       ?SetupBSPSubmodels@CModelCache@@AEAAXAEAUbrushmodel_t@@PEBD@Z 0000000140055090 f   modelcache.obj
 0001:00054be0       ?GetModelByIndex@CModelCache@@QEAAPEAUcache_model_t@@I@Z 0000000140055be0 f   modelcache.obj
 0001:00054c40       ?GetType@CModelCache@@QEAA?AW4cmodel_type_t@@I@Z 0000000140055c40 f   modelcache.obj
 0001:00054cb0       ?GatherModelResources@CModelCache@@QEAAXPEBDAEAV?$CArray@Umaptexturematerial_t@@@@AEAV?$CArray@VCString@@@@2@Z 0000000140055cb0 f   modelcache.obj
 0001:000552a0       ?GatherMaterialResources@CModelCache@@CAXPEAUen_material_t@@AEAV?$CArray@VCString@@@@1@Z 00000001400562a0 f   modelcache.obj
 0001:000554f0       ?Cache_GetModelBounds@@YAXAEBUcache_model_t@@AEAVVector@@1@Z 00000001400564f0 f   modelcache.obj
 0001:00055580       ?Cache_GetModelType@@YA?AW4cmodel_type_t@@AEBUcache_model_t@@@Z 0000000140056580 f   modelcache.obj
 0001:00055580       ?getFlags@CUIObject@@UEBAHXZ 0000000140056580 f   uielements.obj
 0001:00055590       ?Cache_GetModel@@YAPEBUcache_model_t@@H@Z 0000000140056590 f   modelcache.obj
 0001:000555a0       ?Cache_GetModelFrameCount@@YA_KAEBUcache_model_t@@@Z 00000001400565a0 f   modelcache.obj
 0001:00055680       ?Cache_GetNbModels@@YAIXZ  0000000140056680 f   modelcache.obj
 0001:00055690       ?Cache_GetModelByName@@YAPEBUcache_model_t@@PEBD@Z 0000000140056690 f   modelcache.obj
 0001:000557d0       ?push_back@?$CArray@PEAUcache_model_t@@@@QEAAXAEBQEAUcache_model_t@@@Z 00000001400567d0 f i modelcache.obj
 0001:000557d0       ?push_back@?$CArray@PEAUen_texture_t@@@@QEAAXAEBQEAUen_texture_t@@@Z 00000001400567d0 f i r_main.obj
 0001:000557d0       ?push_back@?$CArray@PEAUfont_set_t@@@@QEAAXAEBQEAUfont_set_t@@@Z 00000001400567d0 f i r_text.obj
 0001:00055900       ??_Emspriteframedesc_t@@QEAAPEAXI@Z 0000000140056900 f i modelcache.obj
 0001:00055940       ??0net_msgcache_t@@QEAA@II@Z 0000000140056940 f i networking.obj
 0001:000559a0       ??0net_client_t@@QEAA@XZ   00000001400569a0 f i networking.obj
 0001:000559e0       ?CreateInstance@CNetworking@@SAPEAV1@_N@Z 00000001400569e0 f   networking.obj
 0001:00055ad0       ??_ECNetworking@@UEAAPEAXI@Z 0000000140056ad0 f i * CIL library *:* CIL module *
 0001:00055ad0       ??_GCNetworking@@UEAAPEAXI@Z 0000000140056ad0 f i networking.obj
 0001:00055b10       ??1CNetworking@@UEAA@XZ    0000000140056b10 f   networking.obj
 0001:00055d30       ?Init@CNetworking@@UEAA_NPEBD@Z 0000000140056d30 f   networking.obj
 0001:00055f00       ?SVC_MessageBegin@CNetworking@@QEAAXW4msgdest_t@@IPEBUedict_t@@H@Z 0000000140056f00 f   networking.obj
 0001:000560e0       ?SVC_MessageEnd_Local@CNetworking@@IEAA_NXZ 00000001400570e0 f   networking.obj
 0001:00056170       ?SVC_ClearMessages@CNetworking@@QEAAXXZ 0000000140057170 f   networking.obj
 0001:000561f0       ?CLS_MessageBegin@CNetworking@@QEAAXIH@Z 00000001400571f0 f   networking.obj
 0001:00056370       ?CLS_ClearMessages@CNetworking@@QEAAXI@Z 0000000140057370 f   networking.obj
 0001:00056430       ?ClearCache@CNetworking@@UEAAXPEAUnet_msgcache_t@@@Z 0000000140057430 f   networking.obj
 0001:00056440       ?ResetClient@CNetworking@@IEAAXAEAUnet_client_t@@@Z 0000000140057440 f   networking.obj
 0001:000564d0       ?WriteByte@CNetworking@@QEAAXE@Z 00000001400574d0 f   networking.obj
 0001:00056520       ?WriteUint16@CNetworking@@QEAAXG@Z 0000000140057520 f   networking.obj
 0001:00056570       ?WriteInt32@CNetworking@@QEAAXH@Z 0000000140057570 f   networking.obj
 0001:00056570       ?WriteUint32@CNetworking@@QEAAXI@Z 0000000140057570 f   networking.obj
 0001:000565c0       ?WriteUint64@CNetworking@@QEAAX_K@Z 00000001400575c0 f   networking.obj
 0001:00056610       ?WriteSmallFloat@CNetworking@@QEAAXM@Z 0000000140057610 f   networking.obj
 0001:00056680       ?WriteFloat@CNetworking@@QEAAXM@Z 0000000140057680 f   networking.obj
 0001:000566d0       ?WriteBuffer@CNetworking@@QEAAXPEBEI@Z 00000001400576d0 f   networking.obj
 0001:00056750       ?WriteString@CNetworking@@QEAAXPEBD@Z 0000000140057750 f   networking.obj
 0001:000568d0       ?CheckBuffer@CNetworking@@KAXAEAUnet_msg_t@@I@Z 00000001400578d0 f   networking.obj
 0001:000569c0       ?GetIPAddress@CNetworking@@QEAA?AVCString@@I@Z 00000001400579c0 f   networking.obj
 0001:00056b30       ?GetInfoString@CNetworking@@QEAAPEBDI@Z 0000000140057b30 f   networking.obj
 0001:00056ba0       ?GetClientState@CNetworking@@QEAA?AW4netcl_state_t@@I@Z 0000000140057ba0 f   networking.obj
 0001:00056c10       ?Poll@CNetworking@@UEAAXXZ 0000000140057c10 f   networking.obj
 0001:00056c80       ?resize@?$CArray@Unet_msg_t@@@@QEAAXI@Z 0000000140057c80 f i networking.obj
 0001:00056de0       ?resize@?$CArray@Unet_client_t@@@@QEAAXI@Z 0000000140057de0 f i networking.obj
 0001:00056fd0       ??_Enet_client_t@@QEAAPEAXI@Z 0000000140057fd0 f i networking.obj
 0001:00057010       ??1net_client_t@@QEAA@XZ   0000000140058010 f i networking.obj
 0001:00057030       ??_ECMPNetworking@@UEAAPEAXI@Z 0000000140058030 f i * CIL library *:* CIL module *
 0001:00057030       ??_GCMPNetworking@@UEAAPEAXI@Z 0000000140058030 f i net_mp.obj
 0001:00057100       ?Init@CMPNetworking@@UEAA_NPEBD@Z 0000000140058100 f   net_mp.obj
 0001:000572f0       ?AttemptConnection@CMPNetworking@@UEAA_NXZ 00000001400582f0 f   net_mp.obj
 0001:000574a0       ?Poll@CMPNetworking@@UEAAXXZ 00000001400584a0 f   net_mp.obj
 0001:00057520       ?Disconnect@CMPNetworking@@UEAAXI@Z 0000000140058520 f   net_mp.obj
 0001:000575a0       ?ConnectionLost@CMPNetworking@@AEAAXI@Z 00000001400585a0 f   net_mp.obj
 0001:00057630       ?Poll_Host@CMPNetworking@@EEAAXXZ 0000000140058630 f   net_mp.obj
 0001:00057860       ?Poll_Client@CMPNetworking@@EEAAXXZ 0000000140058860 f   net_mp.obj
 0001:00057a10       ?ClientConnect@CMPNetworking@@UEAAXPEAU_ENetEvent@@@Z 0000000140058a10 f   net_mp.obj
 0001:00057bc0       ?RejectClient@CMPNetworking@@EEAAXPEAU_ENetPeer@@PEBD@Z 0000000140058bc0 f   net_mp.obj
 0001:00057ce0       ?SendUDPMessage@CMPNetworking@@AEAA_NW4msgdest_t@@PEAEIPEAU_ENetPeer@@@Z 0000000140058ce0 f   net_mp.obj
 0001:00057d60       ?ReadUDPMessage@CMPNetworking@@AEAAXPEAUnet_msgcache_t@@PEAU_ENetEvent@@@Z 0000000140058d60 f   net_mp.obj
 0001:00057e60       ?CLS_GetWriteCache@CMPNetworking@@UEAAPEAUnet_msgcache_t@@XZ 0000000140058e60 f   net_mp.obj
 0001:00057e80       ?SVC_MessageEnd@CMPNetworking@@UEAAXXZ 0000000140058e80 f   net_mp.obj
 0001:00058050       ?SVC_GetWriteCache@CMPNetworking@@UEAAPEAUnet_msgcache_t@@I@Z 0000000140059050 f   net_mp.obj
 0001:000580a0       ?CLS_MessageEnd@CMPNetworking@@UEAAXXZ 00000001400590a0 f   net_mp.obj
 0001:00058180       ?Disconnect@CSPNetworking@@UEAAXI@Z 0000000140059180 f i net_sp.obj
 0001:00058180       ?PerformAction@CUIBindsRowEvent@@UEAAXM@Z 0000000140059180 f i uisettingswindow.obj
 0001:00058180       ?PerformAction@CUIConsoleKeyEventCallback@@UEAAXM@Z 0000000140059180 f i uiconsolewindow.obj
 0001:00058180       ?PerformAction@CUIDropDownRowClickEvent@CUIDropDownList@@UEAAXM@Z 0000000140059180 f i uielements.obj
 0001:00058180       ?PerformAction@CUISaveLoadWindowRowEvent@@UEAAXM@Z 0000000140059180 f i uisaveloadwindow.obj
 0001:00058180       ?_Lock@?$basic_streambuf@DU?$char_traits@D@std@@@std@@UEAAXXZ 0000000140059180 f i libcpmt:cout.obj
 0001:00058180       ?_Unlock@?$basic_streambuf@DU?$char_traits@D@std@@@std@@UEAAXXZ 0000000140059180 f i libcpmt:cout.obj
 0001:00058180       ?imbue@?$basic_streambuf@DU?$char_traits@D@std@@@std@@MEAAXAEBVlocale@2@@Z 0000000140059180 f i libcpmt:cout.obj
 0001:00058180       ?onGLInitialization@CUIWindow@@UEAAXXZ 0000000140059180 f i uielements.obj
 0001:00058180       ?setDisabled@CUIObject@@UEAAX_N@Z 0000000140059180 f i uielements.obj
 0001:00058180       ?setOffsetValue@CUIObject@@UEAAXM@Z 0000000140059180 f i uielements.obj
 0001:00058180       ?updateRangeSize@CUIObject@@UEAAXXZ 0000000140059180 f i uielements.obj
 0001:00058180       __sanitizer_annotate_contiguous_container 0000000140059180 f i libcpmt:asan_noop.obj
 0001:00058180       __sanitizer_annotate_contiguous_container_default 0000000140059180 f i libcpmt:asan_noop.obj
 0001:00058180       _guard_check_icall_nop     0000000140059180 f i MSVCRT:guard_support.obj
 0001:00058180       _initialize_denormal_control 0000000140059180 f i MSVCRT:denormal_control.obj
 0001:00058180       _initialize_invalid_parameter_handler 0000000140059180 f i MSVCRT:invalid_parameter_handler.obj
 0001:00058190       ?AttemptConnection@CSPNetworking@@UEAA_NXZ 0000000140059190 f i net_sp.obj
 0001:00058190       ?considerElementOnResize@CUIObject@@UEAA_NPEAV1@@Z 0000000140059190 f i uielements.obj
 0001:00058190       ?do_always_noconv@?$codecvt@DDU_Mbstatet@@@std@@MEBA_NXZ 0000000140059190 f i libcpmt:cout.obj
 0001:00058190       ?initBottomElements@CUITabLabel@@UEAA_NXZ 0000000140059190 f i uielements.obj
 0001:00058190       ?isInteractive@CUIButton@@UEAA_NXZ 0000000140059190 f i uielements.obj
 0001:00058190       ?isInteractive@CUIDragger@@UEAA_NXZ 0000000140059190 f i uielements.obj
 0001:00058190       ?isInteractive@CUIDropDownList@@UEAA_NXZ 0000000140059190 f i uielements.obj
 0001:00058190       ?isInteractive@CUIInteractiveObject@@UEAA_NXZ 0000000140059190 f i uielements.obj
 0001:00058190       ?isInteractive@CUIListRow@@UEAA_NXZ 0000000140059190 f i uielements.obj
 0001:00058190       ?isInteractive@CUIListSeparator@@UEAA_NXZ 0000000140059190 f i uielements.obj
 0001:00058190       ?isInteractive@CUIScrollableSurface@@UEAA_NXZ 0000000140059190 f i uielements.obj
 0001:00058190       ?isInteractive@CUIScroller@@UEAA_NXZ 0000000140059190 f i uielements.obj
 0001:00058190       ?isInteractive@CUISlider@@UEAA_NXZ 0000000140059190 f i uielements.obj
 0001:00058190       ?isInteractive@CUITabBody@@UEAA_NXZ 0000000140059190 f i uielements.obj
 0001:00058190       ?isInteractive@CUITabList@@UEAA_NXZ 0000000140059190 f i uielements.obj
 0001:00058190       ?isInteractive@CUITextTab@@UEAA_NXZ 0000000140059190 f i uielements.obj
 0001:00058190       ?isResizable@CUIDragger@@UEAA_NXZ 0000000140059190 f i uielements.obj
 0001:00058190       ?isResizable@CUIScrollableSurface@@UEAA_NXZ 0000000140059190 f i uielements.obj
 0001:00058190       ?isResizable@CUIScroller@@UEAA_NXZ 0000000140059190 f i uielements.obj
 0001:00058190       ?isResizable@CUISurface@@UEAA_NXZ 0000000140059190 f i uielements.obj
 0001:00058190       ?isWindow@CUIWindow@@UEAA_NXZ 0000000140059190 f i uielements.obj
 0001:00058190       __acrt_initialize          0000000140059190 f i MSVCRT:ucrt_stubs.obj
 0001:00058190       __acrt_uninitialize        0000000140059190 f i MSVCRT:ucrt_stubs.obj
 0001:00058190       __scrt_stub_for_acrt_initialize 0000000140059190 f i MSVCRT:ucrt_stubs.obj
 0001:00058190       __scrt_stub_for_acrt_uninitialize 0000000140059190 f i MSVCRT:ucrt_stubs.obj
 0001:00058190       __vcrt_initialize          0000000140059190 f i MSVCRT:ucrt_stubs.obj
 0001:00058190       __vcrt_uninitialize        0000000140059190 f i MSVCRT:ucrt_stubs.obj
 0001:00058190       _should_initialize_environment 0000000140059190 f i MSVCRT:env_mode.obj
 0001:000581a0       ??_ECSPNetworking@@UEAAPEAXI@Z 00000001400591a0 f i * CIL library *:* CIL module *
 0001:000581a0       ??_GCSPNetworking@@UEAAPEAXI@Z 00000001400591a0 f i net_sp.obj
 0001:000581e0       ?Init@CSPNetworking@@UEAA_NPEBD@Z 00000001400591e0 f   net_sp.obj
 0001:00058200       ?CLS_GetWriteCache@CSPNetworking@@UEAAPEAUnet_msgcache_t@@XZ 0000000140059200 f   net_sp.obj
 0001:00058210       ?SVC_MessageEnd@CSPNetworking@@UEAAXXZ 0000000140059210 f   net_sp.obj
 0001:00058220       ?SVC_GetWriteCache@CSPNetworking@@UEAAPEAUnet_msgcache_t@@I@Z 0000000140059220 f   net_sp.obj
 0001:00058270       ?CLS_MessageEnd@CSPNetworking@@UEAAXXZ 0000000140059270 f   net_sp.obj
 0001:000582c0       ?PBSPV1_Load@@YAPEAUbrushmodel_t@@PEBEPEBUdpbspv1header_t@@PEBD@Z 00000001400592c0 f   pbspv1.obj
 0001:00058ae0       ?PBSPV1_LoadTextures@@YA_NPEBEAEAUbrushmodel_t@@AEBUlump_t@@@Z 0000000140059ae0 f   pbspv1.obj
 0001:00059350       ?PBSPV1_LoadFaces@@YA_NPEBEAEAUbrushmodel_t@@AEBUlump_t@@@Z 000000014005a350 f   pbspv1.obj
 0001:00059660       ?PBSPV1_LoadLeafs@@YA_NPEBEAEAUbrushmodel_t@@AEBUlump_t@@@Z 000000014005a660 f   pbspv1.obj
 0001:00059800       ?PBSPV1_LoadNodes@@YA_NPEBEAEAUbrushmodel_t@@AEBUlump_t@@@Z 000000014005a800 f   pbspv1.obj
 0001:00059a00       ?PBSPV1_LoadClipnodes@@YA_NPEBEAEAUbrushmodel_t@@AEBUlump_t@@@Z 000000014005aa00 f   pbspv1.obj
 0001:00059c30       ?PBSPV1_LoadSubmodels@@YA_NPEBEAEAUbrushmodel_t@@AEBUlump_t@@@Z 000000014005ac30 f   pbspv1.obj
 0001:00059de0       ?PBSPV1_CalcSurfaceExtents@@YA_NPEAUmsurface_t@@AEAUbrushmodel_t@@@Z 000000014005ade0 f   pbspv1.obj
 0001:0005a1d0       ?Init@CBeamRenderer@@QEAA_NXZ 000000014005b1d0 f   r_beams.obj
 0001:0005a380       ?Shutdown@CBeamRenderer@@QEAAXXZ 000000014005b380 f   r_beams.obj
 0001:0005a410       ??1beam_t@@QEAA@XZ         000000014005b410 f i r_beams.obj
 0001:0005a430       ?FreeActiveBeams@CBeamRenderer@@AEAAXXZ 000000014005b430 f   r_beams.obj
 0001:0005a620       ?AllocateBeams@CBeamRenderer@@AEAAXXZ 000000014005b620 f   r_beams.obj
 0001:0005a730       ?FreeBeam@CBeamRenderer@@AEAAXPEAUbeam_t@@@Z 000000014005b730 f   r_beams.obj
 0001:0005a8d0       ??4beam_t@@QEAAAEAU0@$$QEAU0@@Z 000000014005b8d0 f i r_beams.obj
 0001:0005ab60       ?AllocBeam@CBeamRenderer@@AEAAPEAUbeam_t@@XZ 000000014005bb60 f   r_beams.obj
 0001:0005ac80       ?AllocateBeamPositions@CBeamRenderer@@AEAAXXZ 000000014005bc80 f   r_beams.obj
 0001:0005ad00       ?AllocBeamPosition@CBeamRenderer@@AEAAPEAUbeam_position_t@@PEAUbeam_t@@@Z 000000014005bd00 f   r_beams.obj
 0001:0005ad80       ?CullBeam@CBeamRenderer@@AEAA_NAEBVVector@@0_N@Z 000000014005bd80 f   r_beams.obj
 0001:0005b1f0       ?DrawBeams@CBeamRenderer@@QEAA_NXZ 000000014005c1f0 f   r_beams.obj
 0001:0005b9e0       ?DrawBeamSegments@CBeamRenderer@@AEAAXAEBVVector@@0MMMMMIHH@Z 000000014005c9e0 f   r_beams.obj
 0001:0005cae0       ?DrawBeamTesla@CBeamRenderer@@AEAAXAEBVVector@@0MMMMMMIHH@Z 000000014005dae0 f   r_beams.obj
 0001:0005df80       ?DrawBeamTorus@CBeamRenderer@@AEAAXAEBVVector@@0MMMMMIHH@Z 000000014005ef80 f   r_beams.obj
 0001:0005ead0       ?DrawBeamDisk@CBeamRenderer@@AEAAXAEBVVector@@0MMMMMI@Z 000000014005fad0 f   r_beams.obj
 0001:0005f010       ?DrawBeamCylinder@CBeamRenderer@@AEAAXAEBVVector@@0MMMMMI@Z 0000000140060010 f   r_beams.obj
 0001:0005f5b0       ?DrawBeamRing@CBeamRenderer@@AEAAXAEBVVector@@0MMMMMIHH@Z 00000001400605b0 f   r_beams.obj
 0001:00060590       ?BindSprite@CBeamRenderer@@AEAAXPEAUcache_model_t@@PEAUbeam_t@@@Z 0000000140061590 f   r_beams.obj
 0001:00060630       ?DrawBeam@CBeamRenderer@@AEAAXPEAUbeam_t@@@Z 0000000140061630 f   r_beams.obj
 0001:00060d60       ?DrawBeamFollow@CBeamRenderer@@AEAAXPEAUbeam_t@@@Z 0000000140061d60 f   r_beams.obj
 0001:00061c60       ?DrawBeamVaporTrail@CBeamRenderer@@AEAAXPEAUbeam_t@@M@Z 0000000140062c60 f   r_beams.obj
 0001:00062b60       ?DrawVaporTrailSegments@CBeamRenderer@@AEAAXAEBV?$CArray@Ubeamsegment_t@@@@VVector@@M_NM@Z 0000000140063b60 f   r_beams.obj
 0001:00063300       ?KillEntityBeams@CBeamRenderer@@QEAAXH@Z 0000000140064300 f   r_beams.obj
 0001:00063520       ?AddBeamEntity@CBeamRenderer@@QEAAXPEAUcl_entity_t@@@Z 0000000140064520 f   r_beams.obj
 0001:00063790       ?BeamSetup@CBeamRenderer@@AEAA_NPEAUbeam_t@@AEBVVector@@1HMMMMMMH@Z 0000000140064790 f   r_beams.obj
 0001:00063a20       ?BeamLightning@CBeamRenderer@@QEAAPEAUbeam_t@@AEBVVector@@0HMMMMMMH@Z 0000000140064a20 f   r_beams.obj
 0001:00063b00       ?BeamCirclePoints@CBeamRenderer@@QEAAPEAUbeam_t@@W4beam_types_t@@AEBVVector@@1HMMMMMMIMMMMH@Z 0000000140064b00 f   r_beams.obj
 0001:00063c20       ?BeamEntityPoint@CBeamRenderer@@QEAAPEAUbeam_t@@HHAEBVVector@@HMMMMMMIMMMMH@Z 0000000140064c20 f   r_beams.obj
 0001:00063da0       ?BeamEntities@CBeamRenderer@@QEAAPEAUbeam_t@@HHHHHMMMMMMIMMMMH@Z 0000000140064da0 f   r_beams.obj
 0001:00063f80       ?BeamFollow@CBeamRenderer@@QEAAPEAUbeam_t@@HHHMMMMMM@Z 0000000140064f80 f   r_beams.obj
 0001:000640b0       ?BeamVaporTrail@CBeamRenderer@@QEAAPEAUbeam_t@@AEBVVector@@0HHMMMMMMMMMMMH@Z 00000001400650b0 f   r_beams.obj
 0001:00064590       ?BeamPoints@CBeamRenderer@@QEAAPEAUbeam_t@@AEBVVector@@0HMMMMMMIMMMMH@Z 0000000140065590 f   r_beams.obj
 0001:000646e0       ?BeamRing@CBeamRenderer@@QEAAPEAUbeam_t@@HHHHHMMMMMMIMMMMH@Z 00000001400656e0 f   r_beams.obj
 0001:000648c0       ?ApplySegmentNoise@CBeamRenderer@@AEAAXAEAVVector@@IIMIAEBV2@1H@Z 00000001400658c0 f   r_beams.obj
 0001:00064b60       ?resize@?$CArray@Ubeamsegment_t@@@@QEAAXI@Z 0000000140065b60 f i r_beams.obj
 0001:00064ec0       ?Init@CBlackHoleRenderer@@QEAA_NXZ 0000000140065ec0 f   r_blackhole.obj
 0001:000651b0       ?InitGL@CBlackHoleRenderer@@QEAA_NXZ 00000001400661b0 f   r_blackhole.obj
 0001:000656c0       ?ClearGL@CBlackHoleRenderer@@QEAAXXZ 00000001400666c0 f   r_blackhole.obj
 0001:00065740       ?AffectObject@CBlackHoleRenderer@@QEAA_NAEBVVector@@AEAV2@M@Z 0000000140066740 f   r_blackhole.obj
 0001:00065ce0       ?GetBlackHoleScale@CBlackHoleRenderer@@QEBAMAEBUblackhole_t@1@@Z 0000000140066ce0 f   r_blackhole.obj
 0001:00065da0       ?DrawBlackHoles@CBlackHoleRenderer@@QEAA_NXZ 0000000140066da0 f   r_blackhole.obj
 0001:00066b70       ??1?$CLinkedList@Ublackhole_t@CBlackHoleRenderer@@@@QEAA@XZ 0000000140067b70 f i r_blackhole.obj
 0001:00066ba0       ?remove@?$CLinkedList@Ublackhole_t@CBlackHoleRenderer@@@@QEAAXPEAUlink_t@1@@Z 0000000140067ba0 f i r_blackhole.obj
 0001:00066d00       ?clear@?$CLinkedList@Ublackhole_t@CBlackHoleRenderer@@@@QEAAXXZ 0000000140067d00 f i r_blackhole.obj
 0001:00066ec0       ??0cable_object_t@@QEAA@XZ 0000000140067ec0 f i r_cables.obj
 0001:00066f00       ?InitGL@CCableRenderer@@QEAA_NXZ 0000000140067f00 f   r_cables.obj
 0001:000673b0       ?ClearGame@CCableRenderer@@QEAAXXZ 00000001400683b0 f   r_cables.obj
 0001:00067470       ?DrawCables@CCableRenderer@@QEAA_NXZ 0000000140068470 f   r_cables.obj
 0001:00067ac0       ?InitCableVBOData@CCableRenderer@@AEAAXAEAUcable_object_t@@@Z 0000000140068ac0 f   r_cables.obj
 0001:00068410       ?AddCable@CCableRenderer@@QEAAXAEBVVector@@0III@Z 0000000140069410 f   r_cables.obj
 0001:00068ad0       ??1cable_object_t@@QEAA@XZ 0000000140069ad0 f i r_cables.obj
 0001:00068ae0       ??_Ecable_object_t@@QEAAPEAXI@Z 0000000140069ae0 f i r_cables.obj
 0001:00068b20       ?resize@?$CArray@Ucable_object_t@@@@QEAAXI@Z 0000000140069b20 f i r_cables.obj
 0001:00068d30       ?addpointer@CBuffer@@QEAAXPEAPEAX@Z 0000000140069d30 f i r_cubemaps.obj
 0001:00068ef0       ?Cmd_BuildCubemaps@@YAXXZ  0000000140069ef0 f   r_cubemaps.obj
 0001:00069040       ?InitGame@CCubemapManager@@QEAA_NXZ 000000014006a040 f   r_cubemaps.obj
 0001:00069a80       ?Cleanup@CCubemapManager@@AEAAX_N@Z 000000014006aa80 f   r_cubemaps.obj
 0001:00069bb0       ?BuildCubemapList@CCubemapManager@@AEAAXPEBUentitydata_t@@I@Z 000000014006abb0 f   r_cubemaps.obj
 0001:0006a030       ?BuildEntityList@CCubemapManager@@AEAAXPEAPEAUcl_entity_t@@PEAIPEBUentitydata_t@@I@Z 000000014006b030 f   r_cubemaps.obj
 0001:0006a780       ?SaveCubemapFile@CCubemapManager@@AEAAXXZ 000000014006b780 f   r_cubemaps.obj
 0001:0006af00       ?RenderCubemaps@CCubemapManager@@AEAA_NPEAUcl_entity_t@@I@Z 000000014006bf00 f   r_cubemaps.obj
 0001:0006c5b0       ?resize@?$CArray@Ucubemapinfo_t@@@@QEAAXI@Z 000000014006d5b0 f i r_cubemaps.obj
 0001:0006c900       ?Init@CDecalManager@@QEAAXXZ 000000014006d900 f   r_decals.obj
 0001:0006cac0       ?InitGame@CDecalManager@@QEAA_NXZ 000000014006dac0 f   r_decals.obj
 0001:0006ce80       ?DrawBogusDecals@CDecalManager@@QEAA_NXZ 000000014006de80 f   r_decals.obj
 0001:0006d410       ?FindLeaf@CDecalManager@@CAXPEAUcached_decal_t@@@Z 000000014006e410 f   r_decals.obj
 0001:0006d600       ?AddCached@CDecalManager@@QEAAXPEAUdecalgroupentry_t@@PEBDAEBVVector@@2HHMMM@Z 000000014006e600 f   r_decals.obj
 0001:0006d9d0       ?CreateCached@CDecalManager@@QEAAXXZ 000000014006e9d0 f   r_decals.obj
 0001:0006e450       ?LoadTexture@CDecalManager@@SAXPEAUdecalgroupentry_t@@@Z 000000014006f450 f   r_decals.obj
 0001:0006e5f0       ?SendDecalToServer@CDecalManager@@AEAAXAEAUcached_decal_t@@@Z 000000014006f5f0 f   r_decals.obj
 0001:0006eaa0       ?FindIntersectionPoint@@YAXAEBVVector@@000AEAV1@@Z 000000014006faa0 f   r_decals.obj
 0001:0006ebd0       ?Decal_ClipPolygon@@YAIPEBVVector@@HAEBV1@1PEAV1@@Z 000000014006fbd0 f   r_decals.obj
 0001:0006f0a0       ?remove@?$CLinkedList@Ucached_decal_t@@@@QEAAXPEAUlink_t@1@@Z 00000001400700a0 f i r_decals.obj
 0001:0006f210       ?clear@?$CLinkedList@Ucached_decal_t@@@@QEAAXXZ 0000000140070210 f i r_decals.obj
 0001:0006f3f0       ?add@?$CLinkedList@VVector@@@@QEAAPEAUlink_t@1@VVector@@@Z 00000001400703f0 f i r_decals.obj
 0001:0006f470       ?clear@?$CLinkedList@Uactive_load_shader_t@@@@QEAAXXZ 0000000140070470 f i r_main.obj
 0001:0006f470       ?clear@?$CLinkedList@VVector@@@@QEAAXXZ 0000000140070470 f i r_decals.obj
 0001:0006f630       ??0lightstyle_t@CDynamicLightManager@@QEAA@XZ 0000000140070630 f i r_dlights.obj
 0001:0006f650       ?Init@CDynamicLightManager@@QEAA_NXZ 0000000140070650 f   r_dlights.obj
 0001:0006fb40       ?InitGL@CDynamicLightManager@@QEAA_NXZ 0000000140070b40 f   r_dlights.obj
 0001:000701f0       ?ClearGL@CDynamicLightManager@@QEAAXXZ 00000001400711f0 f   r_dlights.obj
 0001:00070360       ?AddLightStyle@CDynamicLightManager@@AEAAXIH_NPEBD@Z 0000000140071360 f   r_dlights.obj
 0001:000704f0       ?AnimateStyles@CDynamicLightManager@@AEAAXXZ 00000001400714f0 f   r_dlights.obj
 0001:000706f0       ?ApplyLightStyle@CDynamicLightManager@@QEAAXPEAUcl_dlight_t@@AEAVVector@@@Z 00000001400716f0 f   r_dlights.obj
 0001:00070790       ?CheckFBOs@CDynamicLightManager@@AEAA_NXZ 0000000140071790 f   r_dlights.obj
 0001:00070b10       ?InitFBOs@CDynamicLightManager@@AEAA_NXZ 0000000140071b10 f   r_dlights.obj
 0001:000710e0       ?AllocProjectiveShadowMap@CDynamicLightManager@@AEAAPEAUshadowmap_t@@_N@Z 00000001400720e0 f   r_dlights.obj
 0001:00071380       ?CreateCubemapFBO@CDynamicLightManager@@AEAA_NAEAUshadowmap_t@@@Z 0000000140072380 f   r_dlights.obj
 0001:00071580       ?CreateShadowmapBlitFBOs@CDynamicLightManager@@AEAA_NAEAUshadowmap_t@@II@Z 0000000140072580 f   r_dlights.obj
 0001:000718d0       ?ReleaseShadowmapBlitFBOs@CDynamicLightManager@@AEAAXAEAUshadowmap_t@@@Z 00000001400728d0 f   r_dlights.obj
 0001:000719a0       ?DeleteFBOs@CDynamicLightManager@@AEAAXXZ 00000001400729a0 f   r_dlights.obj
 0001:00071a40       ?ClearShadowMaps@CDynamicLightManager@@AEAAXXZ 0000000140072a40 f   r_dlights.obj
 0001:00071de0       ?SetVIS@CDynamicLightManager@@QEAAXXZ 0000000140072de0 f   r_dlights.obj
 0001:00071fd0       ?UpdateLights@CDynamicLightManager@@AEAAXXZ 0000000140072fd0 f   r_dlights.obj
 0001:00072460       ??_Gdlight_sceneinfo_t@@QEAAPEAXI@Z 0000000140073460 f i r_dlights.obj
 0001:00072490       ?DrawPasses@CDynamicLightManager@@QEAA_NXZ 0000000140073490 f   r_dlights.obj
 0001:00072a10       ?DrawShadowMapPasses@CDynamicLightManager@@AEAA_NPEAUcl_dlight_t@@PEAPEAUcl_entity_t@@H_N@Z 0000000140073a10 f   r_dlights.obj
 0001:00072c40       ?DrawProjectivePass@CDynamicLightManager@@AEAA_NPEAUcl_dlight_t@@PEAPEAUcl_entity_t@@H_N@Z 0000000140073c40 f   r_dlights.obj
 0001:000739f0       ?DrawCubemapPass@CDynamicLightManager@@AEAA_NPEAUcl_dlight_t@@VVector@@HPEAPEAUcl_entity_t@@H_N@Z 00000001400749f0 f   r_dlights.obj
 0001:00074780       ?Update@CDynamicLightManager@@QEAA_NXZ 0000000140075780 f   r_dlights.obj
 0001:00074c30       ?ClearGame@CDynamicLightManager@@QEAAXXZ 0000000140075c30 f   r_dlights.obj
 0001:00074da0       ?SetupLight@CDynamicLightManager@@AEAAXPEAUcl_dlight_t@@_N11PEAUcl_entity_t@@@Z 0000000140075da0 f   r_dlights.obj
 0001:00075010       ?AllocDynamicSpotlight@CDynamicLightManager@@QEAAPEAUcl_dlight_t@@HH_N0PEAUcl_entity_t@@@Z 0000000140076010 f   r_dlights.obj
 0001:000753b0       ?AllocDynamicPointLight@CDynamicLightManager@@QEAAPEAUcl_dlight_t@@HH_N0PEAUcl_entity_t@@@Z 00000001400763b0 f   r_dlights.obj
 0001:00075760       ?ShouldRedrawShadowMap@CDynamicLightManager@@CA_NPEAUcl_dlight_t@@PEAUdlight_sceneinfo_t@@_N@Z 0000000140076760 f   r_dlights.obj
 0001:00075f50       ?ReleaseEntityDynamicLights@CDynamicLightManager@@QEAAXH@Z 0000000140076f50 f   r_dlights.obj
 0001:00076220       ?DL_CanShadow@@YA_NPEBUcl_dlight_t@@@Z 0000000140077220 f   r_dlights.obj
 0001:00076290       ?R_CheckShadowmapSizeCvarCallBack@@YAXPEAVCCVar@@@Z 0000000140077290 f   r_dlights.obj
 0001:00076320       ?resize@?$CArray@D@@QEAAXI@Z 0000000140077320 f i r_dlights.obj
 0001:00076420       ?resize@?$CArray@Ulightstyle_t@CDynamicLightManager@@@@QEAAXI@Z 0000000140077420 f i r_dlights.obj
 0001:00076640       ??A?$CArray@Uadv_choice_t@CUISettingsWindow@@@@QEBAAEAUadv_choice_t@CUISettingsWindow@@I@Z 0000000140077640 f i uisettingswindow.obj
 0001:00076640       ??A?$CArray@Ulightstyle_t@CDynamicLightManager@@@@QEBAAEAUlightstyle_t@CDynamicLightManager@@I@Z 0000000140077640 f i r_dlights.obj
 0001:00076690       ??_Elightstyle_t@CDynamicLightManager@@QEAAPEAXI@Z 0000000140077690 f i r_dlights.obj
 0001:000766d0       ??1lightstyle_t@CDynamicLightManager@@QEAA@XZ 00000001400776d0 f i r_dlights.obj
 0001:000766e0       ?Think@CFBOCache@@QEAAXXZ  00000001400776e0 f   r_fbocache.obj
 0001:00076990       ?Alloc@CFBOCache@@QEAAPEAUcache_fbo_t@1@II_N@Z 0000000140077990 f   r_fbocache.obj
 0001:00076cf0       ?Free@CFBOCache@@QEAAXPEAUcache_fbo_t@1@@Z 0000000140077cf0 f   r_fbocache.obj
 0001:00076d70       ?Init@CGlowAura@@QEAA_NXZ  0000000140077d70 f   r_glowaura.obj
 0001:00076f40       ?InitGL@CGlowAura@@QEAA_NXZ 0000000140077f40 f   r_glowaura.obj
 0001:00077510       ?ClearGL@CGlowAura@@QEAAXXZ 0000000140078510 f   r_glowaura.obj
 0001:000775a0       ?DrawSolid@CGlowAura@@AEAA_NXZ 00000001400785a0 f   r_glowaura.obj
 0001:00077850       ?DrawColors@CGlowAura@@AEAA_NXZ 0000000140078850 f   r_glowaura.obj
 0001:00077da0       ?BlurTexture@CGlowAura@@AEAA_NXZ 0000000140078da0 f   r_glowaura.obj
 0001:000782c0       ?DrawFinal@CGlowAura@@AEAA_NXZ 00000001400792c0 f   r_glowaura.obj
 0001:00078550       ?DrawAuras@CGlowAura@@QEAA_NXZ 0000000140079550 f   r_glowaura.obj
 0001:00078fa0       ??0glowquery_t@@QEAA@XZ    0000000140079fa0 f i r_glqueries.obj
 0001:00078fc0       ?R_CalcOcclusionFactor@@YAMAEBVVector@@HMMMIW4querytype_t@@AEAUglowstate_t@@_N333PEAY03MPEAXP6AX5@ZP6AX50@Z@Z 0000000140079fc0 f   r_glqueries.obj
 0001:00079d70       ?R_ReleaseRenderPassQueryObjects@@YAXIW4querytype_t@@@Z 000000014007ad70 f   r_glqueries.obj
 0001:00079ea0       ?resize@?$CArray@Uglowquery_t@@@@QEAAXI@Z 000000014007aea0 f i r_glqueries.obj
 0001:0007a050       ??_Eglowquery_t@@QEAAPEAXI@Z 000000014007b050 f i r_glqueries.obj
 0001:0007a090       ?R_GetDummyTexture@@YAPEAUen_texture_t@@XZ 000000014007b090 f   r_interfacefuncs.obj
 0001:0007a0a0       ?R_GetDummyMaterial@@YAPEAUen_material_t@@XZ 000000014007b0a0 f   r_interfacefuncs.obj
 0001:0007a0b0       ?R_AllocTextureIndex@@YAPEAUen_texalloc_t@@W4rs_level_t@@@Z 000000014007b0b0 f   r_interfacefuncs.obj
 0001:0007a0c0       ?R_LoadTexture@@YAPEAUen_texture_t@@PEBDW4rs_level_t@@HPEBH@Z 000000014007b0c0 f   r_interfacefuncs.obj
 0001:0007a0f0       ?R_LoadTextureFromMemory@@YAPEAUen_texture_t@@PEBDW4rs_level_t@@HPEBEIII@Z 000000014007b0f0 f   r_interfacefuncs.obj
 0001:0007a140       ?R_LoadMaterialScript@@YAPEAUen_material_t@@PEBDW4rs_level_t@@@Z 000000014007b140 f   r_interfacefuncs.obj
 0001:0007a170       ?R_EnableBasicDraw@@YA_NXZ 000000014007b170 f   r_interfacefuncs.obj
 0001:0007a180       ?R_DisableBasicDraw@@YAXXZ 000000014007b180 f   r_interfacefuncs.obj
 0001:0007a1c0       ?R_BasicDrawEnableTextures@@YA_NXZ 000000014007b1c0 f   r_interfacefuncs.obj
 0001:0007a220       ?R_BasicDrawDisableTextures@@YA_NXZ 000000014007b220 f   r_interfacefuncs.obj
 0001:0007a280       ?R_BasicDrawBegin@@YAXH@Z  000000014007b280 f   r_interfacefuncs.obj
 0001:0007a2a0       ?R_BasicDrawEnd@@YAXXZ     000000014007b2a0 f   r_interfacefuncs.obj
 0001:0007a2b0       ?R_BasicDrawSetProjection@@YAXPEBM@Z 000000014007b2b0 f   r_interfacefuncs.obj
 0001:0007a2d0       ?R_BasicDrawSetModelView@@YAXPEBM@Z 000000014007b2d0 f   r_interfacefuncs.obj
 0001:0007a2f0       ?R_BasicDrawColor4f@@YAXMMMM@Z 000000014007b2f0 f   r_interfacefuncs.obj
 0001:0007a310       ?R_BasicDrawColor4fv@@YAXPEBM@Z 000000014007b310 f   r_interfacefuncs.obj
 0001:0007a330       ?R_BasicDrawTexCoord2f@@YAXMM@Z 000000014007b330 f   r_interfacefuncs.obj
 0001:0007a350       ?R_BasicDrawTexCoord2fv@@YAXPEBM@Z 000000014007b350 f   r_interfacefuncs.obj
 0001:0007a3c0       ?R_BasicDrawVertex3f@@YAXMMM@Z 000000014007b3c0 f   r_interfacefuncs.obj
 0001:0007a3f0       ?R_BasicDrawVertex3fv@@YAXPEBM@Z 000000014007b3f0 f   r_interfacefuncs.obj
 0001:0007a400       ?R_GetExportFunctionsClass@@YAAEBVCGLExtF@@XZ 000000014007b400 f   r_interfacefuncs.obj
 0001:0007a410       ?R_GetProjectionMatrix@@YAAEAVCMatrix@@XZ 000000014007b410 f   r_interfacefuncs.obj
 0001:0007a420       ?R_GetModelViewMatrix@@YAAEAVCMatrix@@XZ 000000014007b420 f   r_interfacefuncs.obj
 0001:0007a430       ?R_GetViewParams@@YAAEBUref_params_t@@XZ 000000014007b430 f   r_interfacefuncs.obj
 0001:0007a440       ?R_GetDefaultFontSet@@YAPEBUfont_set_t@@XZ 000000014007b440 f   r_interfacefuncs.obj
 0001:0007a450       ?R_LoadFontSet@@YAPEBUfont_set_t@@PEBDH@Z 000000014007b450 f   r_interfacefuncs.obj
 0001:0007a480       ?R_GetScreenSize@@YAXAEAI0@Z 000000014007b480 f   r_interfacefuncs.obj
 0001:0007a4b0       ?R_BasicDrawIsActive@@YA_NXZ 000000014007b4b0 f   r_interfacefuncs.obj
 0001:0007a4c0       ?R_GetStringSize@@YAXPEBUfont_set_t@@PEBDPEAI2PEAH@Z 000000014007b4c0 f   r_interfacefuncs.obj
 0001:0007a590       ?R_EstimateStringHeight@@YAHPEBUfont_set_t@@PEBDI@Z 000000014007b590 f   r_interfacefuncs.obj
 0001:0007a5a0       ?R_SetStringRectangle@@YAXFFFFHH@Z 000000014007b5a0 f   r_interfacefuncs.obj
 0001:0007a5e0       ?R_GetStringDrawError@@YAPEBDXZ 000000014007b5e0 f   r_interfacefuncs.obj
 0001:0007a600       ?R_VBMPrepareDraw@@YA_NXZ  000000014007b600 f   r_interfacefuncs.obj
 0001:0007a610       ?R_VBMEndDraw@@YAXXZ       000000014007b610 f   r_interfacefuncs.obj
 0001:0007a620       ?R_DrawVBMModel@@YA_NPEAUcl_entity_t@@H@Z 000000014007b620 f   r_interfacefuncs.obj
 0001:0007a630       ?R_VBMPrepareVSMDraw@@YA_NPEAUcl_dlight_t@@@Z 000000014007b630 f   r_interfacefuncs.obj
 0001:0007a640       ?R_VBMEndVSMDraw@@YAXXZ    000000014007b640 f   r_interfacefuncs.obj
 0001:0007a650       ?R_VBMGetShaderError@@YAPEBDXZ 000000014007b650 f   r_interfacefuncs.obj
 0001:0007a670       ?R_DrawVBMModelVSM@@YA_NPEAUcl_entity_t@@PEAUcl_dlight_t@@@Z 000000014007b670 f   r_interfacefuncs.obj
 0001:0007a680       ?R_GetNumRenderEntities@@YAIXZ 000000014007b680 f   r_interfacefuncs.obj
 0001:0007a690       ?R_GetRenderEntityByIndex@@YAPEAUcl_entity_t@@I@Z 000000014007b690 f   r_interfacefuncs.obj
 0001:0007a6b0       ?R_IF_ValidateShader@@YAXPEAVCGLSLShader@@@Z 000000014007b6b0 f   r_interfacefuncs.obj
 0001:0007a6c0       ?R_IF_ValidateBasicDraw@@YAXXZ 000000014007b6c0 f   r_interfacefuncs.obj
 0001:0007a6e0       ??0sunflare_t@CLensFlareRenderer@@QEAA@XZ 000000014007b6e0 f i r_lensflare.obj
 0001:0007a710       ?Init@CLensFlareRenderer@@QEAA_NXZ 000000014007b710 f   r_lensflare.obj
 0001:0007aa00       ?InitGame@CLensFlareRenderer@@QEAA_NXZ 000000014007ba00 f   r_lensflare.obj
 0001:0007ac70       ?DrawSunFlare@CLensFlareRenderer@@AEAAXAEAUsunflare_t@1@@Z 000000014007bc70 f   r_lensflare.obj
 0001:0007aef0       ?DrawLensFlares@CLensFlareRenderer@@QEAA_NXZ 000000014007bef0 f   r_lensflare.obj
 0001:0007b380       ?DrawLensFlare@CLensFlareRenderer@@AEAA_NHAEBVVector@@0MMAEAUglowstate_t@@H_N2@Z 000000014007c380 f   r_lensflare.obj
 0001:0007be50       ?DrawQuad@CLensFlareRenderer@@AEAAXAEBVVector@@0PEAUen_texture_t@@MM@Z 000000014007ce50 f   r_lensflare.obj
 0001:0007c460       ?PreDrawFunction@CLensFlareRenderer@@QEAAXXZ 000000014007d460 f   r_lensflare.obj
 0001:0007c6e0       ?SetSunFlare@CLensFlareRenderer@@QEAAXH_NMMMAEBVVector@@0@Z 000000014007d6e0 f   r_lensflare.obj
 0001:0007c8d0       ?LF_PreRender@@YAXPEAX@Z   000000014007d8d0 f   r_lensflare.obj
 0001:0007c8e0       ?LF_DrawFunction@@YAXPEAXAEBVVector@@@Z 000000014007d8e0 f   r_lensflare.obj
 0001:0007c9a0       ?resize@?$CArray@Usunflare_t@CLensFlareRenderer@@@@QEAAXI@Z 000000014007d9a0 f i r_lensflare.obj
 0001:0007cb60       ?erase@?$CArray@Usunflare_t@CLensFlareRenderer@@@@QEAAXI@Z 000000014007db60 f i r_lensflare.obj
 0001:0007cd20       ??_Esunflare_t@CLensFlareRenderer@@QEAAPEAXI@Z 000000014007dd20 f i r_lensflare.obj
 0001:0007cd60       ?InitGL@CMenuParticles@@QEAA_NXZ 000000014007dd60 f   r_menuparticles.obj
 0001:0007d1c0       ?Draw@CMenuParticles@@QEAA_NXZ 000000014007e1c0 f   r_menuparticles.obj
 0001:0007de50       ?Think@CMenuParticles@@QEAAXXZ 000000014007ee50 f   r_menuparticles.obj
 0001:0007e550       ?SpawnParticle@CMenuParticles@@AEAA_NMM_N@Z 000000014007f550 f   r_menuparticles.obj
 0001:0007e8e0       ?CreateVertexNode@CNormalSmoothing@@AEAAPEAUvertexnode_t@1@AEBVVector@@0H@Z 000000014007f8e0 f   r_nsmoothing.obj
 0001:0007ed40       ?RecursiveAddVertex@CNormalSmoothing@@AEAAPEAUvertexnode_t@1@PEAU21@AEBVVector@@1H@Z 000000014007fd40 f   r_nsmoothing.obj
 0001:0007efe0       ?resize@?$CArray@Uvertex_t@CNormalSmoothing@@@@QEAAXI@Z 000000014007ffe0 f i r_nsmoothing.obj
 0001:0007f2a0       ?Init@CPortalManager@@QEAA_NXZ 00000001400802a0 f   r_portals.obj
 0001:0007f450       ?ClearGame@CPortalManager@@QEAAXXZ 0000000140080450 f   r_portals.obj
 0001:0007f600       ?InitGL@CPortalManager@@QEAA_NXZ 0000000140080600 f   r_portals.obj
 0001:0007fac0       ?ClearGL@CPortalManager@@QEAAXXZ 0000000140080ac0 f   r_portals.obj
 0001:0007fba0       ?CreatePortalTexture@CPortalManager@@AEAA_NPEAUcl_portal_t@@@Z 0000000140080ba0 f   r_portals.obj
 0001:0007ff20       ?AllocNewPortal@CPortalManager@@QEAAXPEAUcl_entity_t@@@Z 0000000140080f20 f   r_portals.obj
 0001:00080a10       ?DrawPortalPasses@CPortalManager@@QEAA_NXZ 0000000140081a10 f   r_portals.obj
 0001:00081030       ?GetMatchingPortal@CPortalManager@@QEAAPEAUcl_portal_t@@IAEAVCFrustum@@@Z 0000000140082030 f   r_portals.obj
 0001:000810f0       ?SetupPortalPass@CPortalManager@@AEAA_NXZ 00000001400820f0 f   r_portals.obj
 0001:000815d0       ?DrawPortals@CPortalManager@@QEAA_NXZ 00000001400825d0 f   r_portals.obj
 0001:00081c40       ?SetUniform4f@CGLSLShader@@QEAAXHMMMM@Z 0000000140082c40 f i r_sky.obj
 0001:00081f00       ??0skytextureset_t@CSkyRenderer@@QEAA@XZ 0000000140082f00 f i r_sky.obj
 0001:00081f40       ?Init@CSkyRenderer@@QEAA_NXZ 0000000140082f40 f   r_sky.obj
 0001:000820f0       ?InitGL@CSkyRenderer@@QEAA_NXZ 00000001400830f0 f   r_sky.obj
 0001:00082430       ?ClearGame@CSkyRenderer@@QEAAXXZ 0000000140083430 f   r_sky.obj
 0001:00082520       ?CreateVBO@CSkyRenderer@@AEAAXXZ 0000000140083520 f   r_sky.obj
 0001:00082940       ?DrawSky@CSkyRenderer@@QEAA_NXZ 0000000140083940 f   r_sky.obj
 0001:00084480       ?LoadSkyTextures@CSkyRenderer@@AEAAXPEBDPEAPEAUen_texture_t@@@Z 0000000140085480 f   r_sky.obj
 0001:00084ad0       ?FindSkySet@CSkyRenderer@@AEAAHH@Z 0000000140085ad0 f   r_sky.obj
 0001:00084b40       ?AddSkyTextureSet@CSkyRenderer@@QEAAXPEBDH@Z 0000000140085b40 f   r_sky.obj
 0001:00084e30       ?SetCurrentSkySet@CSkyRenderer@@QEAAXH@Z 0000000140085e30 f   r_sky.obj
 0001:00084e80       ??A?$CArray@Uskytextureset_t@CSkyRenderer@@@@QEBAAEAUskytextureset_t@CSkyRenderer@@I@Z 0000000140085e80 f i r_sky.obj
 0001:00084ed0       ??_Eskytextureset_t@CSkyRenderer@@QEAAPEAXI@Z 0000000140085ed0 f i r_sky.obj
 0001:00084f10       ?resize@?$CArray@Uskytextureset_t@CSkyRenderer@@@@QEAAXI@Z 0000000140085f10 f i r_sky.obj
 0001:000850e0       ??1CWADTextureResource@@QEAA@XZ 00000001400860e0 f   r_wadtextures.obj
 0001:00085370       ?Init@CWADTextureResource@@QEAA_NPEBDAEBV?$CArray@VCString@@@@_N2@Z 0000000140086370 f   r_wadtextures.obj
 0001:00086030       ?LoadMaterialTypeCodeAssociations@CWADTextureResource@@AEAA_NXZ 0000000140087030 f   r_wadtextures.obj
 0001:000865f0       ?LoadMaterialTextureAssociations@CWADTextureResource@@AEAA_NXZ 00000001400875f0 f   r_wadtextures.obj
 0001:00086bf0       ?IsMaterialScriptPresent@CWADTextureResource@@CA_NPEBD0@Z 0000000140087bf0 f   r_wadtextures.obj
 0001:00086d10       ?CreateMaterialScript@CWADTextureResource@@AEAAXPEBUdmiptex_t@@PEBD@Z 0000000140087d10 f   r_wadtextures.obj
 0001:00088400       ?GetWADTexture@CWADTextureResource@@QEAAPEAUen_texture_t@@PEAUen_material_t@@PEBD1@Z 0000000140089400 f   r_wadtextures.obj
 0001:00088a30       ?WAD_LoadDetailTextureAssociations@@YA_NAEAV?$CArray@PEAUdetailtexture_t@@@@AEAV?$CArray@PEAUdetail_association_t@@@@@Z 0000000140089a30 f   r_wadtextures.obj
 0001:00089420       ?WAD_GetWADFolderPath@@YA?AVCString@@PEBD0@Z 000000014008a420 f   r_wadtextures.obj
 0001:000894f0       ?WAD_GetWADTexturePath@@YA?AVCString@@PEBD0@Z 000000014008a4f0 f   r_wadtextures.obj
 0001:000895d0       ?resize@?$CArray@Uwad3file_t@CWADTextureResource@@@@QEAAXI@Z 000000014008a5d0 f i r_wadtextures.obj
 0001:000897a0       ?InitGL@CMirrorManager@@QEAA_NXZ 000000014008a7a0 f   r_mirror.obj
 0001:00089c80       ?ClearGL@CMirrorManager@@QEAAXXZ 000000014008ac80 f   r_mirror.obj
 0001:00089dd0       ?ClearGame@CMirrorManager@@QEAAXXZ 000000014008add0 f   r_mirror.obj
 0001:00089f90       ?CreateDepthTexture@CMirrorManager@@AEAAXXZ 000000014008af90 f   r_mirror.obj
 0001:0008a080       ?AllocTextures@CMirrorManager@@AEAA_NPEAUcl_mirror_t@@@Z 000000014008b080 f   r_mirror.obj
 0001:0008a330       ?AllocNewMirror@CMirrorManager@@QEAAXPEAUcl_entity_t@@@Z 000000014008b330 f   r_mirror.obj
 0001:0008ab40       ?DrawMirrorPasses@CMirrorManager@@QEAA_NXZ 000000014008bb40 f   r_mirror.obj
 0001:0008b0f0       ?SetupClipping@CMirrorManager@@AEAAXXZ 000000014008c0f0 f   r_mirror.obj
 0001:0008b7e0       ?SetupMirrorPass@CMirrorManager@@AEAAXXZ 000000014008c7e0 f   r_mirror.obj
 0001:0008bc30       ?DrawMirrors@CMirrorManager@@QEAA_NXZ 000000014008cc30 f   r_mirror.obj
 0001:0008c360       ?Init@CMonitorManager@@QEAA_NXZ 000000014008d360 f   r_monitor.obj
 0001:0008c510       ?ClearGame@CMonitorManager@@QEAAXXZ 000000014008d510 f   r_monitor.obj
 0001:0008c7b0       ?InitGL@CMonitorManager@@QEAA_NXZ 000000014008d7b0 f   r_monitor.obj
 0001:0008ccf0       ?ClearGL@CMonitorManager@@QEAAXXZ 000000014008dcf0 f   r_monitor.obj
 0001:0008cee0       ?CreateMonitorTextures@CMonitorManager@@CA_NPEAUcl_monitor_t@@@Z 000000014008dee0 f   r_monitor.obj
 0001:0008d210       ?AllocNewMonitor@CMonitorManager@@QEAAXPEAUcl_entity_t@@@Z 000000014008e210 f   r_monitor.obj
 0001:0008df10       ?DrawMonitorPasses@CMonitorManager@@QEAA_NXZ 000000014008ef10 f   r_monitor.obj
 0001:0008e4e0       ?GetMatchingMonitor@CMonitorManager@@QEAAPEAUcl_monitor_t@@I@Z 000000014008f4e0 f   r_monitor.obj
 0001:0008e5c0       ?SetupMonitorPass@CMonitorManager@@AEAA_NXZ 000000014008f5c0 f   r_monitor.obj
 0001:0008e940       ?DrawMonitors@CMonitorManager@@QEAA_NXZ 000000014008f940 f   r_monitor.obj
 0001:0008ef70       ??0script_definition_t@@QEAA@XZ 000000014008ff70 f i r_particles.obj
 0001:0008f070       ??0CParticleEngine@@QEAA@XZ 0000000140090070 f   r_particles.obj
 0001:0008f1d0       ?Init@CParticleEngine@@QEAA_NXZ 00000001400901d0 f   r_particles.obj
 0001:0008f7f0       ?InitGL@CParticleEngine@@QEAA_NXZ 00000001400907f0 f   r_particles.obj
 0001:000910b0       ?ClearGL@CParticleEngine@@QEAAXXZ 00000001400920b0 f   r_particles.obj
 0001:00091140       ?ClearGame@CParticleEngine@@QEAAXXZ 0000000140092140 f   r_particles.obj
 0001:000914a0       ??_Gscript_cache_t@@QEAAPEAXI@Z 00000001400924a0 f i r_particles.obj
 0001:00091590       ??4cl_particle_t@@QEAAAEAU0@$$QEAU0@@Z 0000000140092590 f i r_particles.obj
 0001:00091900       ?CreateSystem@CParticleEngine@@AEAAPEAUparticle_system_t@@PEBDAEBVVector@@1IPEAU2@PEAUcl_entity_t@@HIHH@Z 0000000140092900 f   r_particles.obj
 0001:00092390       ?ReadField@CParticleEngine@@QEAA_NPEAUscript_definition_t@@PEBD1@Z 0000000140093390 f   r_particles.obj
 0001:00095820       ?LoadSystemScript@CParticleEngine@@QEAA_NPEAUscript_cache_t@@PEBD@Z 0000000140096820 f   r_particles.obj
 0001:00095f10       ?LoadClusterScript@CParticleEngine@@QEAA_NPEAUscript_cache_t@@PEBD@Z 0000000140096f10 f   r_particles.obj
 0001:000967f0       ?PrecacheScript@CParticleEngine@@QEAAPEBUscript_cache_t@@HPEBDPEAV?$CArray@VCString@@@@@Z 00000001400977f0 f   r_particles.obj
 0001:00096eb0       ?EnvironmentCreateFirst@CParticleEngine@@AEAAXPEAUparticle_system_t@@@Z 0000000140097eb0 f   r_particles.obj
 0001:00097230       ?CreateParticle@CParticleEngine@@AEAAPEAUcl_particle_t@@PEAUparticle_system_t@@PEAM1@Z 0000000140098230 f   r_particles.obj
 0001:00098db0       ?Update@CParticleEngine@@QEAAXXZ 0000000140099db0 f   r_particles.obj
 0001:000991c0       ?UpdateSystems@CParticleEngine@@AEAAXXZ 000000014009a1c0 f   r_particles.obj
 0001:00099a70       ?TransformRelativeVector@CParticleEngine@@AEAAXAEBVVector@@PEAUparticle_system_t@@AEAV2@_N3@Z 000000014009aa70 f   r_particles.obj
 0001:00099e00       ?CheckCollision@CParticleEngine@@AEAA_NAEAVVector@@0PEAUparticle_system_t@@PEAUcl_particle_t@@@Z 000000014009ae00 f   r_particles.obj
 0001:0009a7b0       ?GetBoneTransformedPosition@CParticleEngine@@AEAAXAEBVVector@@PEAUcl_entity_t@@HAEAV2@_N@Z 000000014009b7b0 f   r_particles.obj
 0001:0009a840       ?GetBoneRotatedVector@CParticleEngine@@AEAAXAEBVVector@@PEAUcl_entity_t@@HAEAV2@_N@Z 000000014009b840 f   r_particles.obj
 0001:0009a890       ?UpdateParticle@CParticleEngine@@AEAA_NPEAUcl_particle_t@@@Z 000000014009b890 f   r_particles.obj
 0001:0009b990       ?GetLights@CParticleEngine@@CAXPEAUparticle_system_t@@PEAPEAUcl_dlight_t@@PEAI_NI@Z 000000014009c990 f   r_particles.obj
 0001:0009bf70       ?BatchParticle@CParticleEngine@@AEAAXPEAUcl_particle_t@@MMPEBM@Z 000000014009cf70 f   r_particles.obj
 0001:0009ea70       ?DrawParticles@CParticleEngine@@QEAA_NW4prt_render_pass_e@@@Z 000000014009fa70 f   r_particles.obj
 0001:000a0b00       ?ReleaseSystem@CParticleEngine@@AEAAXPEAUparticle_system_t@@@Z 00000001400a1b00 f   r_particles.obj
 0001:000a0be0       ?RemoveSystem@CParticleEngine@@AEAAXHH_N@Z 00000001400a1be0 f   r_particles.obj
 0001:000a0e10       ?CacheCreateSystem@CParticleEngine@@QEAAXAEBVVector@@0W4part_script_type_t@@PEBDIHHHH@Z 00000001400a1e10 f   r_particles.obj
 0001:000a1030       ?KillEntityParticleSystems@CParticleEngine@@QEAAXH@Z 00000001400a2030 f   r_particles.obj
 0001:000a12b0       ??1?$CLinkedList@Upart_msg_cache_t@@@@QEAA@XZ 00000001400a22b0 f i r_particles.obj
 0001:000a12e0       ?radd@?$CLinkedList@Upart_msg_cache_t@@@@QEAAPEAUlink_t@1@Upart_msg_cache_t@@@Z 00000001400a22e0 f i r_particles.obj
 0001:000a1400       ?remove@?$CLinkedList@Upart_msg_cache_t@@@@QEAAXPEAUlink_t@1@@Z 00000001400a2400 f i r_particles.obj
 0001:000a1570       ?clear@?$CLinkedList@Upart_msg_cache_t@@@@QEAAXXZ 00000001400a2570 f i r_particles.obj
 0001:000a1750       ?resize@?$CArray@Uiterator_t@?$CLinkedList@PEAUbsp_decal_t@@@@@@QEAAXI@Z 00000001400a2750 f i r_bsp.obj
 0001:000a1750       ?resize@?$CArray@Uiterator_t@?$CLinkedList@Upart_msg_cache_t@@@@@@QEAAXI@Z 00000001400a2750 f i r_particles.obj
 0001:000a1870       ??0CPostProcess@@QEAA@XZ   00000001400a2870 f   r_postprocess.obj
 0001:000a1a90       ?Init@CPostProcess@@QEAA_NXZ 00000001400a2a90 f   r_postprocess.obj
 0001:000a2190       ?InitGL@CPostProcess@@QEAA_NXZ 00000001400a3190 f   r_postprocess.obj
 0001:000a2c20       ?ClearGL@CPostProcess@@QEAAXXZ 00000001400a3c20 f   r_postprocess.obj
 0001:000a2cf0       ?ClearGame@CPostProcess@@QEAAXXZ 00000001400a3cf0 f   r_postprocess.obj
 0001:000a2f50       ?FetchScreen@CPostProcess@@CAXPEAPEAUrtt_texture_t@@@Z 00000001400a3f50 f   r_postprocess.obj
 0001:000a2fd0       ?FetchScreen@CPostProcess@@CA_NPEAPEAUcache_fbo_t@CFBOCache@@@Z 00000001400a3fd0 f   r_postprocess.obj
 0001:000a30b0       ?DrawBlur@CPostProcess@@AEAA_NXZ 00000001400a40b0 f   r_postprocess.obj
 0001:000a32a0       ?DrawMotionBlur@CPostProcess@@AEAA_NXZ 00000001400a42a0 f   r_postprocess.obj
 0001:000a3570       ?DrawFade@CPostProcess@@AEAA_NAEAUscreenfade_t@@@Z 00000001400a4570 f   r_postprocess.obj
 0001:000a3770       ?Draw@CPostProcess@@QEAA_NXZ 00000001400a4770 f   r_postprocess.obj
 0001:000a50f0       ?Legacy_SortParticles@@YAHPEBX0@Z 00000001400a60f0 f   r_legacyparticles.obj
 0001:000a51f0       ?ReleaseAllParticles@CLegacyParticles@@AEAAXXZ 00000001400a61f0 f   r_legacyparticles.obj
 0001:000a52c0       ?AllocateParticles@CLegacyParticles@@AEAAXXZ 00000001400a62c0 f   r_legacyparticles.obj
 0001:000a5490       ?CreateParticleExplosion1@CLegacyParticles@@QEAAXAEBVVector@@@Z 00000001400a6490 f   r_legacyparticles.obj
 0001:000a57a0       ?CreateParticleExplosion2@CLegacyParticles@@QEAAXAEBVVector@@II@Z 00000001400a67a0 f   r_legacyparticles.obj
 0001:000a5aa0       ?CreateBlobExplosion@CLegacyParticles@@QEAAXAEBVVector@@@Z 00000001400a6aa0 f   r_legacyparticles.obj
 0001:000a5e60       ?CreateRocketExplosion@CLegacyParticles@@QEAAXAEBVVector@@I@Z 00000001400a6e60 f   r_legacyparticles.obj
 0001:000a61b0       ?CreateParticleEffect@CLegacyParticles@@QEAAXAEBVVector@@0II@Z 00000001400a71b0 f   r_legacyparticles.obj
 0001:000a6470       ?CreateLavaSplash@CLegacyParticles@@QEAAXAEBVVector@@@Z 00000001400a7470 f   r_legacyparticles.obj
 0001:000a6890       ?CreateTeleportSplash@CLegacyParticles@@QEAAXAEBVVector@@@Z 00000001400a7890 f   r_legacyparticles.obj
 0001:000a6d50       ?CreateRocketTrail@CLegacyParticles@@QEAAXAEBVVector@@0I@Z 00000001400a7d50 f   r_legacyparticles.obj
 0001:000a7740       ?UpdateParticles@CLegacyParticles@@QEAAXXZ 00000001400a8740 f   r_legacyparticles.obj
 0001:000a7dd0       ?DrawParticles@CLegacyParticles@@QEAA_NXZ 00000001400a8dd0 f   r_legacyparticles.obj
 0001:000a8d00       ?Clear@CRenderToTextureCache@@QEAAXW4rs_level_t@@@Z 00000001400a9d00 f   r_rttcache.obj
 0001:000a8f00       ?Alloc@CRenderToTextureCache@@QEAAPEAUrtt_texture_t@@II_NIW4rs_level_t@@@Z 00000001400a9f00 f   r_rttcache.obj
 0001:000a90d0       ?CreateTexture@CRenderToTextureCache@@CAXPEAUrtt_texture_t@@W4rs_level_t@@@Z 00000001400aa0d0 f   r_rttcache.obj
 0001:000a91b0       ?Free@CRenderToTextureCache@@QEAAXPEAUrtt_texture_t@@@Z 00000001400aa1b0 f   r_rttcache.obj
 0001:000a9230       ?Delete@CRenderToTextureCache@@QEAAXPEAUrtt_texture_t@@@Z 00000001400aa230 f   r_rttcache.obj
 0001:000a9290       ??0temp_sprite_t@@QEAA@XZ  00000001400aa290 f i r_sprites.obj
 0001:000a92c0       ??1temp_sprite_t@@QEAA@XZ  00000001400aa2c0 f i r_sprites.obj
 0001:000a92e0       ?Init@CSpriteRenderer@@QEAA_NXZ 00000001400aa2e0 f   r_sprites.obj
 0001:000a9490       ?InitGL@CSpriteRenderer@@QEAA_NXZ 00000001400aa490 f   r_sprites.obj
 0001:000a9950       ?ClearGL@CSpriteRenderer@@QEAAXXZ 00000001400aa950 f   r_sprites.obj
 0001:000a99e0       ?InitGame@CSpriteRenderer@@QEAA_NXZ 00000001400aa9e0 f   r_sprites.obj
 0001:000a9a70       ?ClearGame@CSpriteRenderer@@QEAAXXZ 00000001400aaa70 f   r_sprites.obj
 0001:000a9b80       ?AllocTempSprite@CSpriteRenderer@@QEAAPEAUcl_entity_t@@HM@Z 00000001400aab80 f   r_sprites.obj
 0001:000a9c70       ?BatchSprites@CSpriteRenderer@@AEAAXPEAUcl_entity_t@@I@Z 00000001400aac70 f   r_sprites.obj
 0001:000a9ff0       ?DrawSpriteArrays@CSpriteRenderer@@AEAA_NPEAUcl_entity_t@@I@Z 00000001400aaff0 f   r_sprites.obj
 0001:000aa2c0       ?DrawSprites@CSpriteRenderer@@QEAA_NXZ 00000001400ab2c0 f   r_sprites.obj
 0001:000aad00       ?BatchSprite@CSpriteRenderer@@AEAA_NPEAUcl_entity_t@@@Z 00000001400abd00 f   r_sprites.obj
 0001:000abd30       ?Animate@CSpriteRenderer@@QEAAXXZ 00000001400acd30 f   r_sprites.obj
 0001:000abf60       ?SPR_DrawFunction@@YAXPEAXAEBVVector@@@Z 00000001400acf60 f   r_sprites.obj
 0001:000ac010       ?getBones@vbmmesh_t@@QEBAPEBEPEBUvbmheader_t@@@Z 00000001400ad010 f i r_vbm.obj
 0001:000ac060       ?getVertexes@vbmheader_t@@QEBAPEBUvbmvertex_t@@XZ 00000001400ad060 f i r_vbm.obj
 0001:000ac0a0       ?getIndexes@vbmheader_t@@QEBAPEBIXZ 00000001400ad0a0 f i r_vbm.obj
 0001:000ac0e0       ?getSkinFamilies@vbmheader_t@@QEBAPEBFXZ 00000001400ad0e0 f i r_vbm.obj
 0001:000ac120       ?getHitBox@studiohdr_t@@QEBAPEBUmstudiobbox_t@@H@Z 00000001400ad120 f i r_vbm.obj
 0001:000ac180       ?SetUniform4fv@CGLSLShader@@QEAAXHPEBMI@Z 00000001400ad180 f i r_vbm.obj
 0001:000ac440       ?EnableSync@CGLSLShader@@QEAAXH@Z 00000001400ad440 f i r_vbm.obj
 0001:000ac4f0       ?DisableSync@CGLSLShader@@QEAAXH@Z 00000001400ad4f0 f i r_vbm.obj
 0001:000ac560       ?SetUniformBufferObjectData@CGLSLShader@@QEAAXHPEAXI@Z 00000001400ad560 f i r_vbm.obj
 0001:000ac630       ??0vbmdecal_t@@QEAA@XZ     00000001400ad630 f i r_vbm.obj
 0001:000ac660       ??1vbmdecal_t@@QEAA@XZ     00000001400ad660 f i r_vbm.obj
 0001:000ac700       ??0vbm_attribs@@QEAA@XZ    00000001400ad700 f i r_vbm.obj
 0001:000ac960       ??0CVBMRenderer@@QEAA@XZ   00000001400ad960 f   r_vbm.obj
 0001:000acf70       ?Init@CVBMRenderer@@QEAA_NXZ 00000001400adf70 f   r_vbm.obj
 0001:000ada80       ?InitGL@CVBMRenderer@@QEAA_NXZ 00000001400aea80 f   r_vbm.obj
 0001:000afe10       ?ClearGL@CVBMRenderer@@QEAAXXZ 00000001400b0e10 f   r_vbm.obj
 0001:000afea0       ?ClearGame@CVBMRenderer@@QEAAXXZ 00000001400b0ea0 f   r_vbm.obj
 0001:000aff40       ?CreateVertexTexture@CVBMRenderer@@AEAAXXZ 00000001400b0f40 f   r_vbm.obj
 0001:000b0030       ?DeleteDecals@CVBMRenderer@@AEAAXXZ 00000001400b1030 f   r_vbm.obj
 0001:000b0250       ?SetOrientation@CVBMRenderer@@AEAAXXZ 00000001400b1250 f   r_vbm.obj
 0001:000b0590       ?SetupTransformationMatrix@CVBMRenderer@@AEAAXXZ 00000001400b1590 f   r_vbm.obj
 0001:000b0730       ?ApplyRenderFX@CVBMRenderer@@AEAAXPEAY03M@Z 00000001400b1730 f   r_vbm.obj
 0001:000b0910       ?SetupBones@CVBMRenderer@@AEAA_NH@Z 00000001400b1910 f   r_vbm.obj
 0001:000b1650       ?SetExtraInfo@CVBMRenderer@@AEAAXXZ 00000001400b2650 f   r_vbm.obj
 0001:000b16e0       ?ShouldAnimate@CVBMRenderer@@AEAA_NXZ 00000001400b26e0 f   r_vbm.obj
 0001:000b1990       ?SetModel@CVBMRenderer@@AEAA_NXZ 00000001400b2990 f   r_vbm.obj
 0001:000b1a20       ?DrawModel@CVBMRenderer@@QEAA_NHPEAUcl_entity_t@@@Z 00000001400b2a20 f   r_vbm.obj
 0001:000b1f90       ?CalculateAttachments@CVBMRenderer@@AEAAXXZ 00000001400b2f90 f   r_vbm.obj
 0001:000b20f0       ?AddVBM@CVBMRenderer@@AEAAXPEAUstudiohdr_t@@PEAUvbmheader_t@@@Z 00000001400b30f0 f   r_vbm.obj
 0001:000b2880       ?BuildVBO@CVBMRenderer@@AEAAXXZ 00000001400b3880 f   r_vbm.obj
 0001:000b2d20       ?BlendLightValues@CVBMRenderer@@AEAAXXZ 00000001400b3d20 f   r_vbm.obj
 0001:000b3020       ?SetupLighting@CVBMRenderer@@AEAAXXZ 00000001400b4020 f   r_vbm.obj
 0001:000b5640       ??4entity_lightinfo_t@@QEAAAEAU0@AEBU0@@Z 00000001400b6640 f i r_vbm.obj
 0001:000b5ca0       ?GetModelLights@CVBMRenderer@@AEAAXXZ 00000001400b6ca0 f   r_vbm.obj
 0001:000b6740       ?GetDynamicLights@CVBMRenderer@@AEAAXXZ 00000001400b7740 f   r_vbm.obj
 0001:000b6a00       ?CheckBBox@CVBMRenderer@@AEAA_NXZ 00000001400b7a00 f   r_vbm.obj
 0001:000b73a0       ?Render@CVBMRenderer@@AEAA_NXZ 00000001400b83a0 f   r_vbm.obj
 0001:000b7690       ?SetupRenderer@CVBMRenderer@@AEAA_NXZ 00000001400b8690 f   r_vbm.obj
 0001:000b8370       ?RestoreRenderer@CVBMRenderer@@AEAA_NXZ 00000001400b9370 f   r_vbm.obj
 0001:000b8490       ?CalculateFlexesHW@CVBMRenderer@@AEAAXPEBUvbmsubmodel_t@@@Z 00000001400b9490 f   r_vbm.obj
 0001:000b87d0       ?CalculateFlexesSW@CVBMRenderer@@AEAAXPEBUvbmsubmodel_t@@@Z 00000001400b97d0 f   r_vbm.obj
 0001:000b8d30       ?DrawFirst@CVBMRenderer@@AEAA_NXZ 00000001400b9d30 f   r_vbm.obj
 0001:000b9840       ?DrawMesh@CVBMRenderer@@AEAA_NPEAUen_material_t@@PEBUvbmmesh_t@@_N@Z 00000001400ba840 f   r_vbm.obj
 0001:000ba0e0       ?DrawLights@CVBMRenderer@@AEAA_N_N@Z 00000001400bb0e0 f   r_vbm.obj
 0001:000bbaa0       ??1lightbatch_t@@QEAA@XZ   00000001400bcaa0 f i r_vbm.obj
 0001:000bbad0       ?DrawFinal@CVBMRenderer@@AEAA_NXZ 00000001400bcad0 f   r_vbm.obj
 0001:000bdf40       ?DrawWireframe@CVBMRenderer@@AEAA_NXZ 00000001400bef40 f   r_vbm.obj
 0001:000be880       ?AllocDecalSlot@CVBMRenderer@@AEAAPEAUvbmdecal_t@@XZ 00000001400bf880 f   r_vbm.obj
 0001:000bea20       ??4vbmdecal_t@@QEAAAEAU0@AEBU0@@Z 00000001400bfa20 f i r_vbm.obj
 0001:000beaf0       ?CreateDecal@CVBMRenderer@@QEAAXAEBVVector@@0PEAUdecalgroupentry_t@@PEAUcl_entity_t@@E@Z 00000001400bfaf0 f   r_vbm.obj
 0001:000bf300       ?FinalizeDecalMesh@CVBMRenderer@@AEAAXPEAUvbmdecal_t@@PEAUvbm_decal_mesh_t@@AEAI@Z 00000001400c0300 f   r_vbm.obj
 0001:000bf5e0       ?DecalTriangle@CVBMRenderer@@AEAA_NPEAUvbmdecal_t@@AEAPEAUvbm_decal_mesh_t@@PEAPEBUvbmvertex_t@@PEBEAEBVVector@@4044AEAIEPEAUen_material_t@@@Z 00000001400c05e0 f   r_vbm.obj
 0001:000c0770       ?DeleteDecal@CVBMRenderer@@CAXPEAUvbmdecal_t@@@Z 00000001400c1770 f   r_vbm.obj
 0001:000c0950       ?DrawDecals@CVBMRenderer@@AEAA_NXZ 00000001400c1950 f   r_vbm.obj
 0001:000c1220       ?GetDecalOffsets@CVBMRenderer@@AEAAXIIAEAI0@Z 00000001400c2220 f   r_vbm.obj
 0001:000c13b0       ?DrawFlexedSubmodels@CVBMRenderer@@AEAA_NXZ 00000001400c23b0 f   r_vbm.obj
 0001:000c1630       ?UpdateAttachments@CVBMRenderer@@QEAAXPEAUcl_entity_t@@@Z 00000001400c2630 f   r_vbm.obj
 0001:000c1770       ?GetBonePosition@CVBMRenderer@@QEAA_NPEAUcl_entity_t@@PEBDAEAVVector@@@Z 00000001400c2770 f   r_vbm.obj
 0001:000c1980       ?TransformVectorByBoneMatrix@CVBMRenderer@@QEAAXPEAUcl_entity_t@@HAEAVVector@@_N@Z 00000001400c2980 f   r_vbm.obj
 0001:000c1c30       ?RotateVectorByBoneMatrix@CVBMRenderer@@QEAAXPEAUcl_entity_t@@HAEAVVector@@_N@Z 00000001400c2c30 f   r_vbm.obj
 0001:000c1e90       ?PrepareDraw@CVBMRenderer@@QEAA_NXZ 00000001400c2e90 f   r_vbm.obj
 0001:000c24b0       ?EndDraw@CVBMRenderer@@QEAAXXZ 00000001400c34b0 f   r_vbm.obj
 0001:000c2520       ?PrepareVSM@CVBMRenderer@@QEAA_NPEAUcl_dlight_t@@@Z 00000001400c3520 f   r_vbm.obj
 0001:000c2e40       ?EndVSM@CVBMRenderer@@QEAAXXZ 00000001400c3e40 f   r_vbm.obj
 0001:000c2ec0       ?DrawVSM@CVBMRenderer@@QEAA_NPEAUcl_dlight_t@@PEAPEAUcl_entity_t@@I@Z 00000001400c3ec0 f   r_vbm.obj
 0001:000c3010       ?DrawModelVSM@CVBMRenderer@@QEAA_NPEAUcl_entity_t@@PEAUcl_dlight_t@@@Z 00000001400c4010 f   r_vbm.obj
 0001:000c34c0       ?PrepAuraPass@CVBMRenderer@@QEAA_NXZ 00000001400c44c0 f   r_vbm.obj
 0001:000c3d90       ?FinishAuraPass@CVBMRenderer@@QEAAXXZ 00000001400c4d90 f   r_vbm.obj
 0001:000c3e10       ?DrawAura@CVBMRenderer@@QEAA_NPEAUcl_entity_t@@AEBVVector@@M@Z 00000001400c4e10 f   r_vbm.obj
 0001:000c4140       ?DispatchClientEvents@CVBMRenderer@@AEAAXXZ 00000001400c5140 f   r_vbm.obj
 0001:000c43b0       ?FreeEntityData@CVBMRenderer@@QEAAXPEBUcl_entity_t@@@Z 00000001400c53b0 f   r_vbm.obj
 0001:000c45c0       ?SetupModel@CVBMRenderer@@AEAAXIW4vbmlod_type_t@@@Z 00000001400c55c0 f   r_vbm.obj
 0001:000c46c0       ?GetIdealLOD@CVBMRenderer@@AEAAPEBUvbmsubmodel_t@@PEBU2@W4vbmlod_type_t@@@Z 00000001400c56c0 f   r_vbm.obj
 0001:000c4980       ?DrawBones@CVBMRenderer@@AEAA_NXZ 00000001400c5980 f   r_vbm.obj
 0001:000c4fe0       ?DrawHitBoxes@CVBMRenderer@@AEAA_NXZ 00000001400c5fe0 f   r_vbm.obj
 0001:000c53d0       ?DrawBoundingBox@CVBMRenderer@@AEAA_NXZ 00000001400c63d0 f   r_vbm.obj
 0001:000c56f0       ?DrawLightVectors@CVBMRenderer@@AEAA_NXZ 00000001400c66f0 f   r_vbm.obj
 0001:000c6b50       ?DrawAttachments@CVBMRenderer@@AEAA_NXZ 00000001400c7b50 f   r_vbm.obj
 0001:000c7350       ?DrawHullBoundingBox@CVBMRenderer@@AEAA_NXZ 00000001400c8350 f   r_vbm.obj
 0001:000c7700       ?DrawBox@CVBMRenderer@@AEAAXAEBVVector@@0@Z 00000001400c8700 f   r_vbm.obj
 0001:000c7990       ?BatchVertex@CVBMRenderer@@AEAAXAEBVVector@@@Z 00000001400c8990 f   r_vbm.obj
 0001:000c7a50       ?SetShaderBoneTransform@CVBMRenderer@@AEAAXPEAY2IA@23MPEBEI@Z 00000001400c8a50 f   r_vbm.obj
 0001:000c7b50       ?VBM_FindMaterialScriptByIndex@@YAPEAUen_material_t@@H@Z 00000001400c8b50 f   r_vbm.obj
 0001:000c7bb0       ??1?$CLinkedList@Ulightbatch_t@@@@QEAA@XZ 00000001400c8bb0 f i r_vbm.obj
 0001:000c7be0       ?add@?$CLinkedList@Ulightbatch_t@@@@QEAAPEAUlink_t@1@Ulightbatch_t@@@Z 00000001400c8be0 f i r_vbm.obj
 0001:000c7ec0       ?clear@?$CLinkedList@Ulightbatch_t@@@@QEAAXXZ 00000001400c8ec0 f i r_vbm.obj
 0001:000c8090       ??0water_settings_t@@QEAA@XZ 00000001400c9090 f i r_water.obj
 0001:000c80e0       ?R_WaterQualityCvarCallBack@@YAXPEAVCCVar@@@Z 00000001400c90e0 f   r_water.obj
 0001:000c8130       ?Init@CWaterShader@@QEAA_NXZ 00000001400c9130 f   r_water.obj
 0001:000c85f0       ?InitGL@CWaterShader@@QEAA_NXZ 00000001400c95f0 f   r_water.obj
 0001:000c91a0       ?ClearGL@CWaterShader@@QEAAXXZ 00000001400ca1a0 f   r_water.obj
 0001:000c93f0       ?ClearGame@CWaterShader@@QEAAXXZ 00000001400ca3f0 f   r_water.obj
 0001:000c9710       ?CreateLightmapTexture@CWaterShader@@AEAAXPEAUcl_water_t@@@Z 00000001400ca710 f   r_water.obj
 0001:000c9bb0       ?CreateDepthTexture@CWaterShader@@AEAAXXZ 00000001400cabb0 f   r_water.obj
 0001:000c9ca0       ?ParseScript@CWaterShader@@SAXPEBDPEAUwater_settings_t@@0@Z 00000001400caca0 f   r_water.obj
 0001:000ca870       ?LoadScripts@CWaterShader@@QEAAXXZ 00000001400cb870 f   r_water.obj
 0001:000cb1a0       ?AddEntity@CWaterShader@@QEAAXPEAUcl_entity_t@@@Z 00000001400cc1a0 f   r_water.obj
 0001:000cbf20       ?CreateRenderToTexture@CWaterShader@@AEAA_NPEAUcl_water_t@@@Z 00000001400ccf20 f   r_water.obj
 0001:000cc4e0       ?SetupClipping@CWaterShader@@AEBAXPEBUref_params_t@@_N@Z 00000001400cd4e0 f   r_water.obj
 0001:000ccc10       ?DrawWaterPasses@CWaterShader@@QEAA_NXZ 00000001400cdc10 f   r_water.obj
 0001:000cd8c0       ?GetViewOrigin@CWaterShader@@AEBA?AVVector@@XZ 00000001400ce8c0 f   r_water.obj
 0001:000cdc20       ?SetupRefract@CWaterShader@@AEAAXPEBUwater_settings_t@@@Z 00000001400cec20 f   r_water.obj
 0001:000ce200       ?SetupReflect@CWaterShader@@AEAAXXZ 00000001400cf200 f   r_water.obj
 0001:000ce870       ?DrawWater@CWaterShader@@QEAA_N_N@Z 00000001400cf870 f   r_water.obj
 0001:000cf9b0       ?GetActiveSettings@CWaterShader@@QEBAPEBUwater_settings_t@@XZ 00000001400d09b0 f   r_water.obj
 0001:000cfa10       ?GetWaterSettings@CWaterShader@@AEBAPEBUwater_settings_t@@PEAUcl_water_t@@@Z 00000001400d0a10 f   r_water.obj
 0001:000cfa70       ?resize@?$CArray@Uwater_settings_t@@@@QEAAXI@Z 00000001400d0a70 f i r_water.obj
 0001:000cfcc0       ??1water_settings_t@@QEAA@XZ 00000001400d0cc0 f i r_water.obj
 0001:000d25c0       ?SV_SetModel@@YA_NPEAUedict_t@@PEBD_N@Z 00000001400d35c0 f   sv_entities.obj
 0001:000d29c0       ?SV_SetMinsMaxs@@YAXPEAUedict_t@@AEBVVector@@1@Z 00000001400d39c0 f   sv_entities.obj
 0001:000d2e70       ?SV_SetSize@@YAXPEAUedict_t@@AEBVVector@@@Z 00000001400d3e70 f   sv_entities.obj
 0001:000d2fc0       ?SV_SetOrigin@@YAXPEAUedict_t@@AEBVVector@@@Z 00000001400d3fc0 f   sv_entities.obj
 0001:000d3090       ?SV_AddToTouched@@YAXHAEAUtrace_t@@AEBVVector@@@Z 00000001400d4090 f   sv_entities.obj
 0001:000d31b0       ?SV_GetNumEdicts@@YAHXZ    00000001400d41b0 f   sv_entities.obj
 0001:000d31c0       ?SV_GetEdictByIndex@@YAPEAUedict_t@@H@Z 00000001400d41c0 f   sv_entities.obj
 0001:000d3250       ?SV_InitPrivateData@@YA_NPEAUedict_t@@PEBD@Z 00000001400d4250 f   sv_entities.obj
 0001:000d3290       ?SV_CreateEntity@@YAPEAUedict_t@@PEBD@Z 00000001400d4290 f   sv_entities.obj
 0001:000d33a0       ?SV_RemoveEntity@@YAXPEAUedict_t@@@Z 00000001400d43a0 f   sv_entities.obj
 0001:000d33c0       ?SV_DropToFloor@@YA_NPEAUedict_t@@@Z 00000001400d43c0 f   sv_entities.obj
 0001:000d34f0       ?SV_NPC_WalkMove@@YA_NPEAUedict_t@@MMW4walkmove_t@@@Z 00000001400d44f0 f   sv_entities.obj
 0001:000d35f0       ??0areanode_t@@QEAA@XZ     00000001400d45f0 f i sv_main.obj
 0001:000d3640       ??0sv_client_t@@QEAA@XZ    00000001400d4640 f i sv_main.obj
 0001:000d3880       ??1sv_entitypacket_t@@QEAA@XZ 00000001400d4880 f i sv_main.obj
 0001:000d38b0       ??1sv_upload_t@@QEAA@XZ    00000001400d48b0 f i sv_main.obj
 0001:000d3900       ??0sv_model_t@@QEAA@XZ     00000001400d4900 f i sv_main.obj
 0001:000d3920       ??0serverstate_t@@QEAA@XZ  00000001400d4920 f i sv_main.obj
 0001:000d3db0       ??1serverstate_t@@QEAA@XZ  00000001400d4db0 f i sv_main.obj
 0001:000d4100       ??1sv_client_t@@QEAA@XZ    00000001400d5100 f i sv_main.obj
 0001:000d41c0       ??1sv_netinfo_t@@QEAA@XZ   00000001400d51c0 f i sv_main.obj
 0001:000d42a0       ??1sv_levelchangeinfo_t@@QEAA@XZ 00000001400d52a0 f i sv_main.obj
 0001:000d4330       ??0vbmhull_t@@QEAA@XZ      00000001400d5330 f i sv_main.obj
 0001:000d4350       ??0entity_vbmhulldata_t@@QEAA@XZ 00000001400d5350 f i sv_main.obj
 0001:000d4400       ?SV_Init@@YA_NXZ           00000001400d5400 f   sv_main.obj
 0001:000d52c0       ?SV_LinkMapTextureMaterials@@YAXAEAV?$CArray@VCString@@@@@Z 00000001400d62c0 f   sv_main.obj
 0001:000d5ab0       ?SV_ClearNetworking@@YAXXZ 00000001400d6ab0 f   sv_main.obj
 0001:000d5af0       ?SV_RestoreTransitionSave@@YA_NPEBUsave_header_t@@@Z 00000001400d6af0 f   sv_main.obj
 0001:000d5e30       ?SV_MaxPlayersCvarCallBack@@YAXPEAVCCVar@@@Z 00000001400d6e30 f   sv_main.obj
 0001:000d5ec0       ?SV_SpawnGame@@YA_NPEBD00_N@Z 00000001400d6ec0 f   sv_main.obj
 0001:000d70b0       ?SV_ClearClient@@YAXAEAUsv_client_t@@@Z 00000001400d80b0 f   sv_main.obj
 0001:000d7410       ??_Gusermsgdata_t@@QEAAPEAXI@Z 00000001400d8410 f i sv_main.obj
 0001:000d7440       ?SV_ClearGame@@YAX_N0@Z    00000001400d8440 f   sv_main.obj
 0001:000d79d0       ?SV_DropClient@@YAXAEAUsv_client_t@@PEBD@Z 00000001400d89d0 f   sv_main.obj
 0001:000d7b60       ?SV_CheckMoveVars@@YAXAEAUsv_client_t@@@Z 00000001400d8b60 f   sv_main.obj
 0001:000d7ef0       ?SV_CheckMovingGround@@YAXPEAUedict_t@@N@Z 00000001400d8ef0 f   sv_main.obj
 0001:000d80b0       ?SV_RunCmd@@YAXAEAUusercmd_t@@AEAUsv_client_t@@@Z 00000001400d90b0 f   sv_main.obj
 0001:000d84b0       ?SV_UpdateClients@@YAXXZ   00000001400d94b0 f   sv_main.obj
 0001:000d8a40       ?SV_Frame@@YAXXZ           00000001400d9a40 f   sv_main.obj
 0001:000d8ce0       ?SV_PrecacheModel@@YAHPEBD@Z 00000001400d9ce0 f   sv_main.obj
 0001:000d8fb0       ?SV_SetPAS@@YAPEAEAEBVVector@@@Z 00000001400d9fb0 f   sv_main.obj
 0001:000d8ff0       ?SV_SetPVS@@YAPEAEAEBVVector@@@Z 00000001400d9ff0 f   sv_main.obj
 0001:000d9030       ?SV_SpawnClient@@YA_NAEAUsv_client_t@@@Z 00000001400da030 f   sv_main.obj
 0001:000d9590       ?SV_TraceTexture@@YAPEBDHAEBVVector@@0@Z 00000001400da590 f   sv_main.obj
 0001:000d9660       ?SV_SetGroupMask@@YAXHH@Z  00000001400da660 f   sv_main.obj
 0001:000d9670       ?SV_NameForFunction@@YAPEBDPEBX@Z 00000001400da670 f   sv_main.obj
 0001:000d9720       ?SV_FunctionFromName@@YAPEAXPEBD@Z 00000001400da720 f   sv_main.obj
 0001:000d9840       ?SV_AddEnforcedConsistencyFile@@YAXPEBD@Z 00000001400da840 f   sv_main.obj
 0001:000d9a10       ?SV_AllocString@@YAIPEBD@Z 00000001400daa10 f   sv_main.obj
 0001:000d9c30       ?SV_GetString@@YAPEBDI@Z   00000001400dac30 f   sv_main.obj
 0001:000d9cc0       ?SV_ServerCommand@@YAXPEBD@Z 00000001400dacc0 f   sv_main.obj
 0001:000d9dc0       ?SV_ClientCommand@@YAXPEAUedict_t@@PEBD@Z 00000001400dadc0 f   sv_main.obj
 0001:000d9eb0       ?SV_GetBonePositionByName@@YA_NPEAUedict_t@@PEBDAEAVVector@@@Z 00000001400daeb0 f   sv_main.obj
 0001:000da150       ?SV_GetBonePositionByIndex@@YA_NPEAUedict_t@@IAEAVVector@@@Z 00000001400db150 f   sv_main.obj
 0001:000da370       ?SV_GetAttachment@@YA_NPEAUedict_t@@IAEAVVector@@@Z 00000001400db370 f   sv_main.obj
 0001:000da5c0       ?SV_GetMapTextureMaterial@@YAPEBUen_material_t@@PEBD@Z 00000001400db5c0 f   sv_main.obj
 0001:000da700       ?SV_PrecacheGeneric@@YAXPEBD@Z 00000001400db700 f   sv_main.obj
 0001:000da8e0       ?SV_GetSoundDuration@@YAMPEBDI@Z 00000001400db8e0 f   sv_main.obj
 0001:000dac80       ?SV_GetOGGFileDuration@@YAMPEBD@Z 00000001400dbc80 f   sv_main.obj
 0001:000daf90       ?SV_GetWAVFileDuration@@YAMPEBD@Z 00000001400dbf90 f   sv_main.obj
 0001:000db1b0       ?SV_GetModelFrameCount@@YA_KH@Z 00000001400dc1b0 f   sv_main.obj
 0001:000db220       ?SV_SetLevelSavefile@@YAXPEBD0@Z 00000001400dc220 f   sv_main.obj
 0001:000db3d0       ?SV_AddLevelConnection@@YAXPEBD000@Z 00000001400dc3d0 f   sv_main.obj
 0001:000dbf40       ??1sv_levelinfo_t@@QEAA@XZ 00000001400dcf40 f i sv_main.obj
 0001:000dbfa0       ?SV_BeginLevelChange@@YAXPEBD0AEBVVector@@@Z 00000001400dcfa0 f   sv_main.obj
 0001:000dc290       ?SV_PerformLevelChange@@YAXPEBD0@Z 00000001400dd290 f   sv_main.obj
 0001:000dcfc0       ??1saveddecal_t@@QEAA@XZ   00000001400ddfc0 f i sv_main.obj
 0001:000dcfe0       ?SV_GetTransitionList@@YAXPEAPEBHAEAI@Z 00000001400ddfe0 f   sv_main.obj
 0001:000dd000       ?SV_ClearLevelChange@@YAXXZ 00000001400de000 f   sv_main.obj
 0001:000dd150       ?SV_EndGame@@YAXPEBD@Z     00000001400de150 f   sv_main.obj
 0001:000dd1e0       ?SV_RestoreSavedDecals@@YAXXZ 00000001400de1e0 f   sv_main.obj
 0001:000dd5e0       ?SV_AddSavedDecal@@YAXAEBVVector@@0HPEBDH@Z 00000001400de5e0 f   sv_main.obj
 0001:000dd970       ?SV_NewCheckClient@@YAHH@Z 00000001400de970 f   sv_main.obj
 0001:000ddb00       ?SV_FindClientInPVS@@YAPEAUedict_t@@PEBU1@@Z 00000001400deb00 f   sv_main.obj
 0001:000ddcd0       ?add@?$CLinkedList@Usaveddecal_t@@@@QEAAPEAUlink_t@1@Usaveddecal_t@@@Z 00000001400decd0 f i sv_main.obj
 0001:000dddc0       ?clear@?$CLinkedList@Usaveddecal_t@@@@QEAAXXZ 00000001400dedc0 f i sv_main.obj
 0001:000ddfa0       ?resize@?$CArray@Uareanode_t@@@@QEAAXI@Z 00000001400defa0 f i sv_main.obj
 0001:000de120       ?clear@?$CLinkedList@Usv_levelinfo_t@@@@QEAAXXZ 00000001400df120 f i sv_main.obj
 0001:000de320       ??1areanode_t@@QEAA@XZ     00000001400df320 f i sv_main.obj
 0001:000de370       ??4sv_levelinfo_t@@QEAAAEAU0@AEBU0@@Z 00000001400df370 f i sv_main.obj
 0001:000de4e0       ??4?$CLinkedList@PEAUedict_t@@@@QEAAAEAV0@AEBV0@@Z 00000001400df4e0 f i sv_main.obj
 0001:000de590       ?clear@?$CLinkedList@Usv_level_connection_t@@@@QEAAXXZ 00000001400df590 f i sv_main.obj
 0001:000de780       ?resize@?$CArray@Usv_model_t@@@@QEAAXI@Z 00000001400df780 f i sv_main.obj
 0001:000de910       ?SV_LinkEdict@@YAXPEAUedict_t@@_N@Z 00000001400df910 f   sv_world.obj
 0001:000dec20       ?SV_HullForBSP@@YAPEBUhull_t@@PEBUedict_t@@AEBVVector@@1PEAV3@W4hull_types_t@@@Z 00000001400dfc20 f   sv_world.obj
 0001:000dee30       ?SV_HullForBSP@@YAPEBUhull_t@@HW4hull_types_t@@PEAVVector@@@Z 00000001400dfe30 f   sv_world.obj
 0001:000defa0       ?SV_TouchLinks@@YAXPEAUedict_t@@PEAUareanode_t@@@Z 00000001400dffa0 f   sv_world.obj
 0001:000df2c0       ?SV_CreateAreaNode@@YAPEAUareanode_t@@HAEBVVector@@0@Z 00000001400e02c0 f   sv_world.obj
 0001:000df500       ?SV_LinkContents@@YAHAEAUareanode_t@@AEBVVector@@@Z 00000001400e0500 f   sv_world.obj
 0001:000dfa50       ?SV_HullForEntity@@YAPEBUhull_t@@PEBUedict_t@@AEBVVector@@1PEAV3@W4hull_types_t@@@Z 00000001400e0a50 f   sv_world.obj
 0001:000dfba0       ?SV_SingleClipMoveToEntity@@YAXPEAUedict_t@@AEBVVector@@111AEAUtrace_t@@HW4hull_types_t@@@Z 00000001400e0ba0 f   sv_world.obj
 0001:000dff50       ?SV_SingleClipMoveToEntityPoint@@YAXPEAUedict_t@@AEBVVector@@1HAEAUtrace_t@@@Z 00000001400e0f50 f   sv_world.obj
 0001:000e0430       ?SV_PointContents@@YAHAEBVVector@@PEAH@Z 00000001400e1430 f   sv_world.obj
 0001:000e04d0       ?SV_TruePointContents@@YAHAEBVVector@@@Z 00000001400e14d0 f   sv_world.obj
 0001:000e04f0       ?SV_ClipToLinks@@YAXAEAUareanode_t@@AEAUmoveclip_t@@HW4hull_types_t@@@Z 00000001400e14f0 f   sv_world.obj
 0001:000e08f0       ?SV_ClipToWorldBrush@@YAXAEAUareanode_t@@AEAUmoveclip_t@@HW4hull_types_t@@@Z 00000001400e18f0 f   sv_world.obj
 0001:000e0b90       ?SV_ClipToLinksPoint@@YAXAEAUareanode_t@@AEAUmoveclip_t@@H@Z 00000001400e1b90 f   sv_world.obj
 0001:000e0fc0       ?SV_Move@@YAXAEAUtrace_t@@AEBVVector@@111HPEAUedict_t@@W4hull_types_t@@@Z 00000001400e1fc0 f   sv_world.obj
 0001:000e1540       ?SV_MoveNoEntities@@YAXAEAUtrace_t@@AEBVVector@@111HPEAUedict_t@@W4hull_types_t@@@Z 00000001400e2540 f   sv_world.obj
 0001:000e1a80       ?SV_Move_Point@@YAXAEAUtrace_t@@AEBVVector@@1HPEAUedict_t@@@Z 00000001400e2a80 f   sv_world.obj
 0001:000e1ee0       ?SV_TestEntityPosition@@YAPEAUedict_t@@PEAU1@W4hull_types_t@@@Z 00000001400e2ee0 f   sv_world.obj
 0001:000e20c0       ?SV_TestPlayerPosition@@YAHW4hull_types_t@@HAEBVVector@@@Z 00000001400e30c0 f   sv_world.obj
 0001:000e2150       ?SV_PlayerTrace@@YAXAEBVVector@@0HW4hull_types_t@@HAEAUtrace_t@@@Z 00000001400e3150 f   sv_world.obj
 0001:000e2650       ?SV_TraceLine@@YAXAEBVVector@@0HW4hull_types_t@@HAEAUtrace_t@@@Z 00000001400e3650 f   sv_world.obj
 0001:000e2780       ?SV_TraceModel@@YAMHAEBVVector@@0W4hull_types_t@@HAEAUtrace_t@@@Z 00000001400e3780 f   sv_world.obj
 0001:000e2910       ??0sv_sound_t@@QEAA@XZ     00000001400e3910 f i sv_msg.obj
 0001:000e2930       ?SV_SendClientData@@YA_NPEAUsv_client_t@@@Z 00000001400e3930 f   sv_msg.obj
 0001:000e3200       ?SV_WriteEntitiesToClient@@YA_NPEAUsv_client_t@@@Z 00000001400e4200 f   sv_msg.obj
 0001:000e60e0       ?SV_WriteMoveVars@@YAXAEBUsv_client_t@@@Z 00000001400e70e0 f   sv_msg.obj
 0001:000e65b0       ?SV_SendResourceLists@@YA_NAEAUsv_client_t@@@Z 00000001400e75b0 f   sv_msg.obj
 0001:000e7680       ?SV_PrecacheSound@@YAHPEBD@Z 00000001400e8680 f   sv_msg.obj
 0001:000e7c20       ?SV_PrecacheParticleScript@@YA_NPEBDW4part_script_type_t@@@Z 00000001400e8c20 f   sv_msg.obj
 0001:000e7f60       ?SV_PrecacheDecal@@YAXPEBD@Z 00000001400e8f60 f   sv_msg.obj
 0001:000e8200       ?SV_PrecacheDecalGroup@@YAXPEBD@Z 00000001400e9200 f   sv_msg.obj
 0001:000e84a0       ?SV_PlayEntitySound@@YAXHPEBDHHMMHMH@Z 00000001400e94a0 f   sv_msg.obj
 0001:000e8990       ?SV_PlayAmbientSound@@YAXHPEBDAEBVVector@@HMMHMH@Z 00000001400e9990 f   sv_msg.obj
 0001:000e8f10       ?SV_ApplySoundEffect@@YAXHPEBDHW4snd_effects_t@@MMH@Z 00000001400e9f10 f   sv_msg.obj
 0001:000e92a0       ?SV_StopEntitySounds@@YAXHHH@Z 00000001400ea2a0 f   sv_msg.obj
 0001:000e9410       ?SV_SetRoomType@@YAXH@Z    00000001400ea410 f   sv_msg.obj
 0001:000e94c0       ?SV_MuteAllSounds@@YAX_N@Z 00000001400ea4c0 f   sv_msg.obj
 0001:000e9570       ?SV_PlayMusic@@YAXPEBDHHMMH@Z 00000001400ea570 f   sv_msg.obj
 0001:000e9710       ?SV_StopMusic@@YAXHPEBDHM@Z 00000001400ea710 f   sv_msg.obj
 0001:000e98b0       ?SV_CheckFileConsistency@@YA_NAEAUsv_client_t@@PEBD1@Z 00000001400ea8b0 f   sv_msg.obj
 0001:000e9ae0       ?SV_AddClientConsistencyCheck@@YAXAEAUsv_client_t@@W4rs_type_t@@PEBD@Z 00000001400eaae0 f   sv_msg.obj
 0001:000e9e10       ?SV_ReadUserCmd@@YAXAEAUsv_client_t@@@Z 00000001400eae10 f   sv_msg.obj
 0001:000ea0c0       ?SV_ReadClientInfo@@YA_NAEAUsv_client_t@@@Z 00000001400eb0c0 f   sv_msg.obj
 0001:000ea570       ?SV_ValidateClientCommand@@YA_NPEBD@Z 00000001400eb570 f   sv_msg.obj
 0001:000ea7b0       ?SV_ChunkSizeCvarCallBack@@YAXPEAVCCVar@@@Z 00000001400eb7b0 f   sv_msg.obj
 0001:000ea850       ?SV_ClearUpload@@YAXAEAUsv_client_t@@@Z 00000001400eb850 f   sv_msg.obj
 0001:000ea930       ?SV_UploadNextChunk@@YA_NAEAUsv_client_t@@@Z 00000001400eb930 f   sv_msg.obj
 0001:000eaae0       ?SV_PrepareUpload@@YA_NAEAUsv_client_t@@@Z 00000001400ebae0 f   sv_msg.obj
 0001:000eae20       ?SV_ReadClientMessages@@YA?AW4sv_clstate_t@@AEAUsv_client_t@@@Z 00000001400ebe20 f   sv_msg.obj
 0001:000eb4b0       ?SV_ClientPrintf@@YAXPEBUedict_t@@PEBDZZ 00000001400ec4b0 f   sv_msg.obj
 0001:000eb5d0       ?SV_RegisterClientUserMessage@@YAXXZ 00000001400ec5d0 f   sv_msg.obj
 0001:000eb950       ?SV_RegisterUserMessage@@YAHPEBDH@Z 00000001400ec950 f   sv_msg.obj
 0001:000eb970       ?SV_UserMessageBegin@@YAXW4msgdest_t@@HPEBVVector@@PEBUedict_t@@@Z 00000001400ec970 f   sv_msg.obj
 0001:000eba90       ?SV_UserMessageEnd@@YAXXZ  00000001400eca90 f   sv_msg.obj
 0001:000ebd20       ?SV_SendUserMessages@@YA_NAEAUsv_client_t@@@Z 00000001400ecd20 f   sv_msg.obj
 0001:000ebef0       ?SV_ClientRegisterUserMessages@@YAXAEBUsv_client_t@@@Z 00000001400ecef0 f   sv_msg.obj
 0001:000ec010       ?SV_Msg_WriteByte@@YAXE@Z  00000001400ed010 f   sv_msg.obj
 0001:000ec080       ?SV_Msg_WriteChar@@YAXD@Z  00000001400ed080 f   sv_msg.obj
 0001:000ec100       ?SV_Msg_WriteInt16@@YAXF@Z 00000001400ed100 f   sv_msg.obj
 0001:000ec190       ?SV_Msg_WriteUint16@@YAXG@Z 00000001400ed190 f   sv_msg.obj
 0001:000ec220       ?SV_Msg_WriteInt32@@YAXH@Z 00000001400ed220 f   sv_msg.obj
 0001:000ec2a0       ?SV_Msg_WriteUint32@@YAXI@Z 00000001400ed2a0 f   sv_msg.obj
 0001:000ec320       ?SV_Msg_WriteInt64@@YAX_J@Z 00000001400ed320 f   sv_msg.obj
 0001:000ec3b0       ?SV_Msg_WriteUint64@@YAX_K@Z 00000001400ed3b0 f   sv_msg.obj
 0001:000ec440       ?SV_Msg_WriteSmallFloat@@YAXM@Z 00000001400ed440 f   sv_msg.obj
 0001:000ec470       ?SV_Msg_WriteFloat@@YAXM@Z 00000001400ed470 f   sv_msg.obj
 0001:000ec4f0       ?SV_Msg_WriteDouble@@YAXN@Z 00000001400ed4f0 f   sv_msg.obj
 0001:000ec570       ?SV_Msg_WriteBuffer@@YAXPEBEI@Z 00000001400ed570 f   sv_msg.obj
 0001:000ec5a0       ?SV_Msg_WriteString@@YAXPEBD@Z 00000001400ed5a0 f   sv_msg.obj
 0001:000ec5d0       ?SV_Msg_WriteEntindex@@YAXH@Z 00000001400ed5d0 f   sv_msg.obj
 0001:000ec650       ?SV_FindUserMessageByName@@YAIPEBD@Z 00000001400ed650 f   sv_msg.obj
 0001:000ec740       ?remove@?$CLinkedList@VCString@@@@QEAA_NVCString@@@Z 00000001400ed740 f i sv_msg.obj
 0001:000ec870       ?resize@?$CArray@Usv_sound_t@@@@QEAAXI@Z 00000001400ed870 f i sv_msg.obj
 0001:000eca20       ?SV_Physics_Init@@YAXXZ    00000001400eda20 f   sv_physics.obj
 0001:000ed360       ?SV_CheckVelocity@@YAXPEAUedict_t@@@Z 00000001400ee360 f   sv_physics.obj
 0001:000ed610       ?SV_ClipVelocity@@YAXAEBVVector@@0AEAV1@M@Z 00000001400ee610 f   sv_physics.obj
 0001:000ed6c0       ?SV_FlyMove@@YAXPEAUedict_t@@NM@Z 00000001400ee6c0 f   sv_physics.obj
 0001:000ee110       ?SV_CheckWater@@YA_NPEAUedict_t@@@Z 00000001400ef110 f   sv_physics.obj
 0001:000ee6a0       ?SV_RecursiveWaterLevel@@YAMAEBVVector@@MMH@Z 00000001400ef6a0 f   sv_physics.obj
 0001:000ee880       ?SV_Submerged@@YAMPEAUedict_t@@@Z 00000001400ef880 f   sv_physics.obj
 0001:000eeb00       ?SV_CheckWaterTransition@@YAXPEAUedict_t@@@Z 00000001400efb00 f   sv_physics.obj
 0001:000ef0c0       ?SV_CheckGround@@YA_NPEAUedict_t@@@Z 00000001400f00c0 f   sv_physics.obj
 0001:000ef2e0       ?SV_CheckBottomPrecise@@YA_NPEAUedict_t@@AEBVVector@@1@Z 00000001400f02e0 f   sv_physics.obj
 0001:000ef540       ?SV_CheckBottom@@YA_NPEAUedict_t@@@Z 00000001400f0540 f   sv_physics.obj
 0001:000ef7a0       ?SV_AddGravity@@YAXPEAUedict_t@@@Z 00000001400f07a0 f   sv_physics.obj
 0001:000ef850       ?SV_Impact@@YAXPEAUedict_t@@0AEBUtrace_t@@@Z 00000001400f0850 f   sv_physics.obj
 0001:000efac0       ?SV_PushRotate@@YA_NPEAUedict_t@@M@Z 00000001400f0ac0 f   sv_physics.obj
 0001:000f0770       ?SV_PushMove_UnstickGroundEntity@@YA_NPEAUedict_t@@0AEBVVector@@1@Z 00000001400f1770 f   sv_physics.obj
 0001:000f0b70       ?SV_PushMove@@YAXPEAUedict_t@@M@Z 00000001400f1b70 f   sv_physics.obj
 0001:000f1400       ?SV_RunThink@@YA_NPEAUedict_t@@@Z 00000001400f2400 f   sv_physics.obj
 0001:000f14a0       ?SV_Physics_ManageParentage@@YAXPEAUedict_t@@@Z 00000001400f24a0 f   sv_physics.obj
 0001:000f1680       ?SV_Physics_Pusher@@YAXPEAUedict_t@@@Z 00000001400f2680 f   sv_physics.obj
 0001:000f18f0       ?SV_Physics_Follow@@YAXPEAUedict_t@@@Z 00000001400f28f0 f   sv_physics.obj
 0001:000f1a90       ?SV_Physics_Step@@YAXPEAUedict_t@@@Z 00000001400f2a90 f   sv_physics.obj
 0001:000f2060       ?SV_Physics_Toss@@YAXPEAUedict_t@@@Z 00000001400f3060 f   sv_physics.obj
 0001:000f2300       ?SV_Physics_Bounce@@YAXPEAUedict_t@@@Z 00000001400f3300 f   sv_physics.obj
 0001:000f2ba0       ?SV_Physics@@YAXXZ         00000001400f3ba0 f   sv_physics.obj
 0001:000f30f0       ?resize@?$CArray@Usaved_move_t@@@@QEAAXI@Z 00000001400f40f0 f i sv_physics.obj
 0001:000f3360       ??0mspriteframedesc_t@@QEAA@XZ 00000001400f4360 f i sprite.obj
 0001:000f3370       ?Sprite_LoadFrame@@YAPEAUmspriteframe_t@@PEBUdspriteframe_t@@PEBE@Z 00000001400f4370 f   sprite.obj
 0001:000f3430       ?Sprite_Load@@YAPEAUmsprite_t@@PEBEI@Z 00000001400f4430 f   sprite.obj
 0001:000f38b0       ?Sprite_GetFrame@@YAPEBUmspriteframe_t@@PEBUmsprite_t@@IM@Z 00000001400f48b0 f   sprite.obj
 0001:000f3a40       ?resize@?$CArray@Umspriteframedesc_t@@@@QEAAXI@Z 00000001400f4a40 f i sprite.obj
 0001:000f3bd0       ?SV_NPC_MoveTest@@YA_NPEAUedict_t@@AEBVVector@@_N@Z 00000001400f4bd0 f   sv_move.obj
 0001:000f3e70       ?SV_NPC_MoveStep@@YA_NPEAUedict_t@@AEBVVector@@_N2@Z 00000001400f4e70 f   sv_move.obj
 0001:000f4c30       ?SV_NPC_StepDirection@@YA_NPEAUedict_t@@MM@Z 00000001400f5c30 f   sv_move.obj
 0001:000f4ce0       ?SV_NPC_NewChaseDir@@YAXPEAUedict_t@@AEBVVector@@M@Z 00000001400f5ce0 f   sv_move.obj
 0001:000f5050       ?SV_NPC_MoveToOrigin@@YAXPEAUedict_t@@AEBVVector@@MMW4npc_movetype_t@@@Z 00000001400f6050 f   sv_move.obj
 0001:000f51d0       ?GetSchemaFontSet@CTextSchemas@@QEAAPEBUfont_set_t@@PEBD@Z 00000001400f61d0 f   textschemas.obj
 0001:000f5320       ?GetResolutionSchemaFontSet@CTextSchemas@@QEAAPEBUfont_set_t@@PEBDI@Z 00000001400f6320 f   textschemas.obj
 0001:000f54f0       ?LoadSchema@CTextSchemas@@AEAAPEBUtextschema_t@1@PEBD@Z 00000001400f64f0 f   textschemas.obj
 0001:000f7410       ??1textschema_t@CTextSchemas@@QEAA@XZ 00000001400f8410 f i textschemas.obj
 0001:000f7480       ?clear@?$CLinkedList@Utextschema_t@CTextSchemas@@@@QEAAXXZ 00000001400f8480 f i textschemas.obj
 0001:000f7640       ?resize@?$CArray@Utext_reschema_t@CTextSchemas@@@@QEAAXI@Z 00000001400f8640 f i textschemas.obj
 0001:000f7770       ??0usermsg_t@@QEAA@XZ      00000001400f8770 f i usermsg.obj
 0001:000f7790       ?UserMSG_RegisterUserMessage@@YAHAEAV?$CArray@Uusermsg_t@@@@PEBDH@Z 00000001400f8790 f   usermsg.obj
 0001:000f79e0       ?UserMSG_UserMessageBegin@@YAXAEAV?$CArray@Uusermsg_t@@@@AEAUusermsgdata_t@@W4msgdest_t@@HPEBVVector@@PEBUedict_t@@@Z 00000001400f89e0 f   usermsg.obj
 0001:000f7ad0       ?UserMSG_Msg_CheckBuffer@@YAXAEAUusermsgdata_t@@I@Z 00000001400f8ad0 f   usermsg.obj
 0001:000f7bb0       ?UserMSG_Msg_WriteUint16@@YAXAEAUusermsgdata_t@@G@Z 00000001400f8bb0 f   usermsg.obj
 0001:000f7c10       ?UserMSG_Msg_WriteSmallFloat@@YAXAEAUusermsgdata_t@@M@Z 00000001400f8c10 f   usermsg.obj
 0001:000f7c90       ?UserMSG_Msg_WriteBuffer@@YAXAEAUusermsgdata_t@@PEBEI@Z 00000001400f8c90 f   usermsg.obj
 0001:000f7d20       ?UserMSG_Msg_WriteString@@YAXAEAUusermsgdata_t@@PEBD@Z 00000001400f8d20 f   usermsg.obj
 0001:000f7e10       ?resize@?$CArray@Uusermsg_t@@@@QEAAXI@Z 00000001400f8e10 f i usermsg.obj
 0001:000f7fb0       ?TR_VBMInitHulls@@YAXPEBUstudiohdr_t@@W4hull_types_t@@AEAUentity_vbmhulldata_t@@@Z 00000001400f8fb0 f   vbmtrace.obj
 0001:000f81c0       ?TR_VBMCheckHullInfo@@YA_NPEAUentity_vbmhulldata_t@@PEBUcache_model_t@@MAEBUentity_state_t@@@Z 00000001400f91c0 f   vbmtrace.obj
 0001:000f82e0       ?TR_VBMSetupBones@@YAXPEAUentity_vbmhulldata_t@@PEBUstudiohdr_t@@MMPEBUmstudioseqdesc_t@@PEBUcache_model_t@@AEBUentity_state_t@@@Z 00000001400f92e0 f   vbmtrace.obj
 0001:000f9020       ?TR_VBMSetStateInfo@@YAXPEAUentity_vbmhulldata_t@@PEBUcache_model_t@@MAEBUentity_state_t@@@Z 00000001400fa020 f   vbmtrace.obj
 0001:000f90a0       ?TR_VBMSetHullInfo@@YAXAEAPEAUentity_vbmhulldata_t@@PEBUcache_model_t@@AEBVVector@@2AEBUentity_state_t@@MW4hull_types_t@@@Z 00000001400fa0a0 f   vbmtrace.obj
 0001:000f9990       ?TR_VBMGetHulls@@YAPEBV?$CArray@Uvbmhitboxhull_t@@@@PEAUentity_vbmhulldata_t@@AEBVVector@@1W4hull_types_t@@HPEAV3@@Z 00000001400fa990 f   vbmtrace.obj
 0001:000f9ad0       ?TR_VBMHullCheck@@YAXPEBV?$CArray@Uvbmhitboxhull_t@@@@AEBVVector@@1AEAUtrace_t@@@Z 00000001400faad0 f   vbmtrace.obj
 0001:000f9c70       ?resize@?$CArray@Uvbmhitboxhull_t@@@@QEAAXI@Z 00000001400fac70 f i vbmtrace.obj
 0001:000fa040       ?LoadSaveFile@CSaveRestore@@QEAAPEBEPEBDPEAI@Z 00000001400fb040 f   saverestore.obj
 0001:000fa100       ?CleanSaveFiles@CSaveRestore@@AEAAXPEBD@Z 00000001400fb100 f   saverestore.obj
 0001:000faaa0       ?GetMostRecentSave@CSaveRestore@@QEAA_NPEAVCString@@@Z 00000001400fbaa0 f   saverestore.obj
 0001:000fb0c0       ?LoadGlobalsFromSaveFile@CSaveRestore@@QEAAXPEBUsave_header_t@@@Z 00000001400fc0c0 f   saverestore.obj
 0001:000fb140       ?LoadConnectionsFromSaveFile@CSaveRestore@@QEAAXPEBUsave_header_t@@@Z 00000001400fc140 f   saverestore.obj
 0001:000fb210       ?LoadSaveData@CSaveRestore@@QEAA_NPEBUsave_header_t@@PEBVVector@@@Z 00000001400fc210 f   saverestore.obj
 0001:000fc890       ?CreateSaveFile@CSaveRestore@@QEAA_NPEBDW4savefile_type_t@@PEBVVector@@PEAVCString@@_N@Z 00000001400fd890 f   saverestore.obj
 0001:000fea90       ?SaveEntity@CSaveRestore@@AEAAXPEAUedict_t@@AEAUsave_edict_info_t@@@Z 00000001400ffa90 f   saverestore.obj
 0001:000fecb0       ?SaveToStringBuffer@CSaveRestore@@AEAAAEAUsave_block_t@@PEBD@Z 00000001400ffcb0 f   saverestore.obj
 0001:000fef90       ?SaveToDataBuffer@CSaveRestore@@AEAAAEAUsave_block_t@@PEBEH@Z 00000001400fff90 f   saverestore.obj
 0001:000ff0f0       ?SaveField@CSaveRestore@@AEAAPEAUsave_field_t@@PEBDW4entfieldtype_t@@AEBI@Z 00000001401000f0 f   saverestore.obj
 0001:000ff1b0       ?Save_WriteBool@@YAXPEBDPEBEIW4entfieldtype_t@@@Z 00000001401001b0 f   saverestore.obj
 0001:000ff230       ?Save_WriteByte@@YAXPEBDPEBEIW4entfieldtype_t@@@Z 0000000140100230 f   saverestore.obj
 0001:000ff230       ?Save_WriteChar@@YAXPEBDPEBEIW4entfieldtype_t@@@Z 0000000140100230 f   saverestore.obj
 0001:000ff290       ?Save_WriteInt16@@YAXPEBDPEBEIW4entfieldtype_t@@@Z 0000000140100290 f   saverestore.obj
 0001:000ff290       ?Save_WriteUint16@@YAXPEBDPEBEIW4entfieldtype_t@@@Z 0000000140100290 f   saverestore.obj
 0001:000ff310       ?Save_WriteInt32@@YAXPEBDPEBEIW4entfieldtype_t@@@Z 0000000140100310 f   saverestore.obj
 0001:000ff310       ?Save_WriteUint32@@YAXPEBDPEBEIW4entfieldtype_t@@@Z 0000000140100310 f   saverestore.obj
 0001:000ff390       ?Save_WriteInt64@@YAXPEBDPEBEIW4entfieldtype_t@@@Z 0000000140100390 f   saverestore.obj
 0001:000ff390       ?Save_WriteUint64@@YAXPEBDPEBEIW4entfieldtype_t@@@Z 0000000140100390 f   saverestore.obj
 0001:000ff410       ?Save_WriteFloat@@YAXPEBDPEBEIW4entfieldtype_t@@@Z 0000000140100410 f   saverestore.obj
 0001:000ff490       ?Save_WriteDouble@@YAXPEBDPEBEIW4entfieldtype_t@@@Z 0000000140100490 f   saverestore.obj
 0001:000ff510       ?Save_WriteTime@@YAXPEBDPEBEIW4entfieldtype_t@@@Z 0000000140100510 f   saverestore.obj
 0001:000ff5c0       ?Save_WriteString@@YAXPEBDPEBEIW4entfieldtype_t@@@Z 00000001401005c0 f   saverestore.obj
 0001:000ff640       ?Save_WriteRawString@@YAXPEBDPEBEW4entfieldtype_t@@@Z 0000000140100640 f   saverestore.obj
 0001:000ff6a0       ?Save_WriteVector@@YAXPEBDPEBEIW4entfieldtype_t@@@Z 00000001401006a0 f   saverestore.obj
 0001:000ff740       ?Save_WriteCoord@@YAXPEBDPEBEIW4entfieldtype_t@@@Z 0000000140100740 f   saverestore.obj
 0001:000ff810       ?Save_WriteEntindex@@YAXPEBDPEBEIW4entfieldtype_t@@@Z 0000000140100810 f   saverestore.obj
 0001:000ff920       ?Save_WriteGlobalState@@YAXIPEBD0W4globalstate_state_t@@@Z 0000000140100920 f   saverestore.obj
 0001:000ffa50       ?resize@?$CArray@Usave_edict_info_t@@@@QEAAXI@Z 0000000140100a50 f i saverestore.obj
 0001:000ffd20       ?resize@?$CArray@Usave_field_t@@@@QEAAXI@Z 0000000140100d20 f i saverestore.obj
 0001:000ffe30       ?resize@?$CArray@Usave_block_t@@@@QEAAXI@Z 0000000140100e30 f i saverestore.obj
 0001:000fff50       ?resize@?$CArray@Usaved_string_t@CSaveRestore@@@@QEAAXI@Z 0000000140100f50 f i saverestore.obj
 0001:00100070       ??1?$CLinkedList@Usave_decalinfo_t@@@@QEAA@XZ 0000000140101070 f i saverestore.obj
 0001:001000a0       ?clear@?$CLinkedList@Usave_decalinfo_t@@@@QEAAXXZ 00000001401010a0 f i saverestore.obj
 0001:00100270       ?TR_MoveBoundsPoint@@YAXAEBVVector@@0AEAV1@1@Z 0000000140101270 f   trace_shared.obj
 0001:00100370       ?TR_TraceTexture@@YAPEBDAEBUentity_state_t@@AEBVVector@@1@Z 0000000140101370 f   trace_shared.obj
 0001:001005d0       ?TR_HullPointContents@@YAHPEBUhull_t@@HAEBVVector@@@Z 00000001401015d0 f   trace_shared.obj
 0001:001006b0       ?TR_RecursiveHullCheck@@YA_NPEBUhull_t@@HNNAEBVVector@@1AEAUtrace_t@@@Z 00000001401016b0 f   trace_shared.obj
 0001:00100d30       ?TR_PlayerTraceSingleEntity@@YAXAEBUentity_state_t@@PEAUentity_vbmhulldata_t@@AEBVVector@@2W4hull_types_t@@H22AEAUtrace_t@@@Z 0000000140101d30 f   trace_shared.obj
 0001:001011b0       ??0bsp_texture_t@@QEAA@XZ  00000001401021b0 f i r_bsp.obj
 0001:001011f0       ??0CBSPRenderer@@QEAA@XZ   00000001401021f0 f   r_bsp.obj
 0001:001013a0       ?Init@CBSPRenderer@@QEAA_NXZ 00000001401023a0 f   r_bsp.obj
 0001:00101b40       ?InitGL@CBSPRenderer@@QEAA_NXZ 0000000140102b40 f   r_bsp.obj
 0001:001037c0       ?LoadTextures@CBSPRenderer@@AEAAXXZ 00000001401047c0 f   r_bsp.obj
 0001:001039d0       ?ClearGame@CBSPRenderer@@QEAAXXZ 00000001401049d0 f   r_bsp.obj
 0001:00103df0       ??_Gbsp_decal_t@@QEAAPEAXI@Z 0000000140104df0 f i r_bsp.obj
 0001:00103e80       ?InitLightmaps@CBSPRenderer@@QEAAX_N@Z 0000000140104e80 f   r_bsp.obj
 0001:00104660       ?InitVBO@CBSPRenderer@@QEAAXXZ 0000000140105660 f   r_bsp.obj
 0001:00105ce0       ?LoadMapTexture@CBSPRenderer@@AEAAPEAUen_material_t@@AEAVCWADTextureResource@@AEBV?$CArray@VCString@@@@PEBD@Z 0000000140106ce0 f   r_bsp.obj
 0001:00106290       ?InitTextures@CBSPRenderer@@AEAAXAEAVCWADTextureResource@@AEBV?$CArray@VCString@@@@@Z 0000000140107290 f   r_bsp.obj
 0001:00106710       ?DrawNormal@CBSPRenderer@@QEAA_NXZ 0000000140107710 f   r_bsp.obj
 0001:001069e0       ?DrawTransparent@CBSPRenderer@@QEAA_NXZ 00000001401079e0 f   r_bsp.obj
 0001:00106d90       ?DrawSkyBox@CBSPRenderer@@QEAA_N_N@Z 0000000140107d90 f   r_bsp.obj
 0001:00107270       ?DrawWorld@CBSPRenderer@@AEAA_NXZ 0000000140108270 f   r_bsp.obj
 0001:00107760       ?Prepare@CBSPRenderer@@AEAA_NXZ 0000000140108760 f   r_bsp.obj
 0001:00107f00       ?RecursiveWorldNode@CBSPRenderer@@AEAAXPEAUmnode_t@@@Z 0000000140108f00 f   r_bsp.obj
 0001:001082c0       ?FlagIfDynamicLighted@CBSPRenderer@@AEAAXAEBVVector@@0@Z 00000001401092c0 f   r_bsp.obj
 0001:00108580       ?DrawFirst@CBSPRenderer@@AEAA_NXZ 0000000140109580 f   r_bsp.obj
 0001:0010a480       ?TextureAnimation@CBSPRenderer@@AEAAPEAUmtexture_t@@PEAU2@I@Z 000000014010b480 f   r_bsp.obj
 0001:0010a520       ?BindTextures@CBSPRenderer@@AEAA_NPEAUbsp_texture_t@@PEAUcubemapinfo_t@@1AEAI@Z 000000014010b520 f   r_bsp.obj
 0001:0010b180       ?DrawBrushModel@CBSPRenderer@@AEAA_NAEAUcl_entity_t@@_N@Z 000000014010c180 f   r_bsp.obj
 0001:0010b920       ?SetupLight@CBSPRenderer@@AEAA_NPEAUcl_dlight_t@@IAEAIW4lightbatchtype_t@@@Z 000000014010c920 f   r_bsp.obj
 0001:0010c550       ?DrawLights@CBSPRenderer@@AEAA_N_N@Z 000000014010d550 f   r_bsp.obj
 0001:0010dcc0       ?DrawFinal@CBSPRenderer@@AEAA_NXZ 000000014010ecc0 f   r_bsp.obj
 0001:0010fad0       ?PrepareVSM@CBSPRenderer@@AEAAXXZ 0000000140110ad0 f   r_bsp.obj
 0001:0010fcf0       ?DrawVSMFaces@CBSPRenderer@@AEAA_NXZ 0000000140110cf0 f   r_bsp.obj
 0001:00110050       ?DrawVSM@CBSPRenderer@@QEAA_NPEAUcl_dlight_t@@PEAPEAUcl_entity_t@@I_N@Z 0000000140111050 f   r_bsp.obj
 0001:00110620       ?BatchBrushModelForVSM@CBSPRenderer@@AEAA_NAEAUcl_entity_t@@_N@Z 0000000140111620 f   r_bsp.obj
 0001:00110be0       ?CreateDecal@CBSPRenderer@@QEAAXAEBVVector@@0PEAUdecalgroupentry_t@@EMMM@Z 0000000140111be0 f   r_bsp.obj
 0001:00111cd0       ?RemoveDecalFromVBO@CBSPRenderer@@AEAAXPEAUbsp_decal_t@@@Z 0000000140112cd0 f   r_bsp.obj
 0001:00111fa0       ?RecursivePasteDecal@CBSPRenderer@@AEAAXPEAUmnode_t@@PEAUbsp_decal_t@@EAEBVVector@@2@Z 0000000140112fa0 f   r_bsp.obj
 0001:00112380       ?DecalSurface@CBSPRenderer@@AEAAXPEBUmsurface_t@@PEAUbsp_decal_t@@AEBVVector@@2_N@Z 0000000140113380 f   r_bsp.obj
 0001:00113530       ?DrawDecal@CBSPRenderer@@AEAA_NPEAUbsp_decal_t@@_NAEAW4decal_rendermode_t@@@Z 0000000140114530 f   r_bsp.obj
 0001:00113e60       ?DrawDecals@CBSPRenderer@@AEAA_N_N@Z 0000000140114e60 f   r_bsp.obj
 0001:00114470       ?DrawNormalDecals@CBSPRenderer@@QEAA_NXZ 0000000140115470 f   r_bsp.obj
 0001:001146f0       ?resize@?$CArray@Udrawbatch_t@@@@QEAAXI@Z 00000001401156f0 f i r_bsp.obj
 0001:00114830       ?resize@?$CArray@Ubsp_surface_t@@@@QEAAXI@Z 0000000140115830 f i r_bsp.obj
 0001:00114c10       ??1?$CArray@Ubsp_texture_t@@@@QEAA@XZ 0000000140115c10 f i r_bsp.obj
 0001:00114c50       ?resize@?$CArray@Ubsp_texture_t@@@@QEAAXI@Z 0000000140115c50 f i r_bsp.obj
 0001:00114e50       ?resize@?$CArray@Ubsp_vertex_t@@@@QEAAXI@Z 0000000140115e50 f i r_bsp.obj
 0001:001150c0       ??1bsp_texture_t@@QEAA@XZ  00000001401160c0 f i r_bsp.obj
 0001:00115100       ??4?$CArray@Udrawbatch_t@@@@QEAAXAEBV0@@Z 0000000140116100 f i r_bsp.obj
 0001:00115180       ??0CMenu@@QEAA@XZ          0000000140116180 f   r_menu.obj
 0001:001157f0       ??1CMenu@@QEAA@XZ          00000001401167f0 f   r_menu.obj
 0001:00115af0       ?Init@CMenu@@QEAA_NXZ      0000000140116af0 f   r_menu.obj
 0001:00115fa0       ?PlayMenuSound@CMenu@@SAXPEBD@Z 0000000140116fa0 f   r_menu.obj
 0001:00116000       ?SetButtons@CMenu@@AEAAXXZ 0000000140117000 f   r_menu.obj
 0001:00116460       ?DrawMenuBackground@CMenu@@AEAA_NPEAVCBasicDraw@@@Z 0000000140117460 f   r_menu.obj
 0001:00117120       ?DrawMenuElements@CMenu@@AEAA?AW4rendercode_t@1@PEAVCBasicDraw@@@Z 0000000140118120 f   r_menu.obj
 0001:00117bc0       ?DrawMenuFade@CMenu@@QEAA_NXZ 0000000140118bc0 f   r_menu.obj
 0001:001182c0       ?ButtonAction@CMenu@@QEAAXW4mbutton_t@1@@Z 00000001401192c0 f   r_menu.obj
 0001:001184c0       ?ShowMenu@CMenu@@QEAAXXZ   00000001401194c0 f   r_menu.obj
 0001:001186b0       ?HideMenu@CMenu@@QEAAXXZ   00000001401196b0 f   r_menu.obj
 0001:001187d0       ?FreeSaveBackgroundTextures@CMenu@@QEAAXXZ 00000001401197d0 f   r_menu.obj
 0001:00118870       ?PauseMenuMusic@CMenu@@QEAAXXZ 0000000140119870 f   r_menu.obj
 0001:00118920       ?ResumeMenuMusic@CMenu@@QEAAXXZ 0000000140119920 f   r_menu.obj
 0001:00118b60       ?UpdateContineButton@CMenu@@QEAAXXZ 0000000140119b60 f   r_menu.obj
 0001:00118cb0       ?ClearLatestSaveFile@CMenu@@QEAAXXZ 0000000140119cb0 f   r_menu.obj
 0001:00118d90       ?Think@CMenuButton@@QEAAXXZ 0000000140119d90 f   r_menu.obj
 0001:001190a0       ?IsCursorOver@CMenuButton@@QEBA_NHH@Z 000000014011a0a0 f   r_menu.obj
 0001:00119180       snprintf                   000000014011a180 f i sys_cmd.obj
 0001:001191e0       ?Cmd_Sys_Quit@@YAXXZ       000000014011a1e0 f   sys_cmd.obj
 0001:001191f0       ?Cmd_LoadMap@@YAXXZ        000000014011a1f0 f   sys_cmd.obj
 0001:001193f0       ?Cmd_ListMaps@@YAXXZ       000000014011a3f0 f   sys_cmd.obj
 0001:00119630       ?Cmd_Pause@@YAXXZ          000000014011a630 f   sys_cmd.obj
 0001:00119650       ?Cmd_Pos@@YAXXZ            000000014011a650 f   sys_cmd.obj
 0001:001196e0       ?Cmd_Save@@YAXXZ           000000014011a6e0 f   sys_cmd.obj
 0001:00119790       ?Cmd_QuickSave@@YAXXZ      000000014011a790 f   sys_cmd.obj
 0001:00119850       ?Cmd_AutoSave@@YAXXZ       000000014011a850 f   sys_cmd.obj
 0001:00119910       ?Cmd_Load@@YAXXZ           000000014011a910 f   sys_cmd.obj
 0001:00119c00       ?Cmd_God@@YAXXZ            000000014011ac00 f   sys_cmd.obj
 0001:00119cc0       ?Cmd_Notarget@@YAXXZ       000000014011acc0 f   sys_cmd.obj
 0001:00119d80       ?Cmd_Noclip@@YAXXZ         000000014011ad80 f   sys_cmd.obj
 0001:00119e30       ?Cmd_Restart@@YAXXZ        000000014011ae30 f   sys_cmd.obj
 0001:00119f20       ?Cmd_Reload@@YAXXZ         000000014011af20 f   sys_cmd.obj
 0001:00119ff0       ?Cmd_Snapshot@@YAXXZ       000000014011aff0 f   sys_cmd.obj
 0001:0011a840       ?Cmd_ChangeLevel@@YAXXZ    000000014011b840 f   sys_cmd.obj
 0001:0011a8c0       ?Sys_InitCVars@@YAXXZ      000000014011b8c0 f   sys_cmd.obj
 0001:0011aa60       ?Sys_LoadDefaultFont@@YA_NPEBD@Z 000000014011ba60 f   sys_misc.obj
 0001:0011aba0       ?Sys_LoadGameInfo@@YA_NPEAV?$CArray@VCString@@@@@Z 000000014011bba0 f   sys_misc.obj
 0001:0011b880       ?Sys_CheckLaunchArgs@@YAHPEBD@Z 000000014011c880 f   sys_misc.obj
 0001:0011b980       ??0cmd_definition_t@CCommandManager@@QEAA@XZ 000000014011c980 f i commands.obj
 0001:0011b9b0       ?CreateCommand@CCommandManager@@QEAAXPEBDP6AXXZ0H@Z 000000014011c9b0 f   commands.obj
 0001:0011bc10       ?IncreaseBufferSize@CCommandManager@@AEAAXXZ 000000014011cc10 f   commands.obj
 0001:0011bcb0       ?AddCommand@CCommandManager@@QEAAXPEBD@Z 000000014011ccb0 f   commands.obj
 0001:0011bd60       ?ExecuteCommands@CCommandManager@@QEAAXXZ 000000014011cd60 f   commands.obj
 0001:0011bf30       ?CacheCommand@CCommandManager@@QEAAXPEBD@Z 000000014011cf30 f   commands.obj
 0001:0011c370       ?ExecuteCommand@CCommandManager@@QEAA_NPEBD_N@Z 000000014011d370 f   commands.obj
 0001:0011c5f0       ?ForwardToServer@CCommandManager@@QEBA_NXZ 000000014011d5f0 f   commands.obj
 0001:0011c7d0       ??1?$CArray@Ucmd_definition_t@CCommandManager@@@@QEAA@XZ 000000014011d7d0 f i commands.obj
 0001:0011c820       ??_Ecmd_definition_t@CCommandManager@@QEAAPEAXI@Z 000000014011d820 f i commands.obj
 0001:0011c860       ?resize@?$CArray@Ucmd_definition_t@CCommandManager@@@@QEAAXI@Z 000000014011d860 f i commands.obj
 0001:0011ca30       ??0conf_field_t@@QEAA@XZ   000000014011da30 f i config.obj
 0001:0011ca60       ?Cmd_ExecScript@@YAXXZ     000000014011da60 f   config.obj
 0001:0011caa0       ?SetValue@CConfig@@QEAA_NPEAUconf_group_t@@PEBDH_N@Z 000000014011daa0 f   config.obj
 0001:0011cc60       ?SetValue@CConfig@@QEAA_NPEAUconf_group_t@@PEBDM_N@Z 000000014011dc60 f   config.obj
 0001:0011ce20       ?SetValue@CConfig@@QEAA_NPEBD0M_N@Z 000000014011de20 f   config.obj
 0001:0011ce80       ?SetValue@CConfig@@QEAA_NPEAUconf_group_t@@PEBD1_NW4field_type_t@@@Z 000000014011de80 f   config.obj
 0001:0011d150       ?DeleteField@CConfig@@QEAA_NPEBD0@Z 000000014011e150 f   config.obj
 0001:0011d2b0       ?GetInt@CConfig@@QEAA?BHPEAUconf_group_t@@PEBD@Z 000000014011e2b0 f   config.obj
 0001:0011d410       ?FindGroup@CConfig@@QEAAPEAUconf_group_t@@PEBD@Z 000000014011e410 f   config.obj
 0001:0011d530       ?CreateGroup@CConfig@@QEAAPEAUconf_group_t@@PEBD0W4group_type_t@@@Z 000000014011e530 f   config.obj
 0001:0011d820       ?CreateField@CConfig@@QEAAPEAUconf_field_t@@PEAUconf_group_t@@PEBDW4field_type_t@@@Z 000000014011e820 f   config.obj
 0001:0011d9d0       ??1conf_field_t@@QEAA@XZ   000000014011e9d0 f i config.obj
 0001:0011da20       ?WriteConfigFile@CConfig@@AEBAXPEAUconf_group_t@@PEBD@Z 000000014011ea20 f   config.obj
 0001:0011ee50       ?ReadSystemConfigFile@CConfig@@AEAAXXZ 000000014011fe50 f   config.obj
 0001:0011f7f0       ?ReadUserConfigFile@CConfig@@CAXPEBD@Z 00000001401207f0 f   config.obj
 0001:0011fbe0       ?erase@?$CArray@Uconf_field_t@@@@QEAAXI@Z 0000000140120be0 f i config.obj
 0001:0011fd80       ??_Econf_field_t@@QEAAPEAXI@Z 0000000140120d80 f i config.obj
 0001:0011fdc0       ?resize@?$CArray@Uconf_field_t@@@@QEAAXI@Z 0000000140120dc0 f i config.obj
 0001:0011ff80       ??0keyinfo_t@CInput@@QEAA@XZ 0000000140120f80 f i input.obj
 0001:0011ffb0       ?Cmd_BindKey@@YAXXZ        0000000140120fb0 f   input.obj
 0001:0011ffc0       ?Cmd_UnbindKey@@YAXXZ      0000000140120fc0 f   input.obj
 0001:0011ffd0       ?Cmd_UnbindAll@@YAXXZ      0000000140120fd0 f   input.obj
 0001:001200e0       ?Init@CInput@@QEAA_NXZ     00000001401210e0 f   input.obj
 0001:001203d0       ?LoadKeyNames@CInput@@QEAA_NXZ 00000001401213d0 f   input.obj
 0001:001217b0       ?KeyEvent@CInput@@QEAAXHF_N@Z 00000001401227b0 f   input.obj
 0001:00121cd0       ?MouseButtonEvent@CInput@@QEAAXH_N@Z 0000000140122cd0 f   input.obj
 0001:001221e0       ?MouseWheelEvent@CInput@@QEAAXH_NH@Z 00000001401231e0 f   input.obj
 0001:00122630       ?UpdateMousePositions@CInput@@QEAAX_N@Z 0000000140123630 f   input.obj
 0001:001227b0       ?ResetMouse@CInput@@QEAAXXZ 00000001401237b0 f   input.obj
 0001:00122810       ?CmdBindKey@CInput@@QEAAXXZ 0000000140123810 f   input.obj
 0001:00122c40       ?CmdUnbindKey@CInput@@QEAAXXZ 0000000140123c40 f   input.obj
 0001:00122e40       ??A?$CArray@Ukeyinfo_t@CInput@@@@QEBAAEAUkeyinfo_t@CInput@@I@Z 0000000140123e40 f i input.obj
 0001:00122e80       ??1keyinfo_t@CInput@@QEAA@XZ 0000000140123e80 f i input.obj
 0001:00122ed0       SDL_main                   0000000140123ed0 f   main.obj
 0001:00123020       fprintf                    0000000140124020 f i r_main.obj
 0001:00123070       printf                     0000000140124070 f i r_main.obj
 0001:001230d0       ??0view_info_t@@QEAA@XZ    00000001401240d0 f i r_main.obj
 0001:001232c0       ??0renderer_state_t@@QEAA@XZ 00000001401242c0 f i r_main.obj
 0001:00123550       ??1view_info_t@@QEAA@XZ    0000000140124550 f i r_main.obj
 0001:00123580       ??1render_objects_t@@QEAA@XZ 0000000140124580 f i r_main.obj
 0001:00123600       ?R_Init@@YA_NXZ            0000000140124600 f   r_main.obj
 0001:00124c60       ?R_Shutdown@@YAXXZ         0000000140125c60 f   r_main.obj
 0001:00125010       ?R_LoadTextureListFile@@YA_NPEBDAEAV?$CArray@PEAUen_texture_t@@@@W4rs_level_t@@PEBH_N@Z 0000000140126010 f   r_main.obj
 0001:001255b0       ?R_InitGL@@YA_NXZ          00000001401265b0 f   r_main.obj
 0001:00125b80       ?R_ShutdownGL@@YAXXZ       0000000140126b80 f   r_main.obj
 0001:00126020       ?R_LoadResources@@YA_NXZ   0000000140127020 f   r_main.obj
 0001:00126610       ?R_ResetGame@@YAXXZ        0000000140127610 f   r_main.obj
 0001:00126a20       ?R_PopulateExtensionsArray@@YAXXZ 0000000140127a20 f   r_main.obj
 0001:00127170       ?R_Bind2DTexture@@YAXHI_N@Z 0000000140128170 f   r_main.obj
 0001:00127200       ?R_BindCubemapTexture@@YAXHI_N@Z 0000000140128200 f   r_main.obj
 0001:00127280       ?R_BindRectangleTexture@@YAXHI_N@Z 0000000140128280 f   r_main.obj
 0001:00127300       ?R_ClearBinds@@YAXXZ       0000000140128300 f   r_main.obj
 0001:001273c0       ?R_SetupView@@YAXAEBUref_params_t@@@Z 00000001401283c0 f   r_main.obj
 0001:00127830       ?R_SetProjectionMatrix@@YAXMM@Z 0000000140128830 f   r_main.obj
 0001:00127b30       ?R_SetModelViewMatrix@@YAXAEBVVector@@0@Z 0000000140128b30 f   r_main.obj
 0001:00127d80       ?R_MarkLeaves@@YAXAEBVVector@@@Z 0000000140128d80 f   r_main.obj
 0001:00127e40       ?R_Ent_RotLight@@YAXPEAUcl_entity_t@@@Z 0000000140128e40 f   r_main.obj
 0001:00128840       ?R_AddSpecialEntity@@YA_NPEAUcl_entity_t@@@Z 0000000140129840 f   r_main.obj
 0001:00128de0       ?R_AddEntity@@YAXPEAUcl_entity_t@@@Z 0000000140129de0 f   r_main.obj
 0001:00128e90       ?R_AddEntities@@YAXXZ      0000000140129e90 f   r_main.obj
 0001:001290e0       ?R_DrawLogo@@YA_NPEAUen_texture_t@@HH@Z 000000014012a0e0 f   r_main.obj
 0001:00129a00       ?R_DrawLoadingBackground@@YA_NXZ 000000014012aa00 f   r_main.obj
 0001:0012a1e0       ?R_DrawNormal@@YA_NXZ      000000014012b1e0 f   r_main.obj
 0001:0012a4c0       ?R_DrawViewModelParticles@@YA_NXZ 000000014012b4c0 f   r_main.obj
 0001:0012a4e0       ?R_DrawTransparent@@YA_NXZ 000000014012b4e0 f   r_main.obj
 0001:0012a7d0       ?R_Draw@@YA_NAEBUref_params_t@@@Z 000000014012b7d0 f   r_main.obj
 0001:0012aa50       ?R_DrawScene@@YA_NXZ       000000014012ba50 f   r_main.obj
 0001:0012ae40       ?R_DrawLineGraph@@YAXPEAVCBasicDraw@@HHHH@Z 000000014012be40 f   r_main.obj
 0001:0012b060       ?R_DrawTimeGraph@@YA_NAEAN0@Z 000000014012c060 f   r_main.obj
 0001:0012b950       ?R_DrawInterface@@YA_NXZ   000000014012c950 f   r_main.obj
 0001:0012bb30       ?R_DrawLoadingScreen@@YA_NPEBD@Z 000000014012cb30 f   r_main.obj
 0001:0012bdf0       ?R_SetFrustum@@YAXAEAVCFrustum@@AEBVVector@@1MMM_N@Z 000000014012cdf0 f   r_main.obj
 0001:0012bec0       ?R_Update@@YA_NXZ          000000014012cec0 f   r_main.obj
 0001:0012c720       ?R_DrawString@@YA_NUcolor32_t@@HHPEBDPEBUfont_set_t@@@Z 000000014012d720 f   r_main.obj
 0001:0012c7d0       ?R_DrawStringBox@@YA_NFFFFFF_NUcolor32_t@@HHPEBDPEBUfont_set_t@@III@Z 000000014012d7d0 f   r_main.obj
 0001:0012c940       ?R_BeginTextRendering@@YA_NPEBUfont_set_t@@@Z 000000014012d940 f   r_main.obj
 0001:0012c980       ?R_FinishTextRendering@@YAXPEBUfont_set_t@@@Z 000000014012d980 f   r_main.obj
 0001:0012c9c0       ?R_DrawCharacter@@YA_NPEBUfont_set_t@@HHDIIII@Z 000000014012d9c0 f   r_main.obj
 0001:0012ca20       ?R_PrintCounters@@YA_NXZ   000000014012da20 f   r_main.obj
 0001:0012ce40       ?R_AddTempEntity@@YA_NPEAUcl_entity_t@@@Z 000000014012de40 f   r_main.obj
 0001:0012d0c0       ?R_DrawOrigins@@YA_NXZ     000000014012e0c0 f   r_main.obj
 0001:0012d7c0       ?R_AnisotropyCvarCallBack@@YAXPEAVCCVar@@@Z 000000014012e7c0 f   r_main.obj
 0001:0012d940       ?R_ActiveLoadMaxShadersCvarCallBack@@YAXPEAVCCVar@@@Z 000000014012e940 f   r_main.obj
 0001:0012d9c0       ?R_LoadSprite@@YAXPEAUcache_model_t@@@Z 000000014012e9c0 f   r_main.obj
 0001:0012de70       ?R_RenderFxBlend@@YAMPEAUcl_entity_t@@@Z 000000014012ee70 f   r_main.obj
 0001:0012e2d0       ?R_SortEntities@@YAHPEBX0@Z 000000014012f2d0 f   r_main.obj
 0001:0012e470       ?R_AddShaderForLoading@@YAXPEAVCGLSLShader@@@Z 000000014012f470 f   r_main.obj
 0001:0012e560       ?R_InitMainScreenFBO@@YA_NXZ 000000014012f560 f   r_main.obj
 0001:0012e830       ?R_BindMainScreenFBO@@YAXXZ 000000014012f830 f   r_main.obj
 0001:0012e8d0       ?R_PerformMainScreenBlit@@YAXXZ 000000014012f8d0 f   r_main.obj
 0001:0012ea10       ?Cmd_PasteDecal@@YAXXZ     000000014012fa10 f   r_main.obj
 0001:0012ee80       ?Cmd_CreateSprite@@YAXXZ   000000014012fe80 f   r_main.obj
 0001:0012f330       ?Cmd_CreateDynamicLight@@YAXXZ 0000000140130330 f   r_main.obj
 0001:0012f5c0       ?Cmd_CreateSpotLight@@YAXXZ 00000001401305c0 f   r_main.obj
 0001:0012f8a0       ?Cmd_LoadModel@@YAXXZ      00000001401308a0 f   r_main.obj
 0001:0012fa90       ?Cmd_EFX_Bubbles@@YAXXZ    0000000140130a90 f   r_main.obj
 0001:0012fe10       ?Cmd_EFX_BubbleTrail@@YAXXZ 0000000140130e10 f   r_main.obj
 0001:00130150       ?Cmd_EFX_BreakModel@@YAXXZ 0000000140131150 f   r_main.obj
 0001:00130560       ?Cmd_EFX_SphereModel@@YAXXZ 0000000140131560 f   r_main.obj
 0001:00130940       ?Cmd_EFX_FunnelSprite@@YAXXZ 0000000140131940 f   r_main.obj
 0001:00130c90       ?Cmd_EFX_TempModel@@YAXXZ  0000000140131c90 f   r_main.obj
 0001:001310c0       ?Cmd_EFX_TempSprite@@YAXXZ 00000001401320c0 f   r_main.obj
 0001:00131500       ?Cmd_EFX_ParticleExplosion1@@YAXXZ 0000000140132500 f   r_main.obj
 0001:00131810       ?Cmd_EFX_ParticleExplosion2@@YAXXZ 0000000140132810 f   r_main.obj
 0001:00131b30       ?Cmd_EFX_BlobExplosion@@YAXXZ 0000000140132b30 f   r_main.obj
 0001:00131e40       ?Cmd_EFX_CreateRocketExplosion@@YAXXZ 0000000140132e40 f   r_main.obj
 0001:00132150       ?Cmd_EFX_CreateParticleEffect@@YAXXZ 0000000140133150 f   r_main.obj
 0001:001324d0       ?Cmd_EFX_CreateLavaSplash@@YAXXZ 00000001401334d0 f   r_main.obj
 0001:001327e0       ?Cmd_EFX_CreateTeleportSplash@@YAXXZ 00000001401337e0 f   r_main.obj
 0001:00132af0       ?Cmd_EFX_CreateRocketTrail@@YAXXZ 0000000140133af0 f   r_main.obj
 0001:00132e80       ?Cmd_EFX_BeamSetStart@@YAXXZ 0000000140133e80 f   r_main.obj
 0001:00133150       ?Cmd_EFX_BeamSetEnd@@YAXXZ 0000000140134150 f   r_main.obj
 0001:00133420       ?Cmd_EFX_BeamLightning@@YAXXZ 0000000140134420 f   r_main.obj
 0001:00133a40       ?Cmd_EFX_BeamCirclePoints@@YAXXZ 0000000140134a40 f   r_main.obj
 0001:001341b0       ?Cmd_EFX_BeamEntityPoint@@YAXXZ 00000001401351b0 f   r_main.obj
 0001:00134820       ?Cmd_EFX_BeamEntities@@YAXXZ 0000000140135820 f   r_main.obj
 0001:00134c00       ?Cmd_EFX_BeamFollow@@YAXXZ 0000000140135c00 f   r_main.obj
 0001:00134e80       ?Cmd_EFX_BeamVaporTrail@@YAXXZ 0000000140135e80 f   r_main.obj
 0001:001354d0       ?Cmd_EFX_BeamPoints@@YAXXZ 00000001401364d0 f   r_main.obj
 0001:00135ba0       ?Cmd_EFX_BeamRing@@YAXXZ   0000000140136ba0 f   r_main.obj
 0001:00135f80       ?Cmd_EFX_CreateParticle@@YAXXZ 0000000140136f80 f   r_main.obj
 0001:00136380       ?Cmd_BSPToSMD_Textures@@YAXXZ 0000000140137380 f   r_main.obj
 0001:001371c0       ?Cmd_BSPToSMD_Lightmap@@YAXXZ 00000001401381c0 f   r_main.obj
 0001:00138cf0       ?Cmd_TimeRefresh@@YAXXZ    0000000140139cf0 f   r_main.obj
 0001:00138e40       ?Cmd_DetailAuto@@YAXXZ     0000000140139e40 f   r_main.obj
 0001:001398e0       ?Cmd_ListDefaultMaterials@@YAXXZ 000000014013a8e0 f   r_main.obj
 0001:0013a010       ?Cmd_SetTextureMaterialType@@YAXXZ 000000014013b010 f   r_main.obj
 0001:0013a7b0       ?Cmd_ShowListMaterial@@YAXXZ 000000014013b7b0 f   r_main.obj
 0001:0013a8e0       ?Cmd_LoadAllParticleScripts@@YAXXZ 000000014013b8e0 f   r_main.obj
 0001:0013af30       ?remove@?$CLinkedList@Uactive_load_shader_t@@@@QEAAXPEAUlink_t@1@@Z 000000014013bf30 f i r_main.obj
 0001:0013b090       ??0font_set_t@@QEAA@XZ     000000014013c090 f i r_text.obj
 0001:0013b130       ?Shutdown@CText@@QEAAXXZ   000000014013c130 f   r_text.obj
 0001:0013b210       ??_Gfont_set_t@@QEAAPEAXI@Z 000000014013c210 f i r_text.obj
 0001:0013b250       ?InitGL@CText@@QEAA_NXZ    000000014013c250 f   r_text.obj
 0001:0013b6c0       ?ClearGL@CText@@QEAAXXZ    000000014013c6c0 f   r_text.obj
 0001:0013b840       ??_Gfontsetglinfo_t@@QEAAPEAXI@Z 000000014013c840 f i r_text.obj
 0001:0013b8b0       ?LoadFont@CText@@QEAAPEBUfont_set_t@@PEBDH_NPEBUcolor32_t@@I@Z 000000014013c8b0 f   r_text.obj
 0001:0013c2a0       ?RenderGlyphs@CText@@AEAA_NPEAUfont_set_t@@PEAUfontsetglinfo_t@@PEAUfont_glyph_t@@PEAUFT_FaceRec_@@IIIIIII_NPEAEI@Z 000000014013d2a0 f   r_text.obj
 0001:0013ca30       ?ShouldNewline@CText@@AEAA_NHHPEBUfont_set_t@@PEBD@Z 000000014013da30 f   r_text.obj
 0001:0013cb70       ?EstimateHeight@CText@@QEAAHPEBUfont_set_t@@PEBDI@Z 000000014013db70 f   r_text.obj
 0001:0013ce20       ??1line_t@@QEAA@XZ         000000014013de20 f i r_text.obj
 0001:0013ce50       ?DrawSimpleString@CText@@QEAA_NPEBUfont_set_t@@PEBDHHH@Z 000000014013de50 f   r_text.obj
 0001:0013d040       ?DrawSimpleStringChars@CText@@AEAAXPEBDPEBUfont_glyph_t@@HHHHHHH_NPEAH3@Z 000000014013e040 f   r_text.obj
 0001:0013d1e0       ?DrawString@CText@@QEAA_NPEBUfont_set_t@@PEBDHH_NIII@Z 000000014013e1e0 f   r_text.obj
 0001:0013e0d0       ?DrawChar@CText@@QEAA_NPEBUfont_set_t@@DHHIIII@Z 000000014013f0d0 f   r_text.obj
 0001:0013e3b0       ?Prepare@CText@@QEAA_NXZ   000000014013f3b0 f   r_text.obj
 0001:0013e680       ?Reset@CText@@SAXXZ        000000014013f680 f   r_text.obj
 0001:0013e730       ?BindSet@CText@@QEAA_NPEBUfont_set_t@@@Z 000000014013f730 f   r_text.obj
 0001:0013ea60       ?UnBind@CText@@QEAAXPEBUfont_set_t@@@Z 000000014013fa60 f   r_text.obj
 0001:0013eb10       ?clear@?$CLinkedList@Uline_chunk_t@@@@QEAAXXZ 000000014013fb10 f i r_text.obj
 0001:0013ecd0       ?add@?$CLinkedList@Uline_t@@@@QEAAPEAUlink_t@1@Uline_t@@@Z 000000014013fcd0 f i r_text.obj
 0001:0013ee10       ?clear@?$CLinkedList@Uline_t@@@@QEAAXXZ 000000014013fe10 f i r_text.obj
 0001:0013efe0       ??0disabled_state_t@CGLSLShader@@QEAA@XZ 000000014013ffe0 f i r_glsl.obj
 0001:0013efe0       ??0dll_export_t@@QEAA@XZ   000000014013ffe0 f i system.obj
 0001:0013f000       ?Sys_Init@@YA_NPEAV?$CArray@VCString@@@@@Z 0000000140140000 f   system.obj
 0001:00140320       ?Sys_Shutdown@@YAXXZ       0000000140141320 f   system.obj
 0001:00140600       ??_GCLogFile@@QEAAPEAXI@Z  0000000140141600 f i system.obj
 0001:00140660       ?Sys_Exit@@YAXXZ           0000000140141660 f   system.obj
 0001:00140680       ?Sys_ErrorPopup@@YAXPEBDZZ 0000000140141680 f   system.obj
 0001:00140710       ?Sys_FloatTime@@YANXZ      0000000140141710 f   system.obj
 0001:00140810       ?Sys_CheckGameDir@@YA_NPEBV?$CArray@VCString@@@@@Z 0000000140141810 f   system.obj
 0001:00140b20       ?Sys_ParseLaunchParams@@YA_NPEBV?$CArray@VCString@@@@@Z 0000000140141b20 f   system.obj
 0001:00142a10       ?Sys_PostThink@@YAXXZ      0000000140143a10 f   system.obj
 0001:00142ca0       ?Sys_SetPaused@@YAX_N0@Z   0000000140143ca0 f   system.obj
 0001:00142f40       ?Sys_Frame@@YAXN@Z         0000000140143f40 f   system.obj
 0001:00143410       ?Sys_Main@@YAHPEAV?$CArray@VCString@@@@@Z 0000000140144410 f   system.obj
 0001:00143810       ?Con_Printf@@YAXPEBDZZ     0000000140144810 f   system.obj
 0001:001438f0       ?Con_DPrintf@@YAXPEBDZZ    00000001401448f0 f   system.obj
 0001:00143a80       ?Con_VPrintf@@YAXPEBDZZ    0000000140144a80 f   system.obj
 0001:00143be0       ?Con_EPrintf@@YAXPEBDZZ    0000000140144be0 f   system.obj
 0001:00143d30       ?resize@?$CArray@Udll_export_t@@@@QEAAXI@Z 0000000140144d30 f i system.obj
 0001:00143ed0       ??0ui_schemeobject_t@@QEAA@XZ 0000000140144ed0 f i uimanager.obj
 0001:00143f00       ??0ui_objectinfo_t@@QEAA@XZ 0000000140144f00 f i uimanager.obj
 0001:00143f60       ?Shutdown@CUIManager@@QEAAXXZ 0000000140144f60 f   uimanager.obj
 0001:00144160       ??_Gui_schemeinfo_t@@QEAAPEAXI@Z 0000000140145160 f i uimanager.obj
 0001:001441e0       ??_Gui_windowdescription_t@@QEAAPEAXI@Z 00000001401451e0 f i uimanager.obj
 0001:00144260       ?Draw@CUIManager@@QEAA_NXZ 0000000140145260 f   uimanager.obj
 0001:00144600       ?SetFocusWindow@CUIManager@@QEAAXPEAVCUIWindow@@@Z 0000000140145600 f   uimanager.obj
 0001:00144690       ?HideWindows@CUIManager@@QEAAXH@Z 0000000140145690 f   uimanager.obj
 0001:00144760       ?ShowWindows@CUIManager@@QEAAXH@Z 0000000140145760 f   uimanager.obj
 0001:00144830       ?ReorderWindows@CUIManager@@AEAAXXZ 0000000140145830 f   uimanager.obj
 0001:00144a80       ?AddWindow@CUIManager@@QEAAXPEAVCUIWindow@@@Z 0000000140145a80 f   uimanager.obj
 0001:00144b70       ?LoadSchemaFile@CUIManager@@QEAAPEAUui_schemeinfo_t@@PEBD@Z 0000000140145b70 f   uimanager.obj
 0001:00145ec0       ?LoadWindowDescriptionFile@CUIManager@@QEAAPEAUui_windowdescription_t@@PEBD0@Z 0000000140146ec0 f   uimanager.obj
 0001:00148000       ??1ui_objectinfo_t@@QEAA@XZ 0000000140149000 f i uimanager.obj
 0001:00148070       ??_Eui_objectinfo_t@@QEAAPEAXI@Z 0000000140149070 f i uimanager.obj
 0001:001480b0       ??4ui_objectinfo_t@@QEAAAEAU0@AEBU0@@Z 00000001401490b0 f i uimanager.obj
 0001:00148190       ?resize@?$CArray@Uui_schemeobject_t@@@@QEAAXI@Z 0000000140149190 f i uimanager.obj
 0001:00148370       ?resize@?$CArray@Uui_objectinfo_t@@@@QEAAXI@Z 0000000140149370 f i uimanager.obj
 0001:001485c0       ?Cmd_VID_Restart@@YAXXZ    00000001401495c0 f   vid.obj
 0001:001485d0       ?Cmd_VID_SetFullscreen@@YAXXZ 00000001401495d0 f   vid.obj
 0001:001485e0       ?Cmd_VID_SetWindowed@@YAXXZ 00000001401495e0 f   vid.obj
 0001:001485f0       ?Cmd_VID_SetDisplayDevice@@YAXXZ 00000001401495f0 f   vid.obj
 0001:001486c0       ?Cmd_VID_SetWidth@@YAXXZ   00000001401496c0 f   vid.obj
 0001:00148790       ?Cmd_VID_SetHeight@@YAXXZ  0000000140149790 f   vid.obj
 0001:00148860       ?Cmd_VID_SetMSAA@@YAXXZ    0000000140149860 f   vid.obj
 0001:00148930       ?Cmd_VID_SetVSync@@YAXXZ   0000000140149930 f   vid.obj
 0001:00148a00       ?Cmd_VID_SetFBOEnabled@@YAXXZ 0000000140149a00 f   vid.obj
 0001:00148ad0       ?Cmd_VID_SetHDREnabled@@YAXXZ 0000000140149ad0 f   vid.obj
 0001:00148ba0       ?VID_GLMessageCallback@@YAXIIIIHPEBDPEBX@Z 0000000140149ba0 f   vid.obj
 0001:00149980       ?VID_Init@@YA_NXZ          000000014014a980 f   vid.obj
 0001:0014a270       ?VID_Restart@@YAXXZ        000000014014b270 f   vid.obj
 0001:0014a4f0       ?VID_Shutdown@@YAXXZ       000000014014b4f0 f   vid.obj
 0001:0014a570       ?VID_BeginLoading@@YAX_N@Z 000000014014b570 f   vid.obj
 0001:0014a6d0       ?VID_EndLoading@@YAXXZ     000000014014b6d0 f   vid.obj
 0001:0014a760       ?VID_Draw@@YAXXZ           000000014014b760 f   vid.obj
 0001:0014ae10       ?VID_DrawLoadingScreen@@YAXPEBD@Z 000000014014be10 f   vid.obj
 0001:0014af40       ?VID_DrawSceneOnly@@YAXXZ  000000014014bf40 f   vid.obj
 0001:0014b040       ?VID_ShaderCompileCallback@@YAXPEBDII_N@Z 000000014014c040 f   vid.obj
 0001:0014b5e0       ?GetOpenGLInfo@CWindow@@QEAA_NAEAHAEA_N1@Z 000000014014c5e0 f   window.obj
 0001:0014bae0       ?Init@CWindow@@QEAA_NXZ    000000014014cae0 f   window.obj
 0001:0014c140       ?BuildDeviceList@CWindow@@AEAA_NXZ 000000014014d140 f   window.obj
 0001:0014c680       ?FetchResolutions@CWindow@@CA_NPEAUddevice_t@1@@Z 000000014014d680 f   window.obj
 0001:0014c950       ?FindResolution@CWindow@@AEAAPEAUresolution_t@1@PEAUddevice_t@1@II@Z 000000014014d950 f   window.obj
 0001:0014c9d0       ?SetDisplayProperties@CWindow@@AEAA_NXZ 000000014014d9d0 f   window.obj
 0001:0014d480       ?GetConfigGroup@CWindow@@AEAAPEAUconf_group_t@@XZ 000000014014e480 f   window.obj
 0001:0014d540       ?GetResolutionInfo@CWindow@@QEBAXHHAEAI0@Z 000000014014e540 f   window.obj
 0001:0014d6c0       ?GetCurrentMSAASetting@CWindow@@QEAAHXZ 000000014014e6c0 f   window.obj
 0001:0014d870       ?resize@?$CArray@Uresolution_t@CWindow@@@@QEAAXI@Z 000000014014e870 f i window.obj
 0001:0014d990       ?KeyEvent@CUICallbackEvent@@UEAA_NHF_N@Z 000000014014e990 f i uielements.obj
 0001:0014d990       ?MouseButtonEvent@CUICallbackEvent@@UEAA_NHHH_N@Z 000000014014e990 f i uielements.obj
 0001:0014d990       ?considerElementOnResize@CUIScrollableSurface@@UEAA_NPEAVCUIObject@@@Z 000000014014e990 f i uielements.obj
 0001:0014d990       ?getFocusState@CUIObject@@UEBA_NXZ 000000014014e990 f i uielements.obj
 0001:0014d990       ?isClickedOn@CUIObject@@UEAA_NXZ 000000014014e990 f i uielements.obj
 0001:0014d990       ?isDisabled@CUIObject@@UEAA_NXZ 000000014014e990 f i uielements.obj
 0001:0014d990       ?isInFocus@CUIObject@@UEAA_NXZ 000000014014e990 f i uielements.obj
 0001:0014d990       ?isInteractive@CUIListHeader@@UEAA_NXZ 000000014014e990 f i uielements.obj
 0001:0014d990       ?isInteractive@CUIObject@@UEAA_NXZ 000000014014e990 f i uielements.obj
 0001:0014d990       ?isResizable@CUIButton@@UEAA_NXZ 000000014014e990 f i uielements.obj
 0001:0014d990       ?isResizable@CUIDownloadWindow@@UEAA_NXZ 000000014014e990 f i uidownloadwindow.obj
 0001:0014d990       ?isResizable@CUIDragButton@@UEAA_NXZ 000000014014e990 f i uielements.obj
 0001:0014d990       ?isResizable@CUIDropDownList@@UEAA_NXZ 000000014014e990 f i uielements.obj
 0001:0014d990       ?isResizable@CUIExitWindow@@UEAA_NXZ 000000014014e990 f i uiexitwindow.obj
 0001:0014d990       ?isResizable@CUINewGameWindow@@UEAA_NXZ 000000014014e990 f i uinewgamewindow.obj
 0001:0014d990       ?isResizable@CUIObject@@UEAA_NXZ 000000014014e990 f i uielements.obj
 0001:0014d990       ?isResizable@CUISaveLoadWindow@@UEAA_NXZ 000000014014e990 f i uisaveloadwindow.obj
 0001:0014d990       ?isResizable@CUISettingsWindow@@UEAA_NXZ 000000014014e990 f i uisettingswindow.obj
 0001:0014d990       ?isResizable@CUITabBody@@UEAA_NXZ 000000014014e990 f i uielements.obj
 0001:0014d990       ?isResizable@CUITabList@@UEAA_NXZ 000000014014e990 f i uielements.obj
 0001:0014d990       ?isWindow@CUIObject@@UEAA_NXZ 000000014014e990 f i uielements.obj
 0001:0014d990       ?keyEvent@CUIObject@@UEAA_NHF_N@Z 000000014014e990 f i uielements.obj
 0001:0014d9a0       ??_ECUICallbackEvent@@UEAAPEAXI@Z 000000014014e9a0 f i * CIL library *:* CIL module *
 0001:0014d9a0       ??_GCUICallbackEvent@@UEAAPEAXI@Z 000000014014e9a0 f i uielements.obj
 0001:0014d9d0       ?setWidth@CUIObject@@UEAAXH@Z 000000014014e9d0 f i uielements.obj
 0001:0014d9e0       ?getWidth@CUIObject@@UEAAIXZ 000000014014e9e0 f i uielements.obj
 0001:0014d9f0       ?setHeight@CUIObject@@UEAAXH@Z 000000014014e9f0 f i uielements.obj
 0001:0014da00       ?getHeight@CUIObject@@UEAAIXZ 000000014014ea00 f i uielements.obj
 0001:0014da10       ?setVisible@CUIObject@@UEAAX_N@Z 000000014014ea10 f i uielements.obj
 0001:0014da20       ?isVisible@CUIObject@@UEAA_NXZ 000000014014ea20 f i uielements.obj
 0001:0014da30       ?move@CUIObject@@UEAAXHH@Z 000000014014ea30 f i uielements.obj
 0001:0014da50       ?setFlag@CUIObject@@UEAAXH@Z 000000014014ea50 f i uielements.obj
 0001:0014da60       ?removeFlag@CUIObject@@UEAAXH@Z 000000014014ea60 f i uielements.obj
 0001:0014da70       ?setDefaultTexture@CUITexturedObject@@UEAAXPEBUen_texture_t@@@Z 000000014014ea70 f i uielements.obj
 0001:0014da80       ?setFocusTexture@CUITexturedObject@@UEAAXPEBUen_texture_t@@@Z 000000014014ea80 f i uielements.obj
 0001:0014da90       ?setClickedTexture@CUITexturedObject@@UEAAXPEBUen_texture_t@@@Z 000000014014ea90 f i uielements.obj
 0001:0014daa0       ?setDisabledTexture@CUITexturedObject@@UEAAXPEBUen_texture_t@@@Z 000000014014eaa0 f i uielements.obj
 0001:0014dab0       ?setWindowInputFocusObject@CUIWindow@@UEAAXPEAVCUIObject@@@Z 000000014014eab0 f i uielements.obj
 0001:0014dac0       ?getInputFocusObject@CUIWindow@@UEAAPEAVCUIObject@@XZ 000000014014eac0 f i uielements.obj
 0001:0014dad0       ?setFocusIndex@CUIWindow@@UEAAXI@Z 000000014014ead0 f i uielements.obj
 0001:0014dae0       ?getFocusIndex@CUIWindow@@UEAAIXZ 000000014014eae0 f i uielements.obj
 0001:0014daf0       ?setFocusState@CUIWindow@@UEAAX_N@Z 000000014014eaf0 f i uielements.obj
 0001:0014db00       ?getFocusState@CUIWindow@@UEBA_NXZ 000000014014eb00 f i uielements.obj
 0001:0014db00       ?isInFocus@CUIWindow@@UEAA_NXZ 000000014014eb00 f i uielements.obj
 0001:0014db10       ?setWindowFlags@CUIWindow@@UEAAXH@Z 000000014014eb10 f i uielements.obj
 0001:0014db20       ?getWindowFlags@CUIWindow@@UEAAHXZ 000000014014eb20 f i uielements.obj
 0001:0014db30       ??_ECUIAnisotropySelectEvent@@UEAAPEAXI@Z 000000014014eb30 f i * CIL library *:* CIL module *
 0001:0014db30       ??_ECUIAntiAliasSelectEvent@@UEAAPEAXI@Z 000000014014eb30 f i * CIL library *:* CIL module *
 0001:0014db30       ??_ECUIBindsBindBtnEvent@@UEAAPEAXI@Z 000000014014eb30 f i * CIL library *:* CIL module *
 0001:0014db30       ??_ECUIBindsClearBtnEvent@@UEAAPEAXI@Z 000000014014eb30 f i * CIL library *:* CIL module *
 0001:0014db30       ??_ECUIBindsRestoreButtonEvent@@UEAAPEAXI@Z 000000014014eb30 f i * CIL library *:* CIL module *
 0001:0014db30       ??_ECUIConsoleExecuteCallback@@UEAAPEAXI@Z 000000014014eb30 f i * CIL library *:* CIL module *
 0001:0014db30       ??_ECUIDeviceSelectEvent@@UEAAPEAXI@Z 000000014014eb30 f i * CIL library *:* CIL module *
 0001:0014db30       ??_ECUIDownloadWindowCancelEvent@@UEAAPEAXI@Z 000000014014eb30 f i * CIL library *:* CIL module *
 0001:0014db30       ??_ECUIDropDownButtonEvent@CUIDropDownList@@UEAAPEAXI@Z 000000014014eb30 f i * CIL library *:* CIL module *
 0001:0014db30       ??_ECUIFramebufferObjectsSelectEvent@@UEAAPEAXI@Z 000000014014eb30 f i * CIL library *:* CIL module *
 0001:0014db30       ??_ECUIHighDynamicRangeSelectEvent@@UEAAPEAXI@Z 000000014014eb30 f i * CIL library *:* CIL module *
 0001:0014db30       ??_ECUIResolutionSelectEvent@@UEAAPEAXI@Z 000000014014eb30 f i * CIL library *:* CIL module *
 0001:0014db30       ??_ECUIScrollerDragBtnAction@CUIScroller@@UEAAPEAXI@Z 000000014014eb30 f i * CIL library *:* CIL module *
 0001:0014db30       ??_ECUISettingsApplyEvent@@UEAAPEAXI@Z 000000014014eb30 f i * CIL library *:* CIL module *
 0001:0014db30       ??_ECUISettingsCancelEvent@@UEAAPEAXI@Z 000000014014eb30 f i * CIL library *:* CIL module *
 0001:0014db30       ??_ECUISliderDragBtnAction@CUISlider@@UEAAPEAXI@Z 000000014014eb30 f i * CIL library *:* CIL module *
 0001:0014db30       ??_ECUITabSelectEvent@@UEAAPEAXI@Z 000000014014eb30 f i * CIL library *:* CIL module *
 0001:0014db30       ??_ECUIVerticalSyncSelectEvent@@UEAAPEAXI@Z 000000014014eb30 f i * CIL library *:* CIL module *
 0001:0014db30       ??_ECUIWindowCloseAction@CUIWindow@@UEAAPEAXI@Z 000000014014eb30 f i * CIL library *:* CIL module *
 0001:0014db30       ??_ECUIWindowModeSelectEvent@@UEAAPEAXI@Z 000000014014eb30 f i * CIL library *:* CIL module *
 0001:0014db30       ??_GCUIAnisotropySelectEvent@@UEAAPEAXI@Z 000000014014eb30 f i uisettingswindow.obj
 0001:0014db30       ??_GCUIAntiAliasSelectEvent@@UEAAPEAXI@Z 000000014014eb30 f i uisettingswindow.obj
 0001:0014db30       ??_GCUIBindsBindBtnEvent@@UEAAPEAXI@Z 000000014014eb30 f i uisettingswindow.obj
 0001:0014db30       ??_GCUIBindsClearBtnEvent@@UEAAPEAXI@Z 000000014014eb30 f i uisettingswindow.obj
 0001:0014db30       ??_GCUIBindsRestoreButtonEvent@@UEAAPEAXI@Z 000000014014eb30 f i uisettingswindow.obj
 0001:0014db30       ??_GCUIConsoleExecuteCallback@@UEAAPEAXI@Z 000000014014eb30 f i uiconsolewindow.obj
 0001:0014db30       ??_GCUIDeviceSelectEvent@@UEAAPEAXI@Z 000000014014eb30 f i uisettingswindow.obj
 0001:0014db30       ??_GCUIDownloadWindowCancelEvent@@UEAAPEAXI@Z 000000014014eb30 f i uidownloadwindow.obj
 0001:0014db30       ??_GCUIDropDownButtonEvent@CUIDropDownList@@UEAAPEAXI@Z 000000014014eb30 f i uielements.obj
 0001:0014db30       ??_GCUIFramebufferObjectsSelectEvent@@UEAAPEAXI@Z 000000014014eb30 f i uisettingswindow.obj
 0001:0014db30       ??_GCUIHighDynamicRangeSelectEvent@@UEAAPEAXI@Z 000000014014eb30 f i uisettingswindow.obj
 0001:0014db30       ??_GCUIResolutionSelectEvent@@UEAAPEAXI@Z 000000014014eb30 f i uisettingswindow.obj
 0001:0014db30       ??_GCUIScrollerDragBtnAction@CUIScroller@@UEAAPEAXI@Z 000000014014eb30 f i uielements.obj
 0001:0014db30       ??_GCUISettingsApplyEvent@@UEAAPEAXI@Z 000000014014eb30 f i uisettingswindow.obj
 0001:0014db30       ??_GCUISettingsCancelEvent@@UEAAPEAXI@Z 000000014014eb30 f i uisettingswindow.obj
 0001:0014db30       ??_GCUISliderDragBtnAction@CUISlider@@UEAAPEAXI@Z 000000014014eb30 f i uielements.obj
 0001:0014db30       ??_GCUITabSelectEvent@@UEAAPEAXI@Z 000000014014eb30 f i uisettingswindow.obj
 0001:0014db30       ??_GCUIVerticalSyncSelectEvent@@UEAAPEAXI@Z 000000014014eb30 f i uisettingswindow.obj
 0001:0014db30       ??_GCUIWindowCloseAction@CUIWindow@@UEAAPEAXI@Z 000000014014eb30 f i uielements.obj
 0001:0014db30       ??_GCUIWindowModeSelectEvent@@UEAAPEAXI@Z 000000014014eb30 f i uisettingswindow.obj
 0001:0014db60       ?isClickedOn@CUIDragger@@UEAA_NXZ 000000014014eb60 f i uielements.obj
 0001:0014db70       ?releaseClickStates@CUIDragger@@UEAAXXZ 000000014014eb70 f i uielements.obj
 0001:0014db80       ?isClickedOn@CUIButton@@UEAA_NXZ 000000014014eb80 f i uielements.obj
 0001:0014db90       ?releaseClickStates@CUIButton@@UEAAXXZ 000000014014eb90 f i uielements.obj
 0001:0014dba0       ?setDisabled@CUIButton@@UEAAX_N@Z 000000014014eba0 f i uielements.obj
 0001:0014dbb0       ?isDisabled@CUIButton@@UEAA_NXZ 000000014014ebb0 f i uielements.obj
 0001:0014dbc0       ?setTextInset@CUITextTab@@UEAAXI@Z 000000014014ebc0 f i uielements.obj
 0001:0014dbd0       ?setTextInset@CUITextInputTab@@UEAAXI@Z 000000014014ebd0 f i uielements.obj
 0001:0014dbe0       ?getText@CUITextInputTab@@UEAAPEBDXZ 000000014014ebe0 f i uielements.obj
 0001:0014dbf0       ?getFullRange@CUIScroller@@UEAAIXZ 000000014014ebf0 f i uielements.obj
 0001:0014dc00       ?getAlignment@CUIScroller@@UEAA?AW4ui_scroller_align_t@CUIObject@@XZ 000000014014ec00 f i uielements.obj
 0001:0014dc00       ?getNbRows@CUIList@@UEAAHXZ 000000014014ec00 f i uielements.obj
 0001:0014dc10       ??_ECUIBindsRowEvent@@UEAAPEAXI@Z 000000014014ec10 f i * CIL library *:* CIL module *
 0001:0014dc10       ??_ECUIConsoleKeyEventCallback@@UEAAPEAXI@Z 000000014014ec10 f i * CIL library *:* CIL module *
 0001:0014dc10       ??_ECUIExitWindowEvent@@UEAAPEAXI@Z 000000014014ec10 f i * CIL library *:* CIL module *
 0001:0014dc10       ??_ECUINewGameWindowButtonEvent@@UEAAPEAXI@Z 000000014014ec10 f i * CIL library *:* CIL module *
 0001:0014dc10       ??_ECUISaveLoadWindowButtonEvent@@UEAAPEAXI@Z 000000014014ec10 f i * CIL library *:* CIL module *
 0001:0014dc10       ??_ECUIScrollSurfaceDropListSelectEvent@@UEAAPEAXI@Z 000000014014ec10 f i * CIL library *:* CIL module *
 0001:0014dc10       ??_ECUIScrollSurfaceDropListToggleEvent@@UEAAPEAXI@Z 000000014014ec10 f i * CIL library *:* CIL module *
 0001:0014dc10       ??_ECUIScrollerArrowBtnAction@CUIScroller@@UEAAPEAXI@Z 000000014014ec10 f i * CIL library *:* CIL module *
 0001:0014dc10       ??_ECUITabSelectCallback@CUITabList@@UEAAPEAXI@Z 000000014014ec10 f i * CIL library *:* CIL module *
 0001:0014dc10       ??_GCUIBindsRowEvent@@UEAAPEAXI@Z 000000014014ec10 f i uisettingswindow.obj
 0001:0014dc10       ??_GCUIConsoleKeyEventCallback@@UEAAPEAXI@Z 000000014014ec10 f i uiconsolewindow.obj
 0001:0014dc10       ??_GCUIExitWindowEvent@@UEAAPEAXI@Z 000000014014ec10 f i uiexitwindow.obj
 0001:0014dc10       ??_GCUINewGameWindowButtonEvent@@UEAAPEAXI@Z 000000014014ec10 f i uinewgamewindow.obj
 0001:0014dc10       ??_GCUISaveLoadWindowButtonEvent@@UEAAPEAXI@Z 000000014014ec10 f i uisaveloadwindow.obj
 0001:0014dc10       ??_GCUIScrollSurfaceDropListSelectEvent@@UEAAPEAXI@Z 000000014014ec10 f i uisettingswindow.obj
 0001:0014dc10       ??_GCUIScrollSurfaceDropListToggleEvent@@UEAAPEAXI@Z 000000014014ec10 f i uisettingswindow.obj
 0001:0014dc10       ??_GCUIScrollerArrowBtnAction@CUIScroller@@UEAAPEAXI@Z 000000014014ec10 f i uielements.obj
 0001:0014dc10       ??_GCUITabSelectCallback@CUITabList@@UEAAPEAXI@Z 000000014014ec10 f i uielements.obj
 0001:0014dc40       ?setTabBody@CUITabLabel@@UEAAXPEAVCUITabBody@@@Z 000000014014ec40 f i uielements.obj
 0001:0014dc50       ?PerformAction@CUITabSelectCallback@CUITabList@@UEAAXM@Z 000000014014ec50 f i uielements.obj
 0001:0014dc70       ?getNbTabs@CUITabList@@UEAAIXZ 000000014014ec70 f i uielements.obj
 0001:0014dc80       ??0decalgroup_t@@QEAA@XZ   000000014014ec80 f i decallist.obj
 0001:0014dc80       ??0hdr_column_t@CUIListHeader@@QEAA@XZ 000000014014ec80 f i uielements.obj
 0001:0014dca0       ?setHighlight@CUIListRow@@UEAAX_N@Z 000000014014eca0 f i uielements.obj
 0001:0014dcb0       ?setHighlightedColumn@CUIListRow@@UEAAXH@Z 000000014014ecb0 f i uielements.obj
 0001:0014dcc0       ?getIndex@CUIListRow@@UEAAIXZ 000000014014ecc0 f i uielements.obj
 0001:0014dcd0       ?clearList@CUIDropDownList@@UEAAXXZ 000000014014ecd0 f i uielements.obj
 0001:0014dcf0       ?getListSize@CUIDropDownList@@UEAAIXZ 000000014014ecf0 f i uielements.obj
 0001:0014dd10       ??_ECUIDropDownRowClickEvent@CUIDropDownList@@UEAAPEAXI@Z 000000014014ed10 f i * CIL library *:* CIL module *
 0001:0014dd10       ??_ECUISaveLoadWindowRowEvent@@UEAAPEAXI@Z 000000014014ed10 f i * CIL library *:* CIL module *
 0001:0014dd10       ??_GCUIDropDownRowClickEvent@CUIDropDownList@@UEAAPEAXI@Z 000000014014ed10 f i uielements.obj
 0001:0014dd10       ??_GCUISaveLoadWindowRowEvent@@UEAAPEAXI@Z 000000014014ed10 f i uisaveloadwindow.obj
 0001:0014dd40       ?getSliderButton@CUISlider@@UEAAPEAVCUIDragButton@@XZ 000000014014ed40 f i uielements.obj
 0001:0014dd50       ??_ECUIObject@@UEAAPEAXI@Z 000000014014ed50 f i * CIL library *:* CIL module *
 0001:0014dd50       ??_GCUIObject@@UEAAPEAXI@Z 000000014014ed50 f i uielements.obj
 0001:0014dd90       ??1CUIObject@@UEAA@XZ      000000014014ed90 f   uielements.obj
 0001:0014de60       ?addChild@CUIObject@@QEAAXPEAV1@@Z 000000014014ee60 f   uielements.obj
 0001:0014df80       ?setParent@CUIObject@@QEAAXPEAV1@@Z 000000014014ef80 f   uielements.obj
 0001:0014dfc0       ?setWindowInputFocusObject@CUIObject@@UEAAXPEAV1@@Z 000000014014efc0 f   uielements.obj
 0001:0014dfe0       ?adjustPosition@CUIObject@@UEAAXXZ 000000014014efe0 f   uielements.obj
 0001:0014e100       ?setSize@CUIObject@@MEAAXHH@Z 000000014014f100 f   uielements.obj
 0001:0014e120       ?getSize@CUIObject@@UEAAXAEAI0@Z 000000014014f120 f   uielements.obj
 0001:0014e130       ?setAlpha@CUIObject@@UEAAXH_N@Z 000000014014f130 f   uielements.obj
 0001:0014e1c0       ?setColor@CUIObject@@UEAAXIIIH_N@Z 000000014014f1c0 f   uielements.obj
 0001:0014e2a0       ?setPosition@CUIObject@@UEAAXHH_N@Z 000000014014f2a0 f   uielements.obj
 0001:0014e2c0       ?getPosition@CUIObject@@UEAAXAEAH0@Z 000000014014f2c0 f   uielements.obj
 0001:0014e2d0       ?getAbsPosition@CUIObject@@UEAAXAEAH0@Z 000000014014f2d0 f   uielements.obj
 0001:0014e340       ?think@CUIObject@@UEAAXXZ  000000014014f340 f   uielements.obj
 0001:0014e3a0       ?postThink@CUIObject@@UEAAXXZ 000000014014f3a0 f   uielements.obj
 0001:0014e400       ?mouseButtonEvent@CUIObject@@UEAA_NHHH_N@Z 000000014014f400 f   uielements.obj
 0001:0014e550       ?mouseWheelEvent@CUIObject@@UEAA_NHHH_NH@Z 000000014014f550 f   uielements.obj
 0001:0014e6b0       ?isMouseOver@CUIObject@@UEAA_NHH@Z 000000014014f6b0 f   uielements.obj
 0001:0014e720       ?draw@CUIObject@@UEAA_NXZ  000000014014f720 f   uielements.obj
 0001:0014e880       ?adjustSize@CUIObject@@UEAA_NHH@Z 000000014014f880 f   uielements.obj
 0001:0014eb00       ?isParentSizeValid@CUIObject@@UEAA_NIIHH@Z 000000014014fb00 f   uielements.obj
 0001:0014eba0       ?releaseClickStates@CUIObject@@UEAAXXZ 000000014014fba0 f   uielements.obj
 0001:0014ec00       ?getParentWindow@CUIObject@@UEAAPEAV1@XZ 000000014014fc00 f   uielements.obj
 0001:0014ec40       ?closeOtherTabs@CUIObject@@UEAAXPEAV1@@Z 000000014014fc40 f   uielements.obj
 0001:0014ecf0       ??_ECUIInteractiveObject@@UEAAPEAXI@Z 000000014014fcf0 f i * CIL library *:* CIL module *
 0001:0014ecf0       ??_GCUIInteractiveObject@@UEAAPEAXI@Z 000000014014fcf0 f i uielements.obj
 0001:0014ed30       ?isMouseOver@CUIInteractiveObject@@UEAA_NHH@Z 000000014014fd30 f   uielements.obj
 0001:0014edf0       ??_ECUITexturedObject@@UEAAPEAXI@Z 000000014014fdf0 f i * CIL library *:* CIL module *
 0001:0014edf0       ??_GCUITexturedObject@@UEAAPEAXI@Z 000000014014fdf0 f i uielements.obj
 0001:0014ee30       ?draw@CUITexturedObject@@UEAA_NXZ 000000014014fe30 f   uielements.obj
 0001:0014f1d0       ??0CUISurface@@QEAA@HIIHH@Z 00000001401501d0 f   uielements.obj
 0001:0014f270       ??_ECUISurface@@UEAAPEAXI@Z 0000000140150270 f i * CIL library *:* CIL module *
 0001:0014f270       ??_GCUISurface@@UEAAPEAXI@Z 0000000140150270 f i uielements.obj
 0001:0014f2b0       ??1CUISurface@@UEAA@XZ     00000001401502b0 f   uielements.obj
 0001:0014f2c0       ?isParentSizeValid@CUISurface@@UEAA_NIIHH@Z 00000001401502c0 f   uielements.obj
 0001:0014f480       ?createObject@CUISurface@@MEAAPEAVCUITexturedObject@@PEBUui_schemeinfo_t@@PEBD@Z 0000000140150480 f   uielements.obj
 0001:0014f6f0       ?init@CUISurface@@UEAA_NPEBD@Z 00000001401506f0 f   uielements.obj
 0001:0014f7c0       ?initBottomElements@CUISurface@@UEAA_NXZ 00000001401507c0 f   uielements.obj
 0001:0014f850       ?initTopElements@CUISurface@@UEAA_NXZ 0000000140150850 f   uielements.obj
 0001:0014f8f0       ?considerElementOnResize@CUISurface@@UEAA_NPEAVCUIObject@@@Z 00000001401508f0 f   uielements.obj
 0001:0014f940       ?setAlpha@CUISurface@@UEAAXH_N@Z 0000000140150940 f   uielements.obj
 0001:0014faa0       ?adjustSize@CUISurface@@UEAA_NHH@Z 0000000140150aa0 f   uielements.obj
 0001:0014fae0       ?adjustPosition@CUISurface@@UEAAXXZ 0000000140150ae0 f   uielements.obj
 0001:0014fb00       ?adjustTopBorder@CUISurface@@UEAAXXZ 0000000140150b00 f   uielements.obj
 0001:0014fbf0       ?adjustBgElements@CUISurface@@UEAAXXZ 0000000140150bf0 f   uielements.obj
 0001:0014fe80       ?draw@CUISurface@@UEAA_NXZ 0000000140150e80 f   uielements.obj
 0001:0014fe90       ?init@CUIWindow@@UEAA_NPEBD@Z 0000000140150e90 f   uielements.obj
 0001:00150030       ?setTitle@CUIWindow@@QEAAXPEBDPEBUfont_set_t@@II@Z 0000000140151030 f   uielements.obj
 0001:00150100       ?move@CUIWindow@@UEAAXHH@Z 0000000140151100 f   uielements.obj
 0001:00150110       ?keyEvent@CUIWindow@@UEAA_NHF_N@Z 0000000140151110 f   uielements.obj
 0001:00150130       ?mouseButtonEvent@CUIWindow@@UEAA_NHHH_N@Z 0000000140151130 f   uielements.obj
 0001:00150150       ?mouseWheelEvent@CUIWindow@@UEAA_NHHH_NH@Z 0000000140151150 f   uielements.obj
 0001:001502c0       ?PerformAction@CUISettingsCancelEvent@@UEAAXM@Z 00000001401512c0 f   uisettingswindow.obj
 0001:001502c0       ?PerformAction@CUIWindowCloseAction@CUIWindow@@UEAAXM@Z 00000001401512c0 f   uielements.obj
 0001:001502e0       ??0CUIText@@QEAA@HPEBUfont_set_t@@PEBDHHI@Z 00000001401512e0 f   uielements.obj
 0001:00150380       ??_ECUIText@@UEAAPEAXI@Z   0000000140151380 f i * CIL library *:* CIL module *
 0001:00150380       ??_GCUIText@@UEAAPEAXI@Z   0000000140151380 f i uielements.obj
 0001:00150400       ?setText@CUIText@@QEAAXPEBD@Z 0000000140151400 f   uielements.obj
 0001:00150530       ?setDisplayText@CUIText@@QEAAXPEBD@Z 0000000140151530 f   uielements.obj
 0001:00150730       ?draw@CUIText@@UEAA_NXZ    0000000140151730 f   uielements.obj
 0001:00150850       ?adjustPosition@CUIText@@UEAAXXZ 0000000140151850 f   uielements.obj
 0001:00150870       ??_ECUIDragger@@UEAAPEAXI@Z 0000000140151870 f i * CIL library *:* CIL module *
 0001:00150870       ??_ECUIResizer@@UEAAPEAXI@Z 0000000140151870 f i * CIL library *:* CIL module *
 0001:00150870       ??_GCUIDragger@@UEAAPEAXI@Z 0000000140151870 f i uielements.obj
 0001:00150870       ??_GCUIResizer@@UEAAPEAXI@Z 0000000140151870 f i uielements.obj
 0001:001508b0       ?mouseButtonEvent@CUIDragger@@UEAA_NHHH_N@Z 00000001401518b0 f   uielements.obj
 0001:00150940       ?isParentSizeValid@CUIDragger@@UEAA_NIIHH@Z 0000000140151940 f   uielements.obj
 0001:001509e0       ?think@CUIDragger@@UEAAXXZ 00000001401519e0 f   uielements.obj
 0001:00150a70       ?performAdj@CUIDragger@@UEAA_NHH@Z 0000000140151a70 f   uielements.obj
 0001:00150a90       ?performAdj@CUIResizer@@UEAA_NHH@Z 0000000140151a90 f   uielements.obj
 0001:00150aa0       ??0CUIButton@@QEAA@HPEBDPEBUfont_set_t@@PEAVCUICallbackEvent@@IIHH@Z 0000000140151aa0 f   uielements.obj
 0001:00150c90       ??_ECUIButton@@UEAAPEAXI@Z 0000000140151c90 f i * CIL library *:* CIL module *
 0001:00150c90       ??_GCUIButton@@UEAAPEAXI@Z 0000000140151c90 f i uielements.obj
 0001:00150d00       ??0CUIButton@@QEAA@HPEBUui_schemeobject_t@@PEAVCUICallbackEvent@@IIHH@Z 0000000140151d00 f   uielements.obj
 0001:00150f20       ?mouseButtonEvent@CUIButton@@UEAA_NHHH_N@Z 0000000140151f20 f   uielements.obj
 0001:00150fa0       ?think@CUIButton@@UEAAXXZ  0000000140151fa0 f   uielements.obj
 0001:00151010       ??_ECUITextTab@@UEAAPEAXI@Z 0000000140152010 f i * CIL library *:* CIL module *
 0001:00151010       ??_GCUITextTab@@UEAAPEAXI@Z 0000000140152010 f i uielements.obj
 0001:00151050       ?setText@CUITextTab@@UEAAXPEBD@Z 0000000140152050 f   uielements.obj
 0001:00151070       ?updateRangeSize@CUITextTab@@UEAAXXZ 0000000140152070 f   uielements.obj
 0001:00151140       ?mouseWheelEvent@CUITextTab@@UEAA_NHHH_NH@Z 0000000140152140 f   uielements.obj
 0001:001511a0       ?init@CUITextTab@@UEAA_NPEBD@Z 00000001401521a0 f   uielements.obj
 0001:001512e0       ?draw@CUITextTab@@UEAA_NXZ 00000001401522e0 f   uielements.obj
 0001:001514e0       ?setOffsetValue@CUITextTab@@UEAAXM@Z 00000001401524e0 f   uielements.obj
 0001:00151610       ??0CUITextInputTab@@QEAA@HPEAVCUICallbackEvent@@PEBUfont_set_t@@IIHH@Z 0000000140152610 f   uielements.obj
 0001:001516e0       ??_ECUITextInputTab@@UEAAPEAXI@Z 00000001401526e0 f i * CIL library *:* CIL module *
 0001:001516e0       ??_GCUITextInputTab@@UEAAPEAXI@Z 00000001401526e0 f i uielements.obj
 0001:00151750       ?mouseButtonEvent@CUITextInputTab@@UEAA_NHHH_N@Z 0000000140152750 f   uielements.obj
 0001:00151790       ?keyEvent@CUITextInputTab@@UEAA_NHF_N@Z 0000000140152790 f   uielements.obj
 0001:00151bb0       ?clearText@CUITextInputTab@@UEAAXXZ 0000000140152bb0 f   uielements.obj
 0001:00151bd0       ?setText@CUITextInputTab@@UEAAXPEBD@Z 0000000140152bd0 f   uielements.obj
 0001:00151c90       ?think@CUITextInputTab@@UEAAXXZ 0000000140152c90 f   uielements.obj
 0001:00151d30       ?draw@CUITextInputTab@@UEAA_NXZ 0000000140152d30 f   uielements.obj
 0001:00152110       ??0CUIDragButton@@QEAA@HW4ui_scroller_align_t@CUIObject@@PEAVCUICallbackEvent@@IIHH@Z 0000000140153110 f   uielements.obj
 0001:00152200       ??_ECUIDragButton@@UEAAPEAXI@Z 0000000140153200 f i * CIL library *:* CIL module *
 0001:00152200       ??_GCUIDragButton@@UEAAPEAXI@Z 0000000140153200 f i uielements.obj
 0001:00152270       ?setBounds@CUIDragButton@@UEAAXHH@Z 0000000140153270 f   uielements.obj
 0001:00152280       ?getBounds@CUIDragButton@@UEAAXAEAH0@Z 0000000140153280 f   uielements.obj
 0001:001522a0       ?mouseButtonEvent@CUIDragButton@@UEAA_NHHH_N@Z 00000001401532a0 f   uielements.obj
 0001:00152350       ?think@CUIDragButton@@UEAAXXZ 0000000140153350 f   uielements.obj
 0001:00152410       ?setLength@CUIDragButton@@UEAAXI@Z 0000000140153410 f   uielements.obj
 0001:001524b0       ?setPosition@CUIDragButton@@UEAAXM@Z 00000001401534b0 f   uielements.obj
 0001:001524f0       ?getPosition@CUIDragButton@@UEAANXZ 00000001401534f0 f   uielements.obj
 0001:00152500       ?adjPosition@CUIDragButton@@UEAA_NH_N0@Z 0000000140153500 f   uielements.obj
 0001:00152680       ?getLength@CUIDragButton@@UEAAIXZ 0000000140153680 f   uielements.obj
 0001:001526a0       ?adjustPosition@CUIDragButton@@UEAAXXZ 00000001401536a0 f   uielements.obj
 0001:001527d0       ?PerformAction@CUIScrollerArrowBtnAction@CUIScroller@@UEAAXM@Z 00000001401537d0 f   uielements.obj
 0001:00152830       ?PerformAction@CUIScrollerDragBtnAction@CUIScroller@@UEAAXM@Z 0000000140153830 f   uielements.obj
 0001:001528a0       ??_ECUIScroller@@UEAAPEAXI@Z 00000001401538a0 f i * CIL library *:* CIL module *
 0001:001528a0       ??_GCUIScroller@@UEAAPEAXI@Z 00000001401538a0 f i uielements.obj
 0001:001528e0       ?init@CUIScroller@@UEAA_NPEBD@Z 00000001401538e0 f   uielements.obj
 0001:00153160       ?setFullRange@CUIScroller@@UEAAXI@Z 0000000140154160 f   uielements.obj
 0001:00153180       ?readjustDragButton@CUIScroller@@UEAAXXZ 0000000140154180 f   uielements.obj
 0001:001532d0       ?adjustSize@CUIScroller@@UEAA_NHH@Z 00000001401542d0 f   uielements.obj
 0001:00153310       ?isParentSizeValid@CUIScroller@@UEAA_NIIHH@Z 0000000140154310 f   uielements.obj
 0001:00153470       ?considerElementOnResize@CUIScroller@@UEAA_NPEAVCUIObject@@@Z 0000000140154470 f   uielements.obj
 0001:00153480       ?moveScroller@CUIScroller@@UEAA_NHH@Z 0000000140154480 f   uielements.obj
 0001:001534e0       ??_ECUITabLabel@@UEAAPEAXI@Z 00000001401544e0 f i * CIL library *:* CIL module *
 0001:001534e0       ??_GCUITabLabel@@UEAAPEAXI@Z 00000001401544e0 f i uielements.obj
 0001:00153550       ??_ECUITabBody@@UEAAPEAXI@Z 0000000140154550 f i * CIL library *:* CIL module *
 0001:00153550       ??_GCUITabBody@@UEAAPEAXI@Z 0000000140154550 f i uielements.obj
 0001:00153590       ?initTopElements@CUITabBody@@UEAA_NXZ 0000000140154590 f   uielements.obj
 0001:001536e0       ?adjustTopBorder@CUITabBody@@UEAAXXZ 00000001401546e0 f   uielements.obj
 0001:00153930       ?considerElementOnResize@CUITabBody@@UEAA_NPEAVCUIObject@@@Z 0000000140154930 f   uielements.obj
 0001:001539a0       ?setAlpha@CUITabBody@@UEAAXH_N@Z 00000001401549a0 f   uielements.obj
 0001:00153a30       ??_ECUITabList@@UEAAPEAXI@Z 0000000140154a30 f i * CIL library *:* CIL module *
 0001:00153a30       ??_GCUITabList@@UEAAPEAXI@Z 0000000140154a30 f i uielements.obj
 0001:00153aa0       ?createTab@CUITabList@@QEAAPEAVCUITabBody@@PEBD@Z 0000000140154aa0 f   uielements.obj
 0001:00153d90       ?showTab@CUITabList@@EEAAXI@Z 0000000140154d90 f   uielements.obj
 0001:00153e70       ??0CUIScrollableSurface@@QEAA@HIIHH@Z 0000000140154e70 f   uielements.obj
 0001:00153ef0       ??_ECUIScrollableSurface@@UEAAPEAXI@Z 0000000140154ef0 f i * CIL library *:* CIL module *
 0001:00153ef0       ??_GCUIScrollableSurface@@UEAAPEAXI@Z 0000000140154ef0 f i uielements.obj
 0001:00153f30       ?init@CUIScrollableSurface@@UEAA_NPEBD@Z 0000000140154f30 f   uielements.obj
 0001:00154170       ?setOffsetValue@CUIScrollableSurface@@UEAAXM@Z 0000000140155170 f   uielements.obj
 0001:00154180       ?adjustSize@CUIScrollableSurface@@UEAA_NHH@Z 0000000140155180 f   uielements.obj
 0001:001541c0       ?draw@CUIScrollableSurface@@UEAA_NXZ 00000001401551c0 f   uielements.obj
 0001:001544d0       ?mouseButtonEvent@CUIScrollableSurface@@UEAA_NHHH_N@Z 00000001401554d0 f   uielements.obj
 0001:001547a0       ?mouseWheelEvent@CUIScrollableSurface@@UEAA_NHHH_NH@Z 00000001401557a0 f   uielements.obj
 0001:001547e0       ?think@CUIScrollableSurface@@UEAAXXZ 00000001401557e0 f   uielements.obj
 0001:00154930       ?isMouseOver@CUIScrollableSurface@@UEAA_NHH@Z 0000000140155930 f   uielements.obj
 0001:001549a0       ?isChildVisible@CUIScrollableSurface@@UEAA_NPEAVCUIObject@@H@Z 00000001401559a0 f   uielements.obj
 0001:00154a60       ?shouldShiftChild@CUIScrollableSurface@@UEAA_NPEAVCUIObject@@@Z 0000000140155a60 f   uielements.obj
 0001:00154a80       ??0CUIList@@QEAA@HPEBUfont_set_t@@IIIIHH@Z 0000000140155a80 f   uielements.obj
 0001:00154b50       ??_ECUIList@@UEAAPEAXI@Z   0000000140155b50 f i * CIL library *:* CIL module *
 0001:00154b50       ??_GCUIList@@UEAAPEAXI@Z   0000000140155b50 f i uielements.obj
 0001:00154bc0       ?init@CUIList@@UEAA_NPEBD@Z 0000000140155bc0 f   uielements.obj
 0001:00154d50       ?shouldShiftChild@CUIList@@UEAA_NPEAVCUIObject@@@Z 0000000140155d50 f   uielements.obj
 0001:00154d70       ?setHeaderColumnName@CUIList@@UEAAXIPEBD@Z 0000000140155d70 f   uielements.obj
 0001:00154dd0       ?createNewRow@CUIList@@UEAAPEAVCUIListRow@@PEAVCUICallbackEvent@@I@Z 0000000140155dd0 f   uielements.obj
 0001:00154fe0       ?createSeparator@CUIList@@UEAAXIPEBDI@Z 0000000140155fe0 f   uielements.obj
 0001:001552e0       ?clearHighlight@CUIList@@UEAAXXZ 00000001401562e0 f   uielements.obj
 0001:00155330       ?setHighlightOnRow@CUIList@@UEAAXI_N@Z 0000000140156330 f   uielements.obj
 0001:00155410       ?setHighlightOnRowColumn@CUIList@@UEAAXH@Z 0000000140156410 f   uielements.obj
 0001:00155430       ?getRowColumnObject@CUIList@@UEAAPEAVCUIObject@@II@Z 0000000140156430 f   uielements.obj
 0001:001554c0       ?clearList@CUIList@@UEAAXXZ 00000001401564c0 f   uielements.obj
 0001:00155810       ??_ECUIListHeader@@UEAAPEAXI@Z 0000000140156810 f i * CIL library *:* CIL module *
 0001:00155810       ??_GCUIListHeader@@UEAAPEAXI@Z 0000000140156810 f i uielements.obj
 0001:001558a0       ?init@CUIListHeader@@UEAA_NPEBD@Z 00000001401568a0 f   uielements.obj
 0001:00155b30       ?setColumnName@CUIListHeader@@UEAAXIPEBD@Z 0000000140156b30 f   uielements.obj
 0001:00155c50       ??0CUIListRow@@QEAA@HIIPEAVCUIListHeader@@PEAVCUICallbackEvent@@IIII@Z 0000000140156c50 f   uielements.obj
 0001:00155e50       ??_ECUIListRow@@UEAAPEAXI@Z 0000000140156e50 f i * CIL library *:* CIL module *
 0001:00155e50       ??_ECUIListSeparator@@UEAAPEAXI@Z 0000000140156e50 f i * CIL library *:* CIL module *
 0001:00155e50       ??_GCUIListRow@@UEAAPEAXI@Z 0000000140156e50 f i uielements.obj
 0001:00155e50       ??_GCUIListSeparator@@UEAAPEAXI@Z 0000000140156e50 f i uielements.obj
 0001:00155ed0       ?setColumnContents@CUIListRow@@UEAAXIPEAVCUIObject@@@Z 0000000140156ed0 f   uielements.obj
 0001:00155fb0       ?getColumnContents@CUIListRow@@UEAAPEAVCUIObject@@I@Z 0000000140156fb0 f   uielements.obj
 0001:00156020       ?setColumnColor@CUIListRow@@UEAAXEEE@Z 0000000140157020 f   uielements.obj
 0001:001560c0       ?mouseButtonEvent@CUIListRow@@UEAA_NHHH_N@Z 00000001401570c0 f   uielements.obj
 0001:00156140       ?draw@CUIListRow@@UEAA_NXZ 0000000140157140 f   uielements.obj
 0001:00156450       ?draw@CUIListSeparator@@UEAA_NXZ 0000000140157450 f   uielements.obj
 0001:001565c0       ??0CUIDropDownList@@QEAA@HPEAVCUICallbackEvent@@0PEBUfont_set_t@@IIHH@Z 00000001401575c0 f   uielements.obj
 0001:00156840       ??_ECUIDropDownList@@UEAAPEAXI@Z 0000000140157840 f i * CIL library *:* CIL module *
 0001:00156840       ??_GCUIDropDownList@@UEAAPEAXI@Z 0000000140157840 f i uielements.obj
 0001:001568c0       ?init@CUIDropDownList@@UEAA_NPEBD@Z 00000001401578c0 f   uielements.obj
 0001:00156b20       ?mouseButtonEvent@CUIDropDownList@@UEAA_NHHH_N@Z 0000000140157b20 f   uielements.obj
 0001:00156bd0       ?toggleList@CUIDropDownList@@UEAAXXZ 0000000140157bd0 f   uielements.obj
 0001:00156c70       ?setSelection@CUIDropDownList@@UEAAXH@Z 0000000140157c70 f   uielements.obj
 0001:00156d80       ?manageSelectionEvent@CUIDropDownList@@UEAAXI@Z 0000000140157d80 f   uielements.obj
 0001:00156dd0       ?addChoice@CUIDropDownList@@UEAAXPEBD@Z 0000000140157dd0 f   uielements.obj
 0001:00156f10       ?closeOtherTabs@CUIDropDownList@@UEAAXPEAVCUIObject@@@Z 0000000140157f10 f   uielements.obj
 0001:00156f50       ?PerformAction@CUIDropDownButtonEvent@CUIDropDownList@@UEAAXM@Z 0000000140157f50 f   uielements.obj
 0001:00156f70       ?MouseButtonEvent@CUIDropDownRowClickEvent@CUIDropDownList@@UEAA_NHHH_N@Z 0000000140157f70 f   uielements.obj
 0001:00156fd0       ?isMouseOver@CUIDropDownList@@UEAA_NHH@Z 0000000140157fd0 f   uielements.obj
 0001:00157060       ??_ECUITickBox@@UEAAPEAXI@Z 0000000140158060 f i * CIL library *:* CIL module *
 0001:00157060       ??_GCUITickBox@@UEAAPEAXI@Z 0000000140158060 f i uielements.obj
 0001:001570d0       ?init@CUITickBox@@UEAA_NPEBD@Z 00000001401580d0 f   uielements.obj
 0001:00157470       ?setText@CUITickBox@@UEAAXPEBDPEBUfont_set_t@@I@Z 0000000140158470 f   uielements.obj
 0001:00157510       ?setState@CUITickBox@@UEAAX_N@Z 0000000140158510 f   uielements.obj
 0001:00157530       ?mouseButtonEvent@CUITickBox@@UEAA_NHHH_N@Z 0000000140158530 f   uielements.obj
 0001:001575e0       ??0CUISlider@@QEAA@HPEAVCUICallbackEvent@@IIHHMMM@Z 00000001401585e0 f   uielements.obj
 0001:00157690       ??_ECUISlider@@UEAAPEAXI@Z 0000000140158690 f i * CIL library *:* CIL module *
 0001:00157690       ??_GCUISlider@@UEAAPEAXI@Z 0000000140158690 f i uielements.obj
 0001:001576f0       ?draw@CUISlider@@UEAA_NXZ  00000001401586f0 f   uielements.obj
 0001:00157950       ?init@CUISlider@@UEAA_NPEBD@Z 0000000140158950 f   uielements.obj
 0001:001581a0       ?setValueFromPosition@CUISlider@@UEAAXN@Z 00000001401591a0 f   uielements.obj
 0001:001581e0       ?setValue@CUISlider@@UEAAXM@Z 00000001401591e0 f   uielements.obj
 0001:00158280       ?PerformAction@CUISliderDragBtnAction@CUISlider@@UEAAXM@Z 0000000140159280 f   uielements.obj
 0001:001582e0       ??0CUIProgressBar@@QEAA@HIIHH@Z 00000001401592e0 f   uielements.obj
 0001:00158380       ??_ECUIProgressBar@@UEAAPEAXI@Z 0000000140159380 f i * CIL library *:* CIL module *
 0001:00158380       ??_GCUIProgressBar@@UEAAPEAXI@Z 0000000140159380 f i uielements.obj
 0001:001583c0       ?draw@CUIProgressBar@@UEAA_NXZ 00000001401593c0 f   uielements.obj
 0001:001585b0       ?setValue@CUIProgressBar@@UEAAXM@Z 00000001401595b0 f   uielements.obj
 0001:001585d0       ?push_back@?$CArray@Utab_t@CUITabList@@@@QEAAXAEBUtab_t@CUITabList@@@Z 00000001401595d0 f i uielements.obj
 0001:00158710       ?resize@?$CArray@Uhdr_column_t@CUIListHeader@@@@QEAAXI@Z 0000000140159710 f i uielements.obj
 0001:001588c0       ??_ECCVar@@UEAAPEAXI@Z     00000001401598c0 f i * CIL library *:* CIL module *
 0001:001588c0       ??_GCCVar@@UEAAPEAXI@Z     00000001401598c0 f i cvar.obj
 0001:00158920       ??_ECStringCVar@@UEAAPEAXI@Z 0000000140159920 f i * CIL library *:* CIL module *
 0001:00158920       ??_GCStringCVar@@UEAAPEAXI@Z 0000000140159920 f i cvar.obj
 0001:001589a0       ?SetValue@CStringCVar@@EEAA_NPEBD@Z 00000001401599a0 f   cvar.obj
 0001:00158a80       ?GetStrValue@CStringCVar@@UEBAPEBDXZ 0000000140159a80 f   cvar.obj
 0001:00158a90       ?SetValue@CStringCVar@@EEAA_NM@Z 0000000140159a90 f   cvar.obj
 0001:00158ab0       ?GetValue@CStringCVar@@UEBAMXZ 0000000140159ab0 f   cvar.obj
 0001:00158ad0       ??_ECFloatCVar@@UEAAPEAXI@Z 0000000140159ad0 f i * CIL library *:* CIL module *
 0001:00158ad0       ??_GCFloatCVar@@UEAAPEAXI@Z 0000000140159ad0 f i cvar.obj
 0001:00158b30       ?SetValue@CFloatCVar@@EEAA_NPEBD@Z 0000000140159b30 f   cvar.obj
 0001:00158b50       ?GetStrValue@CFloatCVar@@UEBAPEBDXZ 0000000140159b50 f   cvar.obj
 0001:00158b70       ?SetValue@CFloatCVar@@EEAA_NM@Z 0000000140159b70 f   cvar.obj
 0001:00158b90       ?GetValue@CFloatCVar@@UEBAMXZ 0000000140159b90 f   cvar.obj
 0001:00158ba0       ??0decalgroupentry_t@@QEAA@XZ 0000000140159ba0 f i decallist.obj
 0001:00158bc0       ??1CDecalList@@QEAA@XZ     0000000140159bc0 f   decallist.obj
 0001:00158c20       ?LoadDecalList@CDecalList@@QEAA_NPEBDI@Z 0000000140159c20 f   decallist.obj
 0001:0015a050       ?GetRandom@CDecalList@@QEAAPEAUdecalgroupentry_t@@PEBD@Z 000000014015b050 f   decallist.obj
 0001:0015a1b0       ?resize@?$CArray@Udecalgroupentry_t@@@@QEAAXI@Z 000000014015b1b0 f i decallist.obj
 0001:0015a370       ?resize@?$CArray@Udecalgroup_t@@@@QEAAXI@Z 000000014015b370 f i decallist.obj
 0001:0015a5f0       ??_Edecalgroupentry_t@@QEAAPEAXI@Z 000000014015b5f0 f i decallist.obj
 0001:0015a630       ??_Edecalgroup_t@@QEAAPEAXI@Z 000000014015b630 f i decallist.obj
 0001:0015a670       ??1decalgroup_t@@QEAA@XZ   000000014015b670 f i decallist.obj
 0001:0015a6e0       ??0flexcontroller_t@@QEAA@XZ 000000014015b6e0 f i flexmanager.obj
 0001:0015a700       ?Clear@CFlexManager@@QEAAXXZ 000000014015b700 f   flexmanager.obj
 0001:0015a910       ??_Gflexscript_t@@QEAAPEAXI@Z 000000014015b910 f i flexmanager.obj
 0001:0015a990       ?GetFixedFlexIndex@CFlexManager@@SAHPEBD@Z 000000014015b990 f   flexmanager.obj
 0001:0015aad0       ?SetFlexMappings@CFlexManager@@SAXPEBUvbmheader_t@@PEAUflexstate_t@@@Z 000000014015bad0 f   flexmanager.obj
 0001:0015ac70       ?SetScript@CFlexManager@@QEAAXPEBUvbmheader_t@@PEAUflexstate_t@@MPEBD@Z 000000014015bc70 f   flexmanager.obj
 0001:0015aea0       ?SetControllerName@CFlexManager@@SA_NPEBUflexscript_t@@PEAUflexcontroller_t@@PEBD@Z 000000014015bea0 f   flexmanager.obj
 0001:0015b0a0       ?LoadAssociationScript@CFlexManager@@QEAA_NW4flextypes_t@@PEBD@Z 000000014015c0a0 f   flexmanager.obj
 0001:0015beb0       ?LoadScript@CFlexManager@@QEAAPEBUflexscript_t@@PEBD@Z 000000014015ceb0 f   flexmanager.obj
 0001:0015d740       ??1flexcontroller_t@@QEAA@XZ 000000014015e740 f i flexmanager.obj
 0001:0015d780       ?Blink@CFlexManager@@AEAAXMMPEAUflexstate_t@@@Z 000000014015e780 f   flexmanager.obj
 0001:0015d950       ?UpdateValues@CFlexManager@@QEAAXMMHPEAUflexstate_t@@_N@Z 000000014015e950 f   flexmanager.obj
 0001:0015e230       ?SetError@CFlexManager@@AEAAXPEBDZZ 000000014015f230 f   flexmanager.obj
 0001:0015e350       ??_Eflexcontroller_t@@QEAAPEAXI@Z 000000014015f350 f i flexmanager.obj
 0001:0015e390       ??4flexcontroller_t@@QEAAAEAU0@AEBU0@@Z 000000014015f390 f i flexmanager.obj
 0001:0015e440       ?resize@?$CArray@Uflexbind_t@@@@QEAAXI@Z 000000014015f440 f i flexmanager.obj
 0001:0015e550       ?resize@?$CArray@Uflexcontroller_t@@@@QEAAXI@Z 000000014015f550 f i flexmanager.obj
 0001:0015e790       ??0CFrustum@@QEAA@XZ       000000014015f790 f   frustum.obj
 0001:0015e810       ?SetFrustum@CFrustum@@QEAAXAEBVVector@@0MM@Z 000000014015f810 f   frustum.obj
 0001:0015eb50       ?SetFrustum@CFrustum@@QEAAXAEBVVector@@0MMM@Z 000000014015fb50 f   frustum.obj
 0001:0015eeb0       ?CullBBox@CFrustum@@QEBA_NAEBVVector@@0@Z 000000014015feb0 f   frustum.obj
 0001:0015f0d0       ?GetFunction@CGLExtF@@QEAAP6A_JXZPEBD_N@Z 00000001401600d0 f   r_glextf.obj
 0001:0015f230       ?GetFunctions@CGLExtF@@QEAA_NXZ 0000000140160230 f   r_glextf.obj
 0001:0015fa40       ??0glsl_determinator_t@CGLSLShader@@QEAA@XZ 0000000140160a40 f i r_glsl.obj
 0001:0015fa70       ??0glsl_uniform_t@CGLSLShader@@QEAA@XZ 0000000140160a70 f i r_glsl.obj
 0001:0015fab0       ??0glsl_ubo_t@CGLSLShader@@QEAA@XZ 0000000140160ab0 f i r_glsl.obj
 0001:0015fad0       ??0glsl_attrib_t@CGLSLShader@@QEAA@XZ 0000000140160ad0 f i r_glsl.obj
 0001:0015fb00       ??0CGLSLShader@@QEAA@AEBUfile_interface_t@@AEBVCGLExtF@@PEBDHP6AX2II_N@Z@Z 0000000140160b00 f   r_glsl.obj
 0001:0015fc90       ??0CGLSLShader@@QEAA@AEBUfile_interface_t@@AEBVCGLExtF@@HP6AXPEBDII_N@Z@Z 0000000140160c90 f   r_glsl.obj
 0001:0015fde0       ??1CGLSLShader@@QEAA@XZ    0000000140160de0 f   r_glsl.obj
 0001:0015ff80       ?Clear@CGLSLShader@@QEAAXXZ 0000000140160f80 f   r_glsl.obj
 0001:00160030       ?RecursiveFreeChunks@CGLSLShader@@AEAAXPEAUshader_chunk_t@1@@Z 0000000140161030 f   r_glsl.obj
 0001:001600b0       ?FreeTempData@CGLSLShader@@AEAAXXZ 00000001401610b0 f   r_glsl.obj
 0001:001602a0       ?FreeShaderData@CGLSLShader@@AEAAXXZ 00000001401612a0 f   r_glsl.obj
 0001:001603d0       ?FreeData@CGLSLShader@@AEAAXXZ 00000001401613d0 f   r_glsl.obj
 0001:00160580       ?CompileShader@CGLSLShader@@QEAA_NIPEAUglsl_shader_t@1@PEAUcsdshaderdata_t@1@@Z 0000000140161580 f   r_glsl.obj
 0001:00161820       ?ValidateProgram@CGLSLShader@@QEAA_NP6AXPEBDZZ@Z 0000000140162820 f   r_glsl.obj
 0001:00161990       ?CompileFromCSD@CGLSLShader@@AEAA_NXZ 0000000140162990 f   r_glsl.obj
 0001:001625f0       ?LoadFromBSD@CGLSLShader@@AEAA_NXZ 00000001401635f0 f   r_glsl.obj
 0001:00163050       ?CompileCSDShaderData@CGLSLShader@@AEAA_NXZ 0000000140164050 f   r_glsl.obj
 0001:00163d30       ?ReadDeterminator@CGLSLShader@@QEAA_NPEAPEBD@Z 0000000140164d30 f   r_glsl.obj
 0001:00164840       ?ReadInvalidState@CGLSLShader@@QEAA_NPEAPEBD@Z 0000000140165840 f   r_glsl.obj
 0001:00165920       ?CompileFromScript@CGLSLShader@@AEAA_NXZ 0000000140166920 f   r_glsl.obj
 0001:001668c0       ?Compile@CGLSLShader@@QEAA_NPEBD@Z 00000001401678c0 f   r_glsl.obj
 0001:001669f0       ?ReadChunks@CGLSLShader@@AEAA_NPEAPEBDPEAPEAUshader_chunk_t@1@PEAIPEAUglsl_branchcondition_t@1@I@Z 00000001401679f0 f   r_glsl.obj
 0001:00168470       ?RecursiveFillValues@CGLSLShader@@AEAAXIAEAI@Z 0000000140169470 f   r_glsl.obj
 0001:001686c0       ?ShouldIncludeChunk@CGLSLShader@@AEAA_NIPEAUshader_chunk_t@1@@Z 00000001401696c0 f   r_glsl.obj
 0001:00168910       ?RecursiveAddChunks@CGLSLShader@@AEAA_NIPEAUshader_chunk_t@1@PEADPEAII@Z 0000000140169910 f   r_glsl.obj
 0001:00168b40       ?SpliceScripts@CGLSLShader@@AEAA_NIPEAPEAD0@Z 0000000140169b40 f   r_glsl.obj
 0001:00168ce0       ?DisableDeterminatorState@CGLSLShader@@QEAAXPEBDH@Z 0000000140169ce0 f   r_glsl.obj
 0001:00168f10       ?CompileShaderVariation@CGLSLShader@@QEAA_NI@Z 0000000140169f10 f   r_glsl.obj
 0001:001695c0       ?ConstructBranches@CGLSLShader@@AEAA_NPEBDI@Z 000000014016a5c0 f   r_glsl.obj
 0001:0016a270       ?Shader_PrintLog@CGLSLShader@@AEAAXIPEBDI0_N@Z 000000014016b270 f   r_glsl.obj
 0001:0016a5e0       ?Program_PrintLog@CGLSLShader@@AEAAXIPEBD@Z 000000014016b5e0 f   r_glsl.obj
 0001:0016a800       ?AddDeterminator@CGLSLShader@@QEAAPEAUglsl_determinator_t@1@PEBD@Z 000000014016b800 f   r_glsl.obj
 0001:0016aab0       ?EnableShader@CGLSLShader@@QEAA_NXZ 000000014016bab0 f   r_glsl.obj
 0001:0016aee0       ?SyncUniform@CGLSLShader@@AEAAXAEAUglsl_uniform_t@1@@Z 000000014016bee0 f   r_glsl.obj
 0001:0016b150       ?DisableShader@CGLSLShader@@QEAAXXZ 000000014016c150 f   r_glsl.obj
 0001:0016b1c0       ?ResetShader@CGLSLShader@@QEAAXXZ 000000014016c1c0 f   r_glsl.obj
 0001:0016b2b0       ?InitAttribute@CGLSLShader@@QEAAHPEBDIHIPEBX@Z 000000014016c2b0 f   r_glsl.obj
 0001:0016b9d0       ??1glsl_attrib_t@CGLSLShader@@QEAA@XZ 000000014016c9d0 f i r_glsl.obj
 0001:0016b9d0       ??1glsl_determinator_t@CGLSLShader@@QEAA@XZ 000000014016c9d0 f i r_glsl.obj
 0001:0016ba10       ?EnableAttribute@CGLSLShader@@QEAAXH@Z 000000014016ca10 f   r_glsl.obj
 0001:0016bb20       ?DisableAttribute@CGLSLShader@@QEAAXH@Z 000000014016cb20 f   r_glsl.obj
 0001:0016bbe0       ?InitUniform@CGLSLShader@@QEAAHPEBDW4uniform_e@1@I@Z 000000014016cbe0 f   r_glsl.obj
 0001:0016c260       ??1glsl_uniform_t@CGLSLShader@@QEAA@XZ 000000014016d260 f i r_glsl.obj
 0001:0016c2c0       ?InitUniformBufferObject@CGLSLShader@@QEAAHPEBDI@Z 000000014016d2c0 f   r_glsl.obj
 0001:0016c870       ??1glsl_ubo_t@CGLSLShader@@QEAA@XZ 000000014016d870 f i r_glsl.obj
 0001:0016c8b0       ?VerifyDeterminators@CGLSLShader@@QEAA_NXZ 000000014016d8b0 f   r_glsl.obj
 0001:0016cf90       ?GetDeterminatorIndex@CGLSLShader@@QEAAHPEBD@Z 000000014016df90 f   r_glsl.obj
 0001:0016d270       ?resize@?$CArray@F@@QEAAXI@Z 000000014016e270 f i r_glsl.obj
 0001:0016d380       ??1?$CArray@Uglsl_determinator_t@CGLSLShader@@@@QEAA@XZ 000000014016e380 f i r_glsl.obj
 0001:0016d3d0       ?resize@?$CArray@Uglsl_determinator_t@CGLSLShader@@@@QEAAXI@Z 000000014016e3d0 f i r_glsl.obj
 0001:0016d590       ??1?$CArray@Uglsl_uniform_t@CGLSLShader@@@@QEAA@XZ 000000014016e590 f i r_glsl.obj
 0001:0016d5d0       ??1?$CArray@Uglsl_ubo_t@CGLSLShader@@@@QEAA@XZ 000000014016e5d0 f i r_glsl.obj
 0001:0016d620       ?resize@?$CArray@Uglsl_shader_t@CGLSLShader@@@@QEAAXI@Z 000000014016e620 f i r_glsl.obj
 0001:0016d730       ??1?$CArray@Uglsl_attrib_t@CGLSLShader@@@@QEAA@XZ 000000014016e730 f i r_glsl.obj
 0001:0016d770       ??_Eglsl_determinator_t@CGLSLShader@@QEAAPEAXI@Z 000000014016e770 f i r_glsl.obj
 0001:0016d7b0       ??_Eglsl_ubo_t@CGLSLShader@@QEAAPEAXI@Z 000000014016e7b0 f i r_glsl.obj
 0001:0016d7f0       ??_Eglsl_attrib_t@CGLSLShader@@QEAAPEAXI@Z 000000014016e7f0 f i r_glsl.obj
 0001:0016d830       ??4?$CArray@F@@QEAAXAEBV0@@Z 000000014016e830 f i r_glsl.obj
 0001:0016d8a0       ?resize@?$CArray@Uglsl_uniform_t@CGLSLShader@@@@QEAAXI@Z 000000014016e8a0 f i r_glsl.obj
 0001:0016da90       ?resize@?$CArray@Uglsl_ubo_t@CGLSLShader@@@@QEAAXI@Z 000000014016ea90 f i r_glsl.obj
 0001:0016dcb0       ?resize@?$CArray@Uglsl_attrib_t@CGLSLShader@@@@QEAAXI@Z 000000014016ecb0 f i r_glsl.obj
 0001:0016de70       ?resize@?$CArray@Uinvalid_state_t@CGLSLShader@@@@QEAAXI@Z 000000014016ee70 f i r_glsl.obj
 0001:0016e070       ?resize@?$CArray@Udisabled_state_t@CGLSLShader@@@@QEAAXI@Z 000000014016f070 f i r_glsl.obj
 0001:0016e220       ??0CVBO@@QEAA@AEBVCGLExtF@@PEBXI1I_N@Z 000000014016f220 f   r_vbo.obj
 0001:0016e440       ??0CVBO@@QEAA@AEBVCGLExtF@@_N1@Z 000000014016f440 f   r_vbo.obj
 0001:0016e520       ?ClearGL@CVBO@@QEAAXXZ     000000014016f520 f   r_vbo.obj
 0001:0016e5f0       ?RebindGL@CVBO@@QEAAXXZ    000000014016f5f0 f   r_vbo.obj
 0001:0016e710       ?Clear@CVBO@@QEAAXXZ       000000014016f710 f   r_vbo.obj
 0001:0016e900       ?Append@CVBO@@QEAA_NPEBXI0I@Z 000000014016f900 f   r_vbo.obj
 0001:0016eb10       ?SetAttribPointer@CVBO@@QEAAXHIIIPEBX@Z 000000014016fb10 f   r_vbo.obj
 0001:0016ebe0       ?DisableAttribPointer@CVBO@@QEAAXH@Z 000000014016fbe0 f   r_vbo.obj
 0001:0016ec60       ?VBOSubBufferData@CVBO@@QEAAXIPEBXI@Z 000000014016fc60 f   r_vbo.obj
 0001:0016ed20       ?Bind@CVBO@@QEAAXXZ        000000014016fd20 f   r_vbo.obj
 0001:0016ed80       ?UnBind@CVBO@@QEAAXXZ      000000014016fd80 f   r_vbo.obj
 0001:0016ede0       ?VBM_CalculateBoneAdjustments@@YAXPEBUstudiohdr_t@@MPEAMPEBM2E@Z 000000014016fde0 f   vbm_shared.obj
 0001:0016f120       ?VBM_InterpolateBones@@YAXPEBUstudiohdr_t@@PEAY03$$CBMPEBVVector@@12MPEAY03MPEAV2@@Z 0000000140170120 f   vbm_shared.obj
 0001:0016f370       ?VBM_GetAnimation@@YAPEBUmstudioanim_t@@PEBUstudiohdr_t@@PEBUmstudioseqdesc_t@@@Z 0000000140170370 f   vbm_shared.obj
 0001:0016f3e0       ?VBM_CalculateBoneQuaternion@@YAXHMPEBUmstudiobone_t@@PEBUmstudioanim_t@@PEBMAEAY03M@Z 00000001401703e0 f   vbm_shared.obj
 0001:0016f7e0       ?VBM_CalculateBonePosition@@YAXHMPEBUmstudiobone_t@@PEBUmstudioanim_t@@PEBMAEAVVector@@@Z 00000001401707e0 f   vbm_shared.obj
 0001:0016fa60       ?VBM_EstimateFrame@@YAMPEBUmstudioseqdesc_t@@AEBUentity_state_t@@N@Z 0000000140170a60 f   vbm_shared.obj
 0001:0016fb40       ?VBM_HasTransparentParts@@YA_NPEAUvbmheader_t@@_KH@Z 0000000140170b40 f   vbm_shared.obj
 0001:0016fd40       ?VBM_CalculateRotations@@YAXPEBUstudiohdr_t@@MMMPEAVVector@@PEAY03MPEBUmstudioseqdesc_t@@PEBUmstudioanim_t@@MPEBM5E@Z 0000000140170d40 f   vbm_shared.obj
 0001:0016ffc0       ?VBM_MeshBonesCompatible@@YA_NPEAUvbmmesh_t@@0PEAUvbmheader_t@@P6APEAUen_material_t@@H@Z@Z 0000000140170fc0 f   vbm_shared.obj
 0001:00170220       ?VBM_PostLoadCheckSubmodel@@YA_NPEAUvbmheader_t@@PEAUvbmsubmodel_t@@P6APEAUen_material_t@@H@Z@Z 0000000140171220 f   vbm_shared.obj
 0001:00170370       ?VBM_PostLoadVBMCheck@@YA_NPEAUvbmheader_t@@P6APEAUen_material_t@@H@Z@Z 0000000140171370 f   vbm_shared.obj
 0001:001705a0       ?getObject@ui_windowdescription_t@@QEBAPEBUui_objectinfo_t@@W4ui_object_type_t@@PEBD@Z 00000001401715a0 f i uiconsolewindow.obj
 0001:001706e0       ??_ECUIConsoleWindow@@UEAAPEAXI@Z 00000001401716e0 f i * CIL library *:* CIL module *
 0001:001706e0       ??_GCUIConsoleWindow@@UEAAPEAXI@Z 00000001401716e0 f i uiconsolewindow.obj
 0001:00170780       ?CreateInstance@CUIConsoleWindow@@SAPEAV1@XZ 0000000140171780 f   uiconsolewindow.obj
 0001:00170b10       ?init@CUIConsoleWindow@@UEAA_NPEBUui_windowdescription_t@@PEBUui_objectinfo_t@@@Z 0000000140171b10 f   uiconsolewindow.obj
 0001:001712f0       ?Execute@CUIConsoleWindow@@UEAAXXZ 00000001401722f0 f   uiconsolewindow.obj
 0001:00171470       ?GetNextBestInputChoice@CUIConsoleWindow@@UEAAXXZ 0000000140172470 f   uiconsolewindow.obj
 0001:00171670       ?ResetTabFilter@CUIConsoleWindow@@UEAAXXZ 0000000140172670 f   uiconsolewindow.obj
 0001:001716f0       ?SetHistoryText@CUIConsoleWindow@@UEAAXPEBD@Z 00000001401726f0 f   uiconsolewindow.obj
 0001:00171710       ?SaveInputText@CUIConsoleWindow@@UEAAXXZ 0000000140172710 f   uiconsolewindow.obj
 0001:00171810       ?RestoreInputText@CUIConsoleWindow@@UEAA_NXZ 0000000140172810 f   uiconsolewindow.obj
 0001:001718b0       ?ClearInputText@CUIConsoleWindow@@UEAAXXZ 00000001401728b0 f   uiconsolewindow.obj
 0001:001718d0       ?SetInputText@CUIConsoleWindow@@UEAAXPEBD@Z 00000001401728d0 f   uiconsolewindow.obj
 0001:001718f0       ?onGLInitialization@CUIConsoleWindow@@UEAAXXZ 00000001401728f0 f   uiconsolewindow.obj
 0001:001719b0       ?PerformAction@CUIConsoleExecuteCallback@@UEAAXM@Z 00000001401729b0 f   uiconsolewindow.obj
 0001:001719c0       ?KeyEvent@CUIConsoleKeyEventCallback@@UEAA_NHF_N@Z 00000001401729c0 f   uiconsolewindow.obj
 0001:00171b90       ?PerformAction@CUIDownloadWindowCancelEvent@@UEAAXM@Z 0000000140172b90 f i uidownloadwindow.obj
 0001:00171c00       ??_ECUIDownloadWindow@@UEAAPEAXI@Z 0000000140172c00 f i * CIL library *:* CIL module *
 0001:00171c00       ??_GCUIDownloadWindow@@UEAAPEAXI@Z 0000000140172c00 f i uidownloadwindow.obj
 0001:00171c80       ?CreateInstance@CUIDownloadWindow@@SAPEAV1@XZ 0000000140172c80 f   uidownloadwindow.obj
 0001:00171fa0       ?init@CUIDownloadWindow@@UEAA_NPEBUui_windowdescription_t@@PEBUui_objectinfo_t@@@Z 0000000140172fa0 f   uidownloadwindow.obj
 0001:001727c0       ?PerformAction@CUIExitWindowEvent@@UEAAXM@Z 00000001401737c0 f i uiexitwindow.obj
 0001:001727c0       ?PerformAction@CUINewGameWindowButtonEvent@@UEAAXM@Z 00000001401737c0 f i uinewgamewindow.obj
 0001:001727e0       ??_ECUIExitWindow@@UEAAPEAXI@Z 00000001401737e0 f i * CIL library *:* CIL module *
 0001:001727e0       ??_GCUIExitWindow@@UEAAPEAXI@Z 00000001401737e0 f i uiexitwindow.obj
 0001:00172840       ?CreateInstance@CUIExitWindow@@SAPEAV1@_N@Z 0000000140173840 f   uiexitwindow.obj
 0001:00172b40       ?init@CUIExitWindow@@UEAA_NPEBUui_windowdescription_t@@PEBUui_objectinfo_t@@_N@Z 0000000140173b40 f   uiexitwindow.obj
 0001:00173280       ?buttonPressed@CUIExitWindow@@UEAAXI@Z 0000000140174280 f   uiexitwindow.obj
 0001:00173360       ??_ECUINewGameWindow@@UEAAPEAXI@Z 0000000140174360 f i * CIL library *:* CIL module *
 0001:00173360       ??_GCUINewGameWindow@@UEAAPEAXI@Z 0000000140174360 f i uinewgamewindow.obj
 0001:001733c0       ?CreateInstance@CUINewGameWindow@@SAPEAV1@_N@Z 00000001401743c0 f   uinewgamewindow.obj
 0001:001736c0       ?init@CUINewGameWindow@@UEAA_NPEBUui_windowdescription_t@@PEBUui_objectinfo_t@@_N@Z 00000001401746c0 f   uinewgamewindow.obj
 0001:00173e50       ?buttonPressed@CUINewGameWindow@@UEAAXI@Z 0000000140174e50 f   uinewgamewindow.obj
 0001:00174680       ??0save_file_t@CUISaveLoadWindow@@QEAA@XZ 0000000140175680 f i uisaveloadwindow.obj
 0001:00174740       ??_ECUISaveLoadWindow@@UEAAPEAXI@Z 0000000140175740 f i * CIL library *:* CIL module *
 0001:00174740       ??_GCUISaveLoadWindow@@UEAAPEAXI@Z 0000000140175740 f i uisaveloadwindow.obj
 0001:00174880       ?CreateInstance@CUISaveLoadWindow@@SAPEAV1@_N@Z 0000000140175880 f   uisaveloadwindow.obj
 0001:00174be0       ?AddSaveFileInfo@CUISaveLoadWindow@@AEAAXAEBVCString@@AEAU_FILETIME@@@Z 0000000140175be0 f   uisaveloadwindow.obj
 0001:00175370       ??1save_file_t@CUISaveLoadWindow@@QEAA@XZ 0000000140176370 f i uisaveloadwindow.obj
 0001:00175390       ?CreateSaveFileRow@CUISaveLoadWindow@@AEAAXAEAUsave_file_t@1@I@Z 0000000140176390 f   uisaveloadwindow.obj
 0001:00175d10       ?init@CUISaveLoadWindow@@UEAA_NPEBUui_windowdescription_t@@PEBUui_objectinfo_t@@_N@Z 0000000140176d10 f   uisaveloadwindow.obj
 0001:00176740       ?setFocusState@CUISaveLoadWindow@@UEAAX_N@Z 0000000140177740 f   uisaveloadwindow.obj
 0001:001768a0       ?LoadSaves@CUISaveLoadWindow@@QEAAX_N@Z 00000001401778a0 f   uisaveloadwindow.obj
 0001:00176ec0       ?postThink@CUISaveLoadWindow@@UEAAXXZ 0000000140177ec0 f   uisaveloadwindow.obj
 0001:00176fc0       ?SetBackgroundTexture@CUISaveLoadWindow@@AEAAXPEAUsave_file_t@1@@Z 0000000140177fc0 f   uisaveloadwindow.obj
 0001:00177680       ?SetFocusOnRow@CUISaveLoadWindow@@QEAAXHH@Z 0000000140178680 f   uisaveloadwindow.obj
 0001:00177950       ?RowDoubleClickEvent@CUISaveLoadWindow@@QEAAXH@Z 0000000140178950 f   uisaveloadwindow.obj
 0001:00177b10       ?keyEvent@CUISaveLoadWindow@@UEAA_NHF_N@Z 0000000140178b10 f   uisaveloadwindow.obj
 0001:00177b50       ?MouseButtonEvent@CUISaveLoadWindowRowEvent@@UEAA_NHHH_N@Z 0000000140178b50 f   uisaveloadwindow.obj
 0001:00177bd0       ?PerformAction@CUISaveLoadWindowButtonEvent@@UEAAXM@Z 0000000140178bd0 f   uisaveloadwindow.obj
 0001:00177da0       ??_Esave_file_t@CUISaveLoadWindow@@QEAAPEAXI@Z 0000000140178da0 f i uisaveloadwindow.obj
 0001:00177de0       ??4save_file_t@CUISaveLoadWindow@@QEAAAEAU01@AEBU01@@Z 0000000140178de0 f i uisaveloadwindow.obj
 0001:001782e0       ?resize@?$CArray@Usave_file_t@CUISaveLoadWindow@@@@QEAAXI@Z 00000001401792e0 f i uisaveloadwindow.obj
 0001:00178460       ??1CUISettingsEventBase@@UEAA@XZ 0000000140179460 f i uisettingswindow.obj
 0001:00178470       ??_ECUISliderAdjustEvent@@UEAAPEAXI@Z 0000000140179470 f i * CIL library *:* CIL module *
 0001:00178470       ??_GCUISliderAdjustEvent@@UEAAPEAXI@Z 0000000140179470 f i uisettingswindow.obj
 0001:001784d0       ??_ECUITickBoxEvent@@UEAAPEAXI@Z 00000001401794d0 f i * CIL library *:* CIL module *
 0001:001784d0       ??_GCUITickBoxEvent@@UEAAPEAXI@Z 00000001401794d0 f i uisettingswindow.obj
 0001:00178530       ?SetRowIndex@CUIBindsRowEvent@@UEAAXI@Z 0000000140179530 f i uisettingswindow.obj
 0001:00178540       ??0scrollsurf_option_t@CUISettingsWindow@@QEAA@XZ 0000000140179540 f i uisettingswindow.obj
 0001:00178580       ??_ECUISettingsWindow@@UEAAPEAXI@Z 0000000140179580 f i * CIL library *:* CIL module *
 0001:00178580       ??_GCUISettingsWindow@@UEAAPEAXI@Z 0000000140179580 f i uisettingswindow.obj
 0001:001785c0       ??1CUISettingsWindow@@UEAA@XZ 00000001401795c0 f   uisettingswindow.obj
 0001:00178720       ?CreateInstance@CUISettingsWindow@@SAPEAV1@XZ 0000000140179720 f   uisettingswindow.obj
 0001:00178ad0       ?init@CUISettingsWindow@@UEAA_NPEBUui_windowdescription_t@@PEBUui_objectinfo_t@@@Z 0000000140179ad0 f   uisettingswindow.obj
 0001:001791b0       ?LoadScrollableOptionsList@CUISettingsWindow@@AEAA_NPEAVCUITabBody@@PEBUui_windowdescription_t@@PEBUui_objectinfo_t@@PEBD3@Z 000000014017a1b0 f   uisettingswindow.obj
 0001:0017b6d0       ??1scrollsurf_option_t@CUISettingsWindow@@QEAA@XZ 000000014017c6d0 f i uisettingswindow.obj
 0001:0017b770       ?AdvancedOptionSelect@CUISettingsWindow@@QEAAXII@Z 000000014017c770 f   uisettingswindow.obj
 0001:0017ba70       ?InitVideoTab@CUISettingsWindow@@AEAAPEAVCUITabBody@@PEAVCUITabList@@PEBUui_windowdescription_t@@PEBUui_objectinfo_t@@@Z 000000014017ca70 f   uisettingswindow.obj
 0001:0017d740       ?InitAudioTab@CUISettingsWindow@@AEAAPEAVCUITabBody@@PEAVCUITabList@@PEBUui_windowdescription_t@@PEBUui_objectinfo_t@@@Z 000000014017e740 f   uisettingswindow.obj
 0001:0017e790       ?PopulateResolutions@CUISettingsWindow@@AEAAXH@Z 000000014017f790 f   uisettingswindow.obj
 0001:0017eac0       ?PopulateMSAAList@CUISettingsWindow@@AEAAXXZ 000000014017fac0 f   uisettingswindow.obj
 0001:0017ed20       ?InitBindsTab@CUISettingsWindow@@AEAAPEAVCUITabBody@@PEAVCUITabList@@PEBUui_windowdescription_t@@PEBUui_objectinfo_t@@@Z 000000014017fd20 f   uisettingswindow.obj
 0001:0017f3b0       ?InitMouseTab@CUISettingsWindow@@AEAAPEAVCUITabBody@@PEAVCUITabList@@PEBUui_windowdescription_t@@PEBUui_objectinfo_t@@@Z 00000001401803b0 f   uisettingswindow.obj
 0001:00180540       ?InitGameplayTab@CUISettingsWindow@@AEAAPEAVCUITabBody@@PEAVCUITabList@@PEBUui_windowdescription_t@@PEBUui_objectinfo_t@@@Z 0000000140181540 f   uisettingswindow.obj
 0001:001812b0       ?AddTickBox@CUISettingsWindow@@AEAA_NPEAVCUITabBody@@PEBUui_windowdescription_t@@PEBUui_objectinfo_t@@AEBVCString@@33PEBD4@Z 00000001401822b0 f   uisettingswindow.obj
 0001:001817c0       ?LoadBindsList@CUISettingsWindow@@AEAAXXZ 00000001401827c0 f   uisettingswindow.obj
 0001:001820a0       ?ResetBindsList@CUISettingsWindow@@AEAAXXZ 00000001401830a0 f   uisettingswindow.obj
 0001:001822b0       ?AddPendingSetting@CUISettingsWindow@@AEAAXPEBD0@Z 00000001401832b0 f   uisettingswindow.obj
 0001:00182600       ?EnterBindMode@CUISettingsWindow@@QEAAXI@Z 0000000140183600 f   uisettingswindow.obj
 0001:00182670       ?LeaveBindMode@CUISettingsWindow@@QEAAXXZ 0000000140183670 f   uisettingswindow.obj
 0001:001826d0       ?postThink@CUISettingsWindow@@UEAAXXZ 00000001401836d0 f   uisettingswindow.obj
 0001:00182740       ?mouseButtonEvent@CUISettingsWindow@@UEAA_NHHH_N@Z 0000000140183740 f   uisettingswindow.obj
 0001:00182840       ?keyEvent@CUISettingsWindow@@UEAA_NHF_N@Z 0000000140183840 f   uisettingswindow.obj
 0001:001829a0       ?SetBind@CUISettingsWindow@@EEAAXPEBD0@Z 00000001401839a0 f   uisettingswindow.obj
 0001:00182d70       ?ClearSelectedKey@CUISettingsWindow@@QEAAXXZ 0000000140183d70 f   uisettingswindow.obj
 0001:00182fb0       ?ApplyChanges@CUISettingsWindow@@QEAAXXZ 0000000140183fb0 f   uisettingswindow.obj
 0001:00183190       ?SelectResolution@CUISettingsWindow@@QEAAXH@Z 0000000140184190 f   uisettingswindow.obj
 0001:00183370       ?CVarChanged@CUISettingsWindow@@QEAAXPEBDM@Z 0000000140184370 f   uisettingswindow.obj
 0001:001834e0       ?PerformAction@CUISettingsApplyEvent@@UEAAXM@Z 00000001401844e0 f   uisettingswindow.obj
 0001:001834f0       ?MouseButtonEvent@CUIBindsRowEvent@@UEAA_NHHH_N@Z 00000001401844f0 f   uisettingswindow.obj
 0001:00183590       ?PerformAction@CUITabSelectEvent@@UEAAXM@Z 0000000140184590 f   uisettingswindow.obj
 0001:001835b0       ?PerformAction@CUIBindsClearBtnEvent@@UEAAXM@Z 00000001401845b0 f   uisettingswindow.obj
 0001:001835c0       ?PerformAction@CUIBindsRestoreButtonEvent@@UEAAXM@Z 00000001401845c0 f   uisettingswindow.obj
 0001:001836e0       ?PerformAction@CUIBindsBindBtnEvent@@UEAAXM@Z 00000001401846e0 f   uisettingswindow.obj
 0001:00183700       ?PerformAction@CUIDeviceSelectEvent@@UEAAXM@Z 0000000140184700 f   uisettingswindow.obj
 0001:00183800       ?PerformAction@CUIResolutionSelectEvent@@UEAAXM@Z 0000000140184800 f   uisettingswindow.obj
 0001:00183820       ?PerformAction@CUIWindowModeSelectEvent@@UEAAXM@Z 0000000140184820 f   uisettingswindow.obj
 0001:00183940       ?PerformAction@CUIAnisotropySelectEvent@@UEAAXM@Z 0000000140184940 f   uisettingswindow.obj
 0001:00183ab0       ?PerformAction@CUIAntiAliasSelectEvent@@UEAAXM@Z 0000000140184ab0 f   uisettingswindow.obj
 0001:00183bc0       ?PerformAction@CUIVerticalSyncSelectEvent@@UEAAXM@Z 0000000140184bc0 f   uisettingswindow.obj
 0001:00183cd0       ?PerformAction@CUIScrollSurfaceDropListToggleEvent@@UEAAXM@Z 0000000140184cd0 f   uisettingswindow.obj
 0001:00183d90       ?PerformAction@CUIScrollSurfaceDropListSelectEvent@@UEAAXM@Z 0000000140184d90 f   uisettingswindow.obj
 0001:00183db0       ?PerformAction@CUITickBoxEvent@@UEAAXM@Z 0000000140184db0 f   uisettingswindow.obj
 0001:00183de0       ?PerformAction@CUISliderAdjustEvent@@UEAAXM@Z 0000000140184de0 f   uisettingswindow.obj
 0001:00184010       ?PerformAction@CUIHighDynamicRangeSelectEvent@@UEAAXM@Z 0000000140185010 f   uisettingswindow.obj
 0001:001840f0       ?PerformAction@CUIFramebufferObjectsSelectEvent@@UEAAXM@Z 00000001401850f0 f   uisettingswindow.obj
 0001:001841d0       ??A?$CArray@Uscrollsurf_option_t@CUISettingsWindow@@@@QEBAAEAUscrollsurf_option_t@CUISettingsWindow@@I@Z 00000001401851d0 f i uisettingswindow.obj
 0001:00184220       ??_Escrollsurf_option_t@CUISettingsWindow@@QEAAPEAXI@Z 0000000140185220 f i uisettingswindow.obj
 0001:00184260       ??4scrollsurf_option_t@CUISettingsWindow@@QEAAAEAU01@AEBU01@@Z 0000000140185260 f i uisettingswindow.obj
 0001:00184340       ?resize@?$CArray@Uscrollsurf_option_t@CUISettingsWindow@@@@QEAAXI@Z 0000000140185340 f i uisettingswindow.obj
 0001:001845d0       ogg_page_continued         00000001401855d0 f   libogg_static:framing.obj
 0001:001845e0       ogg_page_bos               00000001401855e0 f   libogg_static:framing.obj
 0001:001845f0       ogg_page_eos               00000001401855f0 f   libogg_static:framing.obj
 0001:00184600       ogg_page_granulepos        0000000140185600 f   libogg_static:framing.obj
 0001:00184660       ogg_page_serialno          0000000140185660 f   libogg_static:framing.obj
 0001:00184690       ogg_stream_init            0000000140185690 f   libogg_static:framing.obj
 0001:00184760       ogg_stream_clear           0000000140185760 f   libogg_static:framing.obj
 0001:00184950       ogg_page_checksum_set      0000000140185950 f   libogg_static:framing.obj
 0001:00184a10       ogg_sync_init              0000000140185a10 f   libogg_static:framing.obj
 0001:00184a30       ogg_sync_clear             0000000140185a30 f   libogg_static:framing.obj
 0001:00184a60       ogg_sync_buffer            0000000140185a60 f   libogg_static:framing.obj
 0001:00184b40       ogg_sync_wrote             0000000140185b40 f   libogg_static:framing.obj
 0001:00184b60       ogg_sync_pageseek          0000000140185b60 f   libogg_static:framing.obj
 0001:00184d10       ogg_stream_pagein          0000000140185d10 f   libogg_static:framing.obj
 0001:00185070       ogg_sync_reset             0000000140186070 f   libogg_static:framing.obj
 0001:00185090       ogg_stream_reset           0000000140186090 f   libogg_static:framing.obj
 0001:001850e0       ogg_stream_reset_serialno  00000001401860e0 f   libogg_static:framing.obj
 0001:00185240       ogg_stream_packetout       0000000140186240 f   libogg_static:framing.obj
 0001:00185260       ogg_stream_packetpeek      0000000140186260 f   libogg_static:framing.obj
 0001:00185280       oggpack_write              0000000140186280 f   libogg_static:bitwise.obj
 0001:001853d0       oggpack_look               00000001401863d0 f   libogg_static:bitwise.obj
 0001:00185490       oggpack_adv                0000000140186490 f   libogg_static:bitwise.obj
 0001:001854f0       oggpack_read               00000001401864f0 f   libogg_static:bitwise.obj
 0001:0018560b       __tailMerge_sdl2_dll       000000014018660b     SDL2:SDL2.dll
 0001:00185684       __imp_load_SDL_tolower     0000000140186684 f   SDL2:SDL2.dll
 0001:00185690       __imp_load_SDL_isdigit     0000000140186690 f   SDL2:SDL2.dll
 0001:0018569c       __imp_load_SDL_ceil        000000014018669c f   SDL2:SDL2.dll
 0001:001856a8       __imp_load_SDL_floor       00000001401866a8 f   SDL2:SDL2.dll
 0001:001856b4       __imp_load_SDL_isspace     00000001401866b4 f   SDL2:SDL2.dll
 0001:001856c0       __imp_load_SDL_toupper     00000001401866c0 f   SDL2:SDL2.dll
 0001:001856cc       __imp_load_SDL_atof        00000001401866cc f   SDL2:SDL2.dll
 0001:001856d8       __imp_load_SDL_fabs        00000001401866d8 f   SDL2:SDL2.dll
 0001:001856e4       __imp_load_SDL_GetBasePath 00000001401866e4 f   SDL2:SDL2.dll
 0001:001856f0       __imp_load_SDL_sqrt        00000001401866f0 f   SDL2:SDL2.dll
 0001:001856fc       __imp_load_SDL_cos         00000001401866fc f   SDL2:SDL2.dll
 0001:00185708       __imp_load_SDL_abs         0000000140186708 f   SDL2:SDL2.dll
 0001:00185714       __imp_load_SDL_sin         0000000140186714 f   SDL2:SDL2.dll
 0001:00185720       __imp_load_SDL_atan2f      0000000140186720 f   SDL2:SDL2.dll
 0001:0018572c       __imp_load_SDL_acos        000000014018672c f   SDL2:SDL2.dll
 0001:00185738       __imp_load_SDL_atan2       0000000140186738 f   SDL2:SDL2.dll
 0001:00185744       __imp_load_SDL_atoi        0000000140186744 f   SDL2:SDL2.dll
 0001:00185750       __imp_load_SDL_tan         0000000140186750 f   SDL2:SDL2.dll
 0001:0018575c       __imp_load_SDL_atan        000000014018675c f   SDL2:SDL2.dll
 0001:00185768       __imp_load_SDL_LoadFunction 0000000140186768 f   SDL2:SDL2.dll
 0001:00185774       __imp_load_SDL_UnloadObject 0000000140186774 f   SDL2:SDL2.dll
 0001:00185780       __imp_load_SDL_LoadObject  0000000140186780 f   SDL2:SDL2.dll
 0001:0018578c       __imp_load_SDL_ClearError  000000014018678c f   SDL2:SDL2.dll
 0001:00185798       __imp_load_SDL_GetError    0000000140186798 f   SDL2:SDL2.dll
 0001:001857a4       __imp_load_SDL_RWFromFile  00000001401867a4 f   SDL2:SDL2.dll
 0001:001857b0       __imp_load_SDL_sinf        00000001401867b0 f   SDL2:SDL2.dll
 0001:001857bc       __imp_load_SDL_cosf        00000001401867bc f   SDL2:SDL2.dll
 0001:001857c8       __imp_load_SDL_fmod        00000001401867c8 f   SDL2:SDL2.dll
 0001:001857d4       __imp_load_SDL_GetKeyName  00000001401867d4 f   SDL2:SDL2.dll
 0001:001857e0       __imp_load_SDL_GetKeyFromScancode 00000001401867e0 f   SDL2:SDL2.dll
 0001:001857ec       __imp_load_SDL_ShowCursor  00000001401867ec f   SDL2:SDL2.dll
 0001:001857f8       __imp_load_SDL_GetMouseState 00000001401867f8 f   SDL2:SDL2.dll
 0001:00185804       __imp_load_SDL_WarpMouseInWindow 0000000140186804 f   SDL2:SDL2.dll
 0001:00185810       __imp_load_SDL_GetWindowPosition 0000000140186810 f   SDL2:SDL2.dll
 0001:0018581c       __imp_load_SDL_Init        000000014018681c f   SDL2:SDL2.dll
 0001:00185828       __imp_load_SDL_Quit        0000000140186828 f   SDL2:SDL2.dll
 0001:00185834       SDL_ShowSimpleMessageBox   0000000140186834 f   SDL2:SDL2.dll
 0001:0018583a       __imp_load_SDL_ShowSimpleMessageBox 000000014018683a f   SDL2:SDL2.dll
 0001:00185846       __imp_load_SDL_ShowWindow  0000000140186846 f   SDL2:SDL2.dll
 0001:00185852       __imp_load_SDL_PollEvent   0000000140186852 f   SDL2:SDL2.dll
 0001:0018585e       __imp_load_SDL_GL_GetAttribute 000000014018685e f   SDL2:SDL2.dll
 0001:0018586a       __imp_load_SDL_GetDisplayMode 000000014018686a f   SDL2:SDL2.dll
 0001:00185876       __imp_load_SDL_GL_SwapWindow 0000000140186876 f   SDL2:SDL2.dll
 0001:00185882       __imp_load_SDL_GetNumDisplayModes 0000000140186882 f   SDL2:SDL2.dll
 0001:0018588e       __imp_load_SDL_GL_DeleteContext 000000014018688e f   SDL2:SDL2.dll
 0001:0018589a       __imp_load_SDL_GetDisplayBounds 000000014018689a f   SDL2:SDL2.dll
 0001:001858a6       __imp_load_SDL_GetNumVideoDisplays 00000001401868a6 f   SDL2:SDL2.dll
 0001:001858b2       __imp_load_SDL_DestroyWindow 00000001401868b2 f   SDL2:SDL2.dll
 0001:001858be       __imp_load_SDL_GL_SetAttribute 00000001401868be f   SDL2:SDL2.dll
 0001:001858ca       __imp_load_SDL_GetDisplayName 00000001401868ca f   SDL2:SDL2.dll
 0001:001858d6       __imp_load_SDL_VideoInit   00000001401868d6 f   SDL2:SDL2.dll
 0001:001858e2       __imp_load_SDL_GL_CreateContext 00000001401868e2 f   SDL2:SDL2.dll
 0001:001858ee       __imp_load_SDL_GL_SetSwapInterval 00000001401868ee f   SDL2:SDL2.dll
 0001:001858fa       __imp_load_SDL_GetCurrentDisplayMode 00000001401868fa f   SDL2:SDL2.dll
 0001:00185906       __imp_load_SDL_CreateWindow 0000000140186906 f   SDL2:SDL2.dll
 0001:00185912       __imp_load_SDL_VideoQuit   0000000140186912 f   SDL2:SDL2.dll
 0001:00185bb0       FT_Done_Glyph              0000000140186bb0 f   freetype253:ftglyph.obj
 0001:00185bf0       FT_Get_Glyph               0000000140186bf0 f   freetype253:ftglyph.obj
 0001:00185ce0       FT_Glyph_Copy              0000000140186ce0 f   freetype253:ftglyph.obj
 0001:00185da0       FT_Glyph_Get_CBox          0000000140186da0 f   freetype253:ftglyph.obj
 0001:00185e30       FT_Glyph_To_Bitmap         0000000140186e30 f   freetype253:ftglyph.obj
 0001:00186000       FT_Glyph_Transform         0000000140187000 f   freetype253:ftglyph.obj
 0001:00186560       FT_Activate_Size           0000000140187560 f   freetype253:ftbase.obj
 0001:001865b0       FT_Add_Module              00000001401875b0 f   freetype253:ftbase.obj
 0001:001867a0       FT_Angle_Diff              00000001401877a0 f   freetype253:ftbase.obj
 0001:001867e0       FT_Atan2                   00000001401877e0 f   freetype253:ftbase.obj
 0001:00186820       FT_CMap_New                0000000140187820 f   freetype253:ftbase.obj
 0001:00186940       FT_Cos                     0000000140187940 f   freetype253:ftbase.obj
 0001:00186970       FT_DivFix                  0000000140187970 f   freetype253:ftbase.obj
 0001:00186a20       FT_Done_Face               0000000140187a20 f   freetype253:ftbase.obj
 0001:00186af0       FT_Done_GlyphSlot          0000000140187af0 f   freetype253:ftbase.obj
 0001:00186b80       FT_Done_Library            0000000140187b80 f   freetype253:ftbase.obj
 0001:00186ce0       FT_Done_Size               0000000140187ce0 f   freetype253:ftbase.obj
 0001:00186df0       FT_Get_Advance             0000000140187df0 f   freetype253:ftbase.obj
 0001:00186ec0       FT_Get_Advances            0000000140187ec0 f   freetype253:ftbase.obj
 0001:00187010       FT_Get_CMap_Format         0000000140188010 f   freetype253:ftbase.obj
 0001:00187070       FT_Get_Char_Index          0000000140188070 f   freetype253:ftbase.obj
 0001:00187090       FT_Get_Glyph_Name          0000000140188090 f   freetype253:ftbase.obj
 0001:00187160       FT_Get_Module              0000000140188160 f   freetype253:ftbase.obj
 0001:001871f0       FT_Get_Module_Interface    00000001401881f0 f   freetype253:ftbase.obj
 0001:00187210       FT_Get_Next_Char           0000000140188210 f   freetype253:ftbase.obj
 0001:00187290       FT_GlyphLoader_Add         0000000140188290 f   freetype253:ftbase.obj
 0001:00187470       FT_GlyphLoader_CheckPoints 0000000140188470 f   freetype253:ftbase.obj
 0001:00187630       FT_GlyphLoader_CheckSubGlyphs 0000000140188630 f   freetype253:ftbase.obj
 0001:001876b0       FT_GlyphLoader_CopyPoints  00000001401886b0 f   freetype253:ftbase.obj
 0001:00187790       FT_GlyphLoader_CreateExtra 0000000140188790 f   freetype253:ftbase.obj
 0001:00187800       FT_GlyphLoader_Done        0000000140188800 f   freetype253:ftbase.obj
 0001:00187830       FT_GlyphLoader_New         0000000140188830 f   freetype253:ftbase.obj
 0001:00187870       FT_GlyphLoader_Prepare     0000000140188870 f   freetype253:ftbase.obj
 0001:001878a0       FT_GlyphLoader_Reset       00000001401888a0 f   freetype253:ftbase.obj
 0001:00187930       FT_GlyphLoader_Rewind      0000000140188930 f   freetype253:ftbase.obj
 0001:00187970       FT_Hypot                   0000000140188970 f   freetype253:ftbase.obj
 0001:00187990       FT_List_Add                0000000140188990 f   freetype253:ftbase.obj
 0001:001879c0       FT_List_Finalize           00000001401889c0 f   freetype253:ftbase.obj
 0001:00187a50       FT_List_Find               0000000140188a50 f   freetype253:ftbase.obj
 0001:00187a70       FT_List_Remove             0000000140188a70 f   freetype253:ftbase.obj
 0001:00187aa0       FT_List_Up                 0000000140188aa0 f   freetype253:ftbase.obj
 0001:00187ae0       FT_Load_Glyph              0000000140188ae0 f   freetype253:ftbase.obj
 0001:00187e40       FT_Lookup_Renderer         0000000140188e40 f   freetype253:ftbase.obj
 0001:00187ea0       FT_MSB                     0000000140188ea0 f   freetype253:ftbase.obj
 0001:00187f10       FT_Match_Size              0000000140188f10 f   freetype253:ftbase.obj
 0001:00188030       FT_Matrix_Invert           0000000140189030 f   freetype253:ftbase.obj
 0001:001880e0       FT_Matrix_Multiply_Scaled  00000001401890e0 f   freetype253:ftbase.obj
 0001:00188210       FT_MulDiv                  0000000140189210 f   freetype253:ftbase.obj
 0001:00188300       FT_MulDiv_No_Round         0000000140189300 f   freetype253:ftbase.obj
 0001:001883c0       FT_MulFix                  00000001401893c0 f   freetype253:ftbase.obj
 0001:00188460       FT_New_GlyphSlot           0000000140189460 f   freetype253:ftbase.obj
 0001:00188530       FT_New_Library             0000000140189530 f   freetype253:ftbase.obj
 0001:00188600       FT_New_Memory_Face         0000000140189600 f   freetype253:ftbase.obj
 0001:00188650       FT_New_Size                0000000140189650 f   freetype253:ftbase.obj
 0001:00188770       FT_Open_Face               0000000140189770 f   freetype253:ftbase.obj
 0001:00188bc0       FT_Outline_Check           0000000140189bc0 f   freetype253:ftbase.obj
 0001:00188c30       FT_Outline_Copy            0000000140189c30 f   freetype253:ftbase.obj
 0001:00188cd0       FT_Outline_Decompose       0000000140189cd0 f   freetype253:ftbase.obj
 0001:00189040       FT_Outline_Done            000000014018a040 f   freetype253:ftbase.obj
 0001:00189060       FT_Outline_Done_Internal   000000014018a060 f   freetype253:ftbase.obj
 0001:001890f0       FT_Outline_Get_CBox        000000014018a0f0 f   freetype253:ftbase.obj
 0001:001891a0       FT_Outline_Get_Orientation 000000014018a1a0 f   freetype253:ftbase.obj
 0001:001893d0       FT_Outline_New             000000014018a3d0 f   freetype253:ftbase.obj
 0001:001893f0       FT_Outline_New_Internal    000000014018a3f0 f   freetype253:ftbase.obj
 0001:00189560       FT_Outline_Transform       000000014018a560 f   freetype253:ftbase.obj
 0001:001895c0       FT_Outline_Translate       000000014018a5c0 f   freetype253:ftbase.obj
 0001:00189600       FT_Raccess_Get_DataOffsets 000000014018a600 f   freetype253:ftbase.obj
 0001:001898f0       FT_Raccess_Get_HeaderInfo  000000014018a8f0 f   freetype253:ftbase.obj
 0001:00189c10       FT_Raccess_Guess           000000014018ac10 f   freetype253:ftbase.obj
 0001:00189ce0       FT_Remove_Module           000000014018ace0 f   freetype253:ftbase.obj
 0001:00189d80       FT_Render_Glyph            000000014018ad80 f   freetype253:ftbase.obj
 0001:00189db0       FT_Render_Glyph_Internal   000000014018adb0 f   freetype253:ftbase.obj
 0001:00189ea0       FT_Request_Metrics         000000014018aea0 f   freetype253:ftbase.obj
 0001:0018a0f0       FT_Request_Size            000000014018b0f0 f   freetype253:ftbase.obj
 0001:0018a190       FT_RoundFix                000000014018b190 f   freetype253:ftbase.obj
 0001:0018a1b0       FT_Select_Charmap          000000014018b1b0 f   freetype253:ftbase.obj
 0001:0018a220       FT_Select_Metrics          000000014018b220 f   freetype253:ftbase.obj
 0001:0018a2e0       FT_Select_Size             000000014018b2e0 f   freetype253:ftbase.obj
 0001:0018a350       FT_Set_Charmap             000000014018b350 f   freetype253:ftbase.obj
 0001:0018a400       FT_Set_Pixel_Sizes         000000014018b400 f   freetype253:ftbase.obj
 0001:0018a480       FT_Set_Renderer            000000014018b480 f   freetype253:ftbase.obj
 0001:0018a540       FT_Sin                     000000014018b540 f   freetype253:ftbase.obj
 0001:0018a550       FT_Stream_Close            000000014018b550 f   freetype253:ftbase.obj
 0001:0018a570       FT_Stream_EnterFrame       000000014018b570 f   freetype253:ftbase.obj
 0001:0018a670       FT_Stream_ExitFrame        000000014018b670 f   freetype253:ftbase.obj
 0001:0018a6b0       FT_Stream_ExtractFrame     000000014018b6b0 f   freetype253:ftbase.obj
 0001:0018a6f0       FT_Stream_Free             000000014018b6f0 f   freetype253:ftbase.obj
 0001:0018a740       FT_Stream_GetChar          000000014018b740 f   freetype253:ftbase.obj
 0001:0018a760       FT_Stream_GetULong         000000014018b760 f   freetype253:ftbase.obj
 0001:0018a7b0       FT_Stream_GetULongLE       000000014018b7b0 f   freetype253:ftbase.obj
 0001:0018a800       FT_Stream_GetUShort        000000014018b800 f   freetype253:ftbase.obj
 0001:0018a840       FT_Stream_GetUShortLE      000000014018b840 f   freetype253:ftbase.obj
 0001:0018a880       FT_Stream_New              000000014018b880 f   freetype253:ftbase.obj
 0001:0018a980       FT_Stream_OpenMemory       000000014018b980 f   freetype253:ftbase.obj
 0001:0018a9a0       FT_Stream_Pos              000000014018b9a0 f   freetype253:ftbase.obj
 0001:0018a9b0       FT_Stream_Read             000000014018b9b0 f   freetype253:ftbase.obj
 0001:0018a9c0       FT_Stream_ReadAt           000000014018b9c0 f   freetype253:ftbase.obj
 0001:0018aa40       FT_Stream_ReadChar         000000014018ba40 f   freetype253:ftbase.obj
 0001:0018aac0       FT_Stream_ReadFields       000000014018bac0 f   freetype253:ftbase.obj
 0001:0018ad40       FT_Stream_ReadULong        000000014018bd40 f   freetype253:ftbase.obj
 0001:0018adf0       FT_Stream_ReadULongLE      000000014018bdf0 f   freetype253:ftbase.obj
 0001:0018aea0       FT_Stream_ReadUOffset      000000014018bea0 f   freetype253:ftbase.obj
 0001:0018af30       FT_Stream_ReadUShort       000000014018bf30 f   freetype253:ftbase.obj
 0001:0018afd0       FT_Stream_ReadUShortLE     000000014018bfd0 f   freetype253:ftbase.obj
 0001:0018b070       FT_Stream_ReleaseFrame     000000014018c070 f   freetype253:ftbase.obj
 0001:0018b0b0       FT_Stream_Seek             000000014018c0b0 f   freetype253:ftbase.obj
 0001:0018b110       FT_Stream_Skip             000000014018c110 f   freetype253:ftbase.obj
 0001:0018b130       FT_Stream_TryRead          000000014018c130 f   freetype253:ftbase.obj
 0001:0018b1b0       FT_Tan                     000000014018c1b0 f   freetype253:ftbase.obj
 0001:0018b1e0       FT_Vector_From_Polar       000000014018c1e0 f   freetype253:ftbase.obj
 0001:0018b200       FT_Vector_Length           000000014018c200 f   freetype253:ftbase.obj
 0001:0018b290       FT_Vector_Rotate           000000014018c290 f   freetype253:ftbase.obj
 0001:0018b360       FT_Vector_Transform        000000014018c360 f   freetype253:ftbase.obj
 0001:0018b3e0       FT_Vector_Transform_Scaled 000000014018c3e0 f   freetype253:ftbase.obj
 0001:0018c000       ft_corner_is_flat          000000014018d000 f   freetype253:ftbase.obj
 0001:0018c070       ft_corner_orientation      000000014018d070 f   freetype253:ftbase.obj
 0001:0018c1b0       ft_glyphslot_alloc_bitmap  000000014018d1b0 f   freetype253:ftbase.obj
 0001:0018c330       ft_glyphslot_free_bitmap   000000014018d330 f   freetype253:ftbase.obj
 0001:0018c500       ft_glyphslot_set_bitmap    000000014018d500 f   freetype253:ftbase.obj
 0001:0018c530       ft_highpow2                000000014018d530 f   freetype253:ftbase.obj
 0001:0018c720       ft_mem_alloc               000000014018d720 f   freetype253:ftbase.obj
 0001:0018c780       ft_mem_dup                 000000014018d780 f   freetype253:ftbase.obj
 0001:0018c7e0       ft_mem_free                000000014018d7e0 f   freetype253:ftbase.obj
 0001:0018c7f0       ft_mem_qalloc              000000014018d7f0 f   freetype253:ftbase.obj
 0001:0018c850       ft_mem_qrealloc            000000014018d850 f   freetype253:ftbase.obj
 0001:0018c910       ft_mem_realloc             000000014018d910 f   freetype253:ftbase.obj
 0001:0018c9a0       ft_mem_strcpyn             000000014018d9a0 f   freetype253:ftbase.obj
 0001:0018c9d0       ft_mem_strdup              000000014018d9d0 f   freetype253:ftbase.obj
 0001:0018ca00       ft_module_get_service      000000014018da00 f   freetype253:ftbase.obj
 0001:0018cc70       ft_service_list_lookup     000000014018dc70 f   freetype253:ftbase.obj
 0001:0018cd00       ft_synthesize_vertical_metrics 000000014018dd00 f   freetype253:ftbase.obj
 0001:0018d030       ft_validator_error         000000014018e030 f   freetype253:ftbase.obj
 0001:0018d050       ft_validator_init          000000014018e050 f   freetype253:ftbase.obj
 0001:0018da00       FT_Glyph_StrokeBorder      000000014018ea00 f   freetype253:ftstroke.obj
 0001:0018db50       FT_Outline_GetOutsideBorder 000000014018eb50 f   freetype253:ftstroke.obj
 0001:0018db70       FT_Stroker_BeginSubPath    000000014018eb70 f   freetype253:ftstroke.obj
 0001:0018dbc0       FT_Stroker_ConicTo         000000014018ebc0 f   freetype253:ftstroke.obj
 0001:0018e080       FT_Stroker_CubicTo         000000014018f080 f   freetype253:ftstroke.obj
 0001:0018e5e0       FT_Stroker_EndSubPath      000000014018f5e0 f   freetype253:ftstroke.obj
 0001:0018e6f0       FT_Stroker_ExportBorder    000000014018f6f0 f   freetype253:ftstroke.obj
 0001:0018e720       FT_Stroker_GetBorderCounts 000000014018f720 f   freetype253:ftstroke.obj
 0001:0018e7a0       FT_Stroker_LineTo          000000014018f7a0 f   freetype253:ftstroke.obj
 0001:0018e8f0       FT_Stroker_New             000000014018f8f0 f   freetype253:ftstroke.obj
 0001:0018e970       FT_Stroker_ParseOutline    000000014018f970 f   freetype253:ftstroke.obj
 0001:0018ec50       FT_Stroker_Rewind          000000014018fc50 f   freetype253:ftstroke.obj
 0001:0018ec80       FT_Stroker_Set             000000014018fc80 f   freetype253:ftstroke.obj
 0001:0018ff20       FT_Add_Default_Modules     0000000140190f20 f   freetype253:ftinit.obj
 0001:0018ff70       FT_Done_FreeType           0000000140190f70 f   freetype253:ftinit.obj
 0001:0018ffa0       FT_Init_FreeType           0000000140190fa0 f   freetype253:ftinit.obj
 0001:00190020       FT_Bitmap_Convert          0000000140191020 f   freetype253:ftbitmap.obj
 0001:001904d0       FT_Bitmap_Copy             00000001401914d0 f   freetype253:ftbitmap.obj
 0001:001905d0       FT_Bitmap_Done             00000001401915d0 f   freetype253:ftbitmap.obj
 0001:00190630       FT_Bitmap_New              0000000140191630 f   freetype253:ftbitmap.obj
 0001:00190760       FT_Done_Memory             0000000140191760 f   freetype253:ftsystem.obj
 0001:00190770       FT_New_Memory              0000000140191770 f   freetype253:ftsystem.obj
 0001:001907b0       FT_Stream_Open             00000001401917b0 f   freetype253:ftsystem.obj
 0001:001933b0       af_get_char_index          00000001401943b0 f   freetype253:autofit.obj
 0001:0019cb60       TT_New_Context             000000014019db60 f   freetype253:truetype.obj
 0001:0019d1d0       TT_RunIns                  000000014019e1d0 f   freetype253:truetype.obj
 0001:001bf790       ps_hints_apply             00000001401c0790 f   freetype253:pshinter.obj
 0001:001d31c0       FT_Gzip_Uncompress         00000001401d41c0 f   freetype253:ftgzip.obj
 0001:001d32e0       FT_Stream_OpenGzip         00000001401d42e0 f   freetype253:ftgzip.obj
 0001:001d5db0       FT_Stream_OpenLZW          00000001401d6db0 f   freetype253:ftlzw.obj
 0001:001d6220       ft_lzwstate_done           00000001401d7220 f   freetype253:ftlzw.obj
 0001:001d6390       ft_lzwstate_init           00000001401d7390 f   freetype253:ftlzw.obj
 0001:001d6400       ft_lzwstate_io             00000001401d7400 f   freetype253:ftlzw.obj
 0001:001d67e0       ft_lzwstate_reset          00000001401d77e0 f   freetype253:ftlzw.obj
 0001:001d68a8       __tailMerge_openal32_dll   00000001401d78a8     openal32:OpenAL32.dll
 0001:001d6921       __imp_load_alDeleteSources 00000001401d7921 f   openal32:OpenAL32.dll
 0001:001d692d       __imp_load_alBufferData    00000001401d792d f   openal32:OpenAL32.dll
 0001:001d6939       __imp_load_alListenerfv    00000001401d7939 f   openal32:OpenAL32.dll
 0001:001d6945       __imp_load_alDeleteBuffers 00000001401d7945 f   openal32:OpenAL32.dll
 0001:001d6951       __imp_load_alDopplerVelocity 00000001401d7951 f   openal32:OpenAL32.dll
 0001:001d695d       __imp_load_alSource3f      00000001401d795d f   openal32:OpenAL32.dll
 0001:001d6969       __imp_load_alGenSources    00000001401d7969 f   openal32:OpenAL32.dll
 0001:001d6975       __imp_load_alcMakeContextCurrent 00000001401d7975 f   openal32:OpenAL32.dll
 0001:001d6981       __imp_load_alcDestroyContext 00000001401d7981 f   openal32:OpenAL32.dll
 0001:001d698d       __imp_load_alSourceUnqueueBuffers 00000001401d798d f   openal32:OpenAL32.dll
 0001:001d6999       __imp_load_alDistanceModel 00000001401d7999 f   openal32:OpenAL32.dll
 0001:001d69a5       __imp_load_alcOpenDevice   00000001401d79a5 f   openal32:OpenAL32.dll
 0001:001d69b1       __imp_load_alSourcePause   00000001401d79b1 f   openal32:OpenAL32.dll
 0001:001d69bd       __imp_load_alSourcePlay    00000001401d79bd f   openal32:OpenAL32.dll
 0001:001d69c9       __imp_load_alGetProcAddress 00000001401d79c9 f   openal32:OpenAL32.dll
 0001:001d69d5       __imp_load_alGetSourcei    00000001401d79d5 f   openal32:OpenAL32.dll
 0001:001d69e1       __imp_load_alSourceStop    00000001401d79e1 f   openal32:OpenAL32.dll
 0001:001d69ed       __imp_load_alcCreateContext 00000001401d79ed f   openal32:OpenAL32.dll
 0001:001d69f9       __imp_load_alcGetIntegerv  00000001401d79f9 f   openal32:OpenAL32.dll
 0001:001d6a05       __imp_load_alGetString     00000001401d7a05 f   openal32:OpenAL32.dll
 0001:001d6a11       __imp_load_alListenerf     00000001401d7a11 f   openal32:OpenAL32.dll
 0001:001d6a1d       __imp_load_alSourcefv      00000001401d7a1d f   openal32:OpenAL32.dll
 0001:001d6a29       __imp_load_alGenBuffers    00000001401d7a29 f   openal32:OpenAL32.dll
 0001:001d6a35       __imp_load_alSourceQueueBuffers 00000001401d7a35 f   openal32:OpenAL32.dll
 0001:001d6a41       __imp_load_alcCloseDevice  00000001401d7a41 f   openal32:OpenAL32.dll
 0001:001d6a4d       __imp_load_alListener3f    00000001401d7a4d f   openal32:OpenAL32.dll
 0001:001d6a59       __imp_load_alSourcei       00000001401d7a59 f   openal32:OpenAL32.dll
 0001:001d6a65       __imp_load_alSourcef       00000001401d7a65 f   openal32:OpenAL32.dll
 0001:001d6a71       __imp_load_alDopplerFactor 00000001401d7a71 f   openal32:OpenAL32.dll
 0001:001d6a7d       __imp_load_alSource3i      00000001401d7a7d f   openal32:OpenAL32.dll
 0001:001d8220       ov_clear                   00000001401d9220 f   libvorbisfile_static:vorbisfile.obj
 0001:001d8340       ov_info                    00000001401d9340 f   libvorbisfile_static:vorbisfile.obj
 0001:001d8390       ov_open_callbacks          00000001401d9390 f   libvorbisfile_static:vorbisfile.obj
 0001:001d83e0       ov_pcm_seek                00000001401d93e0 f   libvorbisfile_static:vorbisfile.obj
 0001:001d8740       ov_pcm_seek_page           00000001401d9740 f   libvorbisfile_static:vorbisfile.obj
 0001:001d8f20       ov_pcm_total               00000001401d9f20 f   libvorbisfile_static:vorbisfile.obj
 0001:001d8fa0       ov_raw_seek                00000001401d9fa0 f   libvorbisfile_static:vorbisfile.obj
 0001:001d93d0       ov_read                    00000001401da3d0 f   libvorbisfile_static:vorbisfile.obj
 0001:001d9410       ov_read_filter             00000001401da410 f   libvorbisfile_static:vorbisfile.obj
 0001:001d97c0       ov_time_seek               00000001401da7c0 f   libvorbisfile_static:vorbisfile.obj
 0001:001d98c0       ov_time_total              00000001401da8c0 f   libvorbisfile_static:vorbisfile.obj
 0001:001d995f       __WSAFDIsSet               00000001401da95f f   ws2_32:WS2_32.dll
 0001:001d9965       __imp_load_SDL_RWtell      00000001401da965 f   SDL2:SDL2.dll
 0001:001d9971       __imp_load_SDL_RWclose     00000001401da971 f   SDL2:SDL2.dll
 0001:001d997d       __imp_load_SDL_RWwrite     00000001401da97d f   SDL2:SDL2.dll
 0001:001d9989       __imp_load_SDL_RWread      00000001401da989 f   SDL2:SDL2.dll
 0001:001d9995       __imp_load_SDL_RWseek      00000001401da995 f   SDL2:SDL2.dll
 0001:001d99a4       ?DloadAcquireSectionWriteAccess@@YAXXZ 00000001401da9a4 f i Delayimp:delayhlp.obj
 0001:001d9a50       ?DloadGetSRWLockFunctionPointers@@YAEXZ 00000001401daa50 f i Delayimp:delayhlp.obj
 0001:001d9af0       ?DloadMakePermanentImageCommit@@YAXPEAX_K@Z 00000001401daaf0 f i Delayimp:delayhlp.obj
 0001:001d9b88       ?DloadObtainSection@@YAPEAXPEAK0@Z 00000001401dab88 f i Delayimp:delayhlp.obj
 0001:001d9c24       ?DloadProtectSection@@YAXKPEAK@Z 00000001401dac24 f i Delayimp:delayhlp.obj
 0001:001d9cb4       ?DloadReleaseSectionWriteAccess@@YAXXZ 00000001401dacb4 f i Delayimp:delayhlp.obj
 0001:001d9d48       __delayLoadHelper2         00000001401dad48 f   Delayimp:delayhlp.obj
 0001:001da020       ??$_Reallocate_grow_by@V<lambda_1>@?1??push_back@?$basic_string@DU?$char_traits@D@std@@V?$allocator@D@2@@std@@QEAAXD@Z@D@?$basic_string@DU?$char_traits@D@std@@V?$allocator@D@2@@std@@AEAAAEAV01@_KV<lambda_1>@?1??push_back@01@QEAAXD@Z@D@Z 00000001401db020 f i libcpmt:cout.obj
 0001:001da1fc       ??$use_facet@V?$codecvt@DDU_Mbstatet@@@std@@@std@@YAAEBV?$codecvt@DDU_Mbstatet@@@0@AEBVlocale@0@@Z 00000001401db1fc f i libcpmt:cout.obj
 0001:001da314       ??$use_facet@V?$ctype@D@std@@@std@@YAAEBV?$ctype@D@0@AEBVlocale@0@@Z 00000001401db314 f i libcpmt:cout.obj
 0001:001da42c       ??0?$basic_ostream@DU?$char_traits@D@std@@@std@@QEAA@PEAV?$basic_streambuf@DU?$char_traits@D@std@@@1@_N@Z 00000001401db42c f i libcpmt:cout.obj
 0001:001da4cc       ??0?$basic_streambuf@DU?$char_traits@D@std@@@std@@IEAA@XZ 00000001401db4cc f i libcpmt:cout.obj
 0001:001da5b4       ??0_Locinfo@std@@QEAA@PEBD@Z 00000001401db5b4 f i libcpmt:cout.obj
 0001:001da62c       ??0bad_cast@std@@QEAA@AEBV01@@Z 00000001401db62c f i libcpmt:cout.obj
 0001:001da668       ??0bad_cast@std@@QEAA@XZ   00000001401db668 f i libcpmt:cout.obj
 0001:001da688       ??1?$_Yarn@D@std@@QEAA@XZ  00000001401db688 f i libcpmt:cout.obj
 0001:001da688       ??1?$_Yarn@_W@std@@QEAA@XZ 00000001401db688 f i libcpmt:cout.obj
 0001:001da6a8       ??1?$basic_filebuf@DU?$char_traits@D@std@@@std@@UEAA@XZ 00000001401db6a8 f i libcpmt:cout.obj
 0001:001da758       ??1?$basic_ios@DU?$char_traits@D@std@@@std@@UEAA@XZ 00000001401db758 f i libcpmt:cout.obj
 0001:001da774       ??1?$unique_ptr@V_Facet_base@std@@U?$default_delete@V_Facet_base@std@@@2@@std@@QEAA@XZ 00000001401db774 f i libcpmt:cout.obj
 0001:001da798       ??1_Locinfo@std@@QEAA@XZ   00000001401db798 f i libcpmt:cout.obj
 0001:001da828       ??1bad_cast@std@@UEAA@XZ   00000001401db828 f i libcpmt:cout.obj
 0001:001da828       ??1length_error@std@@UEAA@XZ 00000001401db828 f i libcpmt:xthrow.obj
 0001:001da828       ??1out_of_range@std@@UEAA@XZ 00000001401db828 f i libcpmt:xthrow.obj
 0001:001da83c       ??1locale@std@@QEAA@XZ     00000001401db83c f i libcpmt:cout.obj
 0001:001da878       ??_E?$basic_ostream@DU?$char_traits@D@std@@@std@@$4PPPPPPPM@A@EAAPEAXI@Z 00000001401db878 f i libcpmt:cout.obj
 0001:001da884       ??_E?$basic_filebuf@DU?$char_traits@D@std@@@std@@UEAAPEAXI@Z 00000001401db884 f i libcpmt:cout.obj
 0001:001da884       ??_G?$basic_filebuf@DU?$char_traits@D@std@@@std@@UEAAPEAXI@Z 00000001401db884 f i libcpmt:cout.obj
 0001:001da8b8       ??_E?$basic_ios@DU?$char_traits@D@std@@@std@@UEAAPEAXI@Z 00000001401db8b8 f i libcpmt:cout.obj
 0001:001da8b8       ??_G?$basic_ios@DU?$char_traits@D@std@@@std@@UEAAPEAXI@Z 00000001401db8b8 f i libcpmt:cout.obj
 0001:001da8f8       ??_E?$basic_ostream@DU?$char_traits@D@std@@@std@@UEAAPEAXI@Z 00000001401db8f8 f i libcpmt:cout.obj
 0001:001da8f8       ??_G?$basic_ostream@DU?$char_traits@D@std@@@std@@UEAAPEAXI@Z 00000001401db8f8 f i libcpmt:cout.obj
 0001:001da95c       ??_E?$basic_streambuf@DU?$char_traits@D@std@@@std@@UEAAPEAXI@Z 00000001401db95c f i libcpmt:cout.obj
 0001:001da95c       ??_G?$basic_streambuf@DU?$char_traits@D@std@@@std@@UEAAPEAXI@Z 00000001401db95c f i libcpmt:cout.obj
 0001:001da9e8       ??_E?$codecvt@DDU_Mbstatet@@@std@@MEAAPEAXI@Z 00000001401db9e8 f i libcpmt:cout.obj
 0001:001da9e8       ??_G?$codecvt@DDU_Mbstatet@@@std@@MEAAPEAXI@Z 00000001401db9e8 f i libcpmt:cout.obj
 0001:001daa14       ??_E?$ctype@D@std@@MEAAPEAXI@Z 00000001401dba14 f i libcpmt:cout.obj
 0001:001daa14       ??_G?$ctype@D@std@@MEAAPEAXI@Z 00000001401dba14 f i libcpmt:cout.obj
 0001:001daa80       ??_E_Facet_base@std@@UEAAPEAXI@Z 00000001401dba80 f i libcpmt:cout.obj
 0001:001daa80       ??_G_Facet_base@std@@UEAAPEAXI@Z 00000001401dba80 f i libcpmt:cout.obj
 0001:001daaac       ??_Ebad_cast@std@@UEAAPEAXI@Z 00000001401dbaac f i libcpmt:cout.obj
 0001:001daaac       ??_Elength_error@std@@UEAAPEAXI@Z 00000001401dbaac f i libcpmt:xthrow.obj
 0001:001daaac       ??_Elogic_error@std@@UEAAPEAXI@Z 00000001401dbaac f i libcpmt:xthrow.obj
 0001:001daaac       ??_Eout_of_range@std@@UEAAPEAXI@Z 00000001401dbaac f i libcpmt:xthrow.obj
 0001:001daaac       ??_Gbad_cast@std@@UEAAPEAXI@Z 00000001401dbaac f i libcpmt:cout.obj
 0001:001daaac       ??_Glength_error@std@@UEAAPEAXI@Z 00000001401dbaac f i libcpmt:xthrow.obj
 0001:001daaac       ??_Glogic_error@std@@UEAAPEAXI@Z 00000001401dbaac f i libcpmt:xthrow.obj
 0001:001daaac       ??_Gout_of_range@std@@UEAAPEAXI@Z 00000001401dbaac f i libcpmt:xthrow.obj
 0001:001daaf0       ??_Eios_base@std@@UEAAPEAXI@Z 00000001401dbaf0 f i libcpmt:cout.obj
 0001:001daaf0       ??_Gios_base@std@@UEAAPEAXI@Z 00000001401dbaf0 f i libcpmt:cout.obj
 0001:001dab30       ?_Decref@facet@locale@std@@UEAAPEAV_Facet_base@3@XZ 00000001401dbb30 f i libcpmt:cout.obj
 0001:001dab40       ?_Endwrite@?$basic_filebuf@DU?$char_traits@D@std@@@std@@IEAA_NXZ 00000001401dbb40 f i libcpmt:cout.obj
 0001:001dac18       ?_Getcat@?$codecvt@DDU_Mbstatet@@@std@@SA_KPEAPEBVfacet@locale@2@PEBV42@@Z 00000001401dbc18 f i libcpmt:cout.obj
 0001:001dacd4       ?_Getcat@?$ctype@D@std@@SA_KPEAPEBVfacet@locale@2@PEBV42@@Z 00000001401dbcd4 f i libcpmt:cout.obj
 0001:001dadb0       ?_Incref@facet@locale@std@@UEAAXXZ 00000001401dbdb0 f i libcpmt:cout.obj
 0001:001dadb8       ?_Init@?$basic_filebuf@DU?$char_traits@D@std@@@std@@IEAAXPEAU_iobuf@@W4_Initfl@12@@Z 00000001401dbdb8 f i libcpmt:cout.obj
 0001:001dae90       ?_Init@ios_base@std@@IEAAXXZ 00000001401dbe90 f i libcpmt:cout.obj
 0001:001daf00       ?_Initcvt@?$basic_filebuf@DU?$char_traits@D@std@@@std@@IEAAXAEBV?$codecvt@DDU_Mbstatet@@@2@@Z 00000001401dbf00 f i libcpmt:cout.obj
 0001:001daf80       ?_Lock@?$basic_filebuf@DU?$char_traits@D@std@@@std@@UEAAXXZ 00000001401dbf80 f i libcpmt:cout.obj
 0001:001daf9c       ?_Throw_bad_cast@std@@YAXXZ 00000001401dbf9c f i libcpmt:cout.obj
 0001:001dafbc       ?_Unlock@?$basic_filebuf@DU?$char_traits@D@std@@@std@@UEAAXXZ 00000001401dbfbc f i libcpmt:cout.obj
 0001:001dafd8       ?clear@ios_base@std@@QEAAXH@Z 00000001401dbfd8 f i libcpmt:cout.obj
 0001:001db044       ?close@?$basic_filebuf@DU?$char_traits@D@std@@@std@@QEAAPEAV12@XZ 00000001401dc044 f i libcpmt:cout.obj
 0001:001db0d4       ?do_encoding@codecvt_base@std@@MEBAHXZ 00000001401dc0d4 f i libcpmt:cout.obj
 0001:001db0d4       ?do_max_length@codecvt_base@std@@MEBAHXZ 00000001401dc0d4 f i libcpmt:cout.obj
 0001:001db0d4       _get_startup_argv_mode     00000001401dc0d4 f i MSVCRT:argv_mode.obj
 0001:001db0dc       ?do_in@?$codecvt@DDU_Mbstatet@@@std@@MEBAHAEAU_Mbstatet@@PEBD1AEAPEBDPEAD3AEAPEAD@Z 00000001401dc0dc f i libcpmt:cout.obj
 0001:001db0dc       ?do_out@?$codecvt@DDU_Mbstatet@@@std@@MEBAHAEAU_Mbstatet@@PEBD1AEAPEBDPEAD3AEAPEAD@Z 00000001401dc0dc f i libcpmt:cout.obj
 0001:001db0f8       ?do_length@?$codecvt@DDU_Mbstatet@@@std@@MEBAHAEAU_Mbstatet@@PEBD1_K@Z 00000001401dc0f8 f i libcpmt:cout.obj
 0001:001db114       ?do_narrow@?$ctype@D@std@@MEBADDD@Z 00000001401dc114 f i libcpmt:cout.obj
 0001:001db114       ?do_widen@?$ctype@D@std@@MEBADD@Z 00000001401dc114 f i libcpmt:cout.obj
 0001:001db118       ?do_narrow@?$ctype@D@std@@MEBAPEBDPEBD0DPEAD@Z 00000001401dc118 f i libcpmt:cout.obj
 0001:001db138       ?do_tolower@?$ctype@D@std@@MEBADD@Z 00000001401dc138 f i libcpmt:cout.obj
 0001:001db148       ?do_tolower@?$ctype@D@std@@MEBAPEBDPEADPEBD@Z 00000001401dc148 f i libcpmt:cout.obj
 0001:001db190       ?do_toupper@?$ctype@D@std@@MEBADD@Z 00000001401dc190 f i libcpmt:cout.obj
 0001:001db1a0       ?do_toupper@?$ctype@D@std@@MEBAPEBDPEADPEBD@Z 00000001401dc1a0 f i libcpmt:cout.obj
 0001:001db1e8       ?do_unshift@?$codecvt@DDU_Mbstatet@@@std@@MEBAHAEAU_Mbstatet@@PEAD1AEAPEAD@Z 00000001401dc1e8 f i libcpmt:cout.obj
 0001:001db1f8       ?do_widen@?$ctype@D@std@@MEBAPEBDPEBD0PEAD@Z 00000001401dc1f8 f i libcpmt:cout.obj
 0001:001db218       ?imbue@?$basic_filebuf@DU?$char_traits@D@std@@@std@@MEAAXAEBVlocale@2@@Z 00000001401dc218 f i libcpmt:cout.obj
 0001:001db23c       ?init@?$basic_ios@DU?$char_traits@D@std@@@std@@IEAAXPEAV?$basic_streambuf@DU?$char_traits@D@std@@@2@_N@Z 00000001401dc23c f i libcpmt:cout.obj
 0001:001db2f8       ?overflow@?$basic_filebuf@DU?$char_traits@D@std@@@std@@MEAAHH@Z 00000001401dc2f8 f i libcpmt:cout.obj
 0001:001db47c       ?overflow@?$basic_streambuf@DU?$char_traits@D@std@@@std@@MEAAHH@Z 00000001401dc47c f i libcpmt:cout.obj
 0001:001db47c       ?pbackfail@?$basic_streambuf@DU?$char_traits@D@std@@@std@@MEAAHH@Z 00000001401dc47c f i libcpmt:cout.obj
 0001:001db47c       ?underflow@?$basic_streambuf@DU?$char_traits@D@std@@@std@@MEAAHXZ 00000001401dc47c f i libcpmt:cout.obj
 0001:001db480       ?pbackfail@?$basic_filebuf@DU?$char_traits@D@std@@@std@@MEAAHH@Z 00000001401dc480 f i libcpmt:cout.obj
 0001:001db54c       ?push_back@?$basic_string@DU?$char_traits@D@std@@V?$allocator@D@2@@std@@QEAAXD@Z 00000001401dc54c f i libcpmt:cout.obj
 0001:001db608       ?seekoff@?$basic_filebuf@DU?$char_traits@D@std@@@std@@MEAA?AV?$fpos@U_Mbstatet@@@2@_JHH@Z 00000001401dc608 f i libcpmt:cout.obj
 0001:001db6ec       ?seekoff@?$basic_streambuf@DU?$char_traits@D@std@@@std@@MEAA?AV?$fpos@U_Mbstatet@@@2@_JHH@Z 00000001401dc6ec f i libcpmt:cout.obj
 0001:001db6ec       ?seekpos@?$basic_streambuf@DU?$char_traits@D@std@@@std@@MEAA?AV?$fpos@U_Mbstatet@@@2@V32@H@Z 00000001401dc6ec f i libcpmt:cout.obj
 0001:001db700       ?seekpos@?$basic_filebuf@DU?$char_traits@D@std@@@std@@MEAA?AV?$fpos@U_Mbstatet@@@2@V32@H@Z 00000001401dc700 f i libcpmt:cout.obj
 0001:001db7b8       ?setbuf@?$basic_filebuf@DU?$char_traits@D@std@@@std@@MEAAPEAV?$basic_streambuf@DU?$char_traits@D@std@@@2@PEAD_J@Z 00000001401dc7b8 f i libcpmt:cout.obj
 0001:001db80c       ?setbuf@?$basic_streambuf@DU?$char_traits@D@std@@@std@@MEAAPEAV12@PEAD_J@Z 00000001401dc80c f i libcpmt:cout.obj
 0001:001db810       ?sync@?$basic_filebuf@DU?$char_traits@D@std@@@std@@MEAAHXZ 00000001401dc810 f i libcpmt:cout.obj
 0001:001db860       ?uflow@?$basic_filebuf@DU?$char_traits@D@std@@@std@@MEAAHXZ 00000001401dc860 f i libcpmt:cout.obj
 0001:001dba88       ?uflow@?$basic_streambuf@DU?$char_traits@D@std@@@std@@MEAAHXZ 00000001401dca88 f i libcpmt:cout.obj
 0001:001dbac4       ?underflow@?$basic_filebuf@DU?$char_traits@D@std@@@std@@MEAAHXZ 00000001401dcac4 f i libcpmt:cout.obj
 0001:001dbb28       ?widen@?$basic_ios@DU?$char_traits@D@std@@@std@@QEBADD@Z 00000001401dcb28 f i libcpmt:cout.obj
 0001:001dbbb4       ?xsgetn@?$basic_filebuf@DU?$char_traits@D@std@@@std@@MEAA_JPEAD_J@Z 00000001401dcbb4 f i libcpmt:cout.obj
 0001:001dbce4       ?xsgetn@?$basic_streambuf@DU?$char_traits@D@std@@@std@@MEAA_JPEAD_J@Z 00000001401dcce4 f i libcpmt:cout.obj
 0001:001dbda8       ?xsputn@?$basic_filebuf@DU?$char_traits@D@std@@@std@@MEAA_JPEBD_J@Z 00000001401dcda8 f i libcpmt:cout.obj
 0001:001dbe68       ?xsputn@?$basic_streambuf@DU?$char_traits@D@std@@@std@@MEAA_JPEBD_J@Z 00000001401dce68 f i libcpmt:cout.obj
 0001:001dbf30       ?uncaught_exception@std@@YA_NXZ 00000001401dcf30 f   libcpmt:uncaught_exception.obj
 0001:001dbf38       ??0bad_alloc@std@@QEAA@XZ  00000001401dcf38 f i libcpmt:xthrow.obj
 0001:001dbf58       ??0length_error@std@@QEAA@AEBV01@@Z 00000001401dcf58 f i libcpmt:xthrow.obj
 0001:001dbf94       ??0length_error@std@@QEAA@PEBD@Z 00000001401dcf94 f i libcpmt:xthrow.obj
 0001:001dbfdc       ??0logic_error@std@@QEAA@AEBV01@@Z 00000001401dcfdc f i libcpmt:xthrow.obj
 0001:001dc018       ??0out_of_range@std@@QEAA@AEBV01@@Z 00000001401dd018 f i libcpmt:xthrow.obj
 0001:001dc054       ??0out_of_range@std@@QEAA@PEBD@Z 00000001401dd054 f i libcpmt:xthrow.obj
 0001:001dc09c       ??0runtime_error@std@@QEAA@PEBD@Z 00000001401dd09c f i libcpmt:xthrow.obj
 0001:001dc0e4       ?_Xlength_error@std@@YAXPEBD@Z 00000001401dd0e4 f   libcpmt:xthrow.obj
 0001:001dc108       ?_Xout_of_range@std@@YAXPEBD@Z 00000001401dd108 f   libcpmt:xthrow.obj
 0001:001dc12c       ?_Xruntime_error@std@@YAXPEBD@Z 00000001401dd12c f   libcpmt:xthrow.obj
 0001:001dc150       ?_Syserror_map@std@@YAPEBDH@Z 00000001401dd150 f   libcpmt:syserror.obj
 0001:001dc178       ??0_Init_locks@std@@QEAA@XZ 00000001401dd178 f   libcpmt:xlock.obj
 0001:001dc1bc       ??0_Lockit@std@@QEAA@H@Z   00000001401dd1bc f   libcpmt:xlock.obj
 0001:001dc1f8       ??1_Init_locks@std@@QEAA@XZ 00000001401dd1f8 f   libcpmt:xlock.obj
 0001:001dc234       ??1_Lockit@std@@QEAA@XZ    00000001401dd234 f   libcpmt:xlock.obj
 0001:001dc268       ??0_Locimp@locale@std@@AEAA@_N@Z 00000001401dd268 f i libcpmt:locale0.obj
 0001:001dc2f0       ??4?$_Yarn@D@std@@QEAAAEAV01@PEBD@Z 00000001401dd2f0 f i libcpmt:locale0.obj
 0001:001dc368       ??_E_Locimp@locale@std@@MEAAPEAXI@Z 00000001401dd368 f i libcpmt:locale0.obj
 0001:001dc368       ??_G_Locimp@locale@std@@MEAAPEAXI@Z 00000001401dd368 f i libcpmt:locale0.obj
 0001:001dc3c4       ?_Facet_Register@std@@YAXPEAV_Facet_base@1@@Z 00000001401dd3c4 f   libcpmt:locale0.obj
 0001:001dc3fc       ?_Getgloballocale@locale@std@@CAPEAV_Locimp@12@XZ 00000001401dd3fc f   libcpmt:locale0.obj
 0001:001dc404       ?_Init@locale@std@@CAPEAV_Locimp@12@_N@Z 00000001401dd404 f   libcpmt:locale0.obj
 0001:001dc4f8       ?_Locimp_dtor@_Locimp@locale@std@@CAXPEAV123@@Z 00000001401dd4f8 f   libcpmt:locale0.obj
 0001:001dc574       ?_Locinfo_ctor@_Locinfo@std@@SAXPEAV12@PEBD@Z 00000001401dd574 f   libcpmt:locale0.obj
 0001:001dc5e0       ?_Locinfo_dtor@_Locinfo@std@@SAXPEAV12@@Z 00000001401dd5e0 f   libcpmt:locale0.obj
 0001:001dc5fc       ?_New_Locimp@_Locimp@locale@std@@CAPEAV123@_N@Z 00000001401dd5fc f   libcpmt:locale0.obj
 0001:001dc62c       ?_Setgloballocale@locale@std@@CAXPEAX@Z 00000001401dd62c f   libcpmt:locale0.obj
 0001:001dc660       _Deletegloballocale        00000001401dd660 f   libcpmt:locale0.obj
 0001:001dc6d0       _Getctype                  00000001401dd6d0 f   libcpmt:_tolower.obj
 0001:001dc790       _Tolower                   00000001401dd790 f   libcpmt:_tolower.obj
 0001:001dc8c4       _Toupper                   00000001401dd8c4 f   libcpmt:_toupper.obj
 0001:001dca08       ?_Addstd@ios_base@std@@SAXPEAV12@@Z 00000001401dda08 f   libcpmt:ios.obj
 0001:001dca7c       ?_Ios_base_dtor@ios_base@std@@CAXPEAV12@@Z 00000001401dda7c f   libcpmt:ios.obj
 0001:001dcaf4       ?_Tidy@ios_base@std@@AEAAXXZ 00000001401ddaf4 f i libcpmt:ios.obj
 0001:001dcb74       ?_Atexit@@YAXP6AXXZ@Z      00000001401ddb74 f   libcpmt:iosptrs.obj
 0001:001dcbb0       _Mtxdst                    00000001401ddbb0 f   libcpmt:xmtx.obj
 0001:001dcbb8       _Mtxinit                   00000001401ddbb8 f   libcpmt:xmtx.obj
 0001:001dcbc8       _Mtxlock                   00000001401ddbc8 f   libcpmt:xmtx.obj
 0001:001dcbd0       _Mtxunlock                 00000001401ddbd0 f   libcpmt:xmtx.obj
 0001:001dcbd8       __crtLCMapStringA          00000001401ddbd8 f   libcpmt:StlLCMapStringA.obj
 0001:001dcef0       __security_check_cookie    00000001401ddef0 f   MSVCRT:amdsecgs.obj
 0001:001dcf10       ??3@YAXPEAX_K@Z            00000001401ddf10 f   MSVCRT:delete_scalar_size.obj
 0001:001dcf10       ??_V@YAXPEAX@Z             00000001401ddf10 f   MSVCRT:delete_array.obj
 0001:001dcf18       ??_M@YAXPEAX_K1P6AX0@Z@Z   00000001401ddf18 f   MSVCRT:ehvecdtr.obj
 0001:001dcf84       ?__ArrayUnwind@@YAXPEAX_K1P6AX0@Z@Z 00000001401ddf84 f   MSVCRT:ehvecdtr.obj
 0001:001dcfe8       ??_U@YAPEAX_K@Z            00000001401ddfe8 f   MSVCRT:new_array.obj
 0001:001dcff0       ??2@YAPEAX_K@Z             00000001401ddff0 f   MSVCRT:new_scalar.obj
 0001:001dd02c       ??_L@YAXPEAX_K1P6AX0@Z2@Z  00000001401de02c f   MSVCRT:ehvecctr.obj
 0001:001dd09c       ??_Etype_info@@UEAAPEAXI@Z 00000001401de09c f i MSVCRT:std_type_info_static.obj
 0001:001dd09c       ??_Gtype_info@@UEAAPEAXI@Z 00000001401de09c f i MSVCRT:std_type_info_static.obj
 0001:001dd0c8       __raise_securityfailure    00000001401de0c8 f   MSVCRT:gs_report.obj
 0001:001dd0fc       __report_gsfailure         00000001401de0fc f   MSVCRT:gs_report.obj
 0001:001dd1d0       __report_rangecheckfailure 00000001401de1d0 f   MSVCRT:gs_report.obj
 0001:001dd1e4       __report_securityfailure   00000001401de1e4 f   MSVCRT:gs_report.obj
 0001:001dd368       _Init_thread_abort         00000001401de368 f   MSVCRT:thread_safe_statics.obj
 0001:001dd3a4       _Init_thread_footer        00000001401de3a4 f   MSVCRT:thread_safe_statics.obj
 0001:001dd410       _Init_thread_header        00000001401de410 f   MSVCRT:thread_safe_statics.obj
 0001:001dd488       __scrt_acquire_startup_lock 00000001401de488 f   MSVCRT:utility.obj
 0001:001dd4c4       __scrt_initialize_crt      00000001401de4c4 f   MSVCRT:utility.obj
 0001:001dd500       __scrt_initialize_onexit_tables 00000001401de500 f   MSVCRT:utility.obj
 0001:001dd58c       __scrt_is_nonwritable_in_current_image 00000001401de58c f   MSVCRT:utility.obj
 0001:001dd624       __scrt_release_startup_lock 00000001401de624 f   MSVCRT:utility.obj
 0001:001dd648       __scrt_uninitialize_crt    00000001401de648 f   MSVCRT:utility.obj
 0001:001dd674       _onexit                    00000001401de674 f   MSVCRT:utility.obj
 0001:001dd6b0       atexit                     00000001401de6b0 f   MSVCRT:utility.obj
 0001:001dd920       WinMainCRTStartup          00000001401de920 f   MSVCRT:exe_winmain.obj
 0001:001dd934       __GSHandlerCheck           00000001401de934 f   MSVCRT:gshandler.obj
 0001:001dd954       __GSHandlerCheckCommon     00000001401de954 f   MSVCRT:gshandler.obj
 0001:001dd9c0       __chkstk                   00000001401de9c0 f   MSVCRT:chkstk.obj
 0001:001dd9c0       _alloca_probe              00000001401de9c0 f   MSVCRT:chkstk.obj
 0001:001dda10       __isa_available_init       00000001401dea10 f   MSVCRT:cpu_disp.obj
 0001:001ddcdc       ??3@YAXPEAX@Z              00000001401decdc f   MSVCRT:delete_scalar.obj
 0001:001ddce4       __GSHandlerCheck_EH4       00000001401dece4 f   MSVCRT:gshandlereh4.obj
 0001:001ddd64       ?__scrt_throw_std_bad_alloc@@YAXXZ 00000001401ded64 f   MSVCRT:throw_bad_alloc.obj
 0001:001ddd84       __scrt_is_ucrt_dll_in_use  00000001401ded84 f   MSVCRT:ucrt_detection.obj
 0001:001ddd90       __crt_debugger_hook        00000001401ded90 f   MSVCRT:utility_desktop.obj
 0001:001ddd98       __scrt_fastfail            00000001401ded98 f   MSVCRT:utility_desktop.obj
 0001:001ddee0       __scrt_get_show_window_mode 00000001401deee0 f   MSVCRT:utility_desktop.obj
 0001:001ddf1c       __scrt_initialize_mta      00000001401def1c f   MSVCRT:utility_desktop.obj
 0001:001ddf24       __scrt_is_managed_app      00000001401def24 f   MSVCRT:utility_desktop.obj
 0001:001ddf78       __scrt_set_unhandled_exception_filter 00000001401def78 f   MSVCRT:utility_desktop.obj
 0001:001ddf88       __scrt_unhandled_exception_filter 00000001401def88 f   MSVCRT:utility_desktop.obj
 0001:001ddfe4       __security_init_cookie     00000001401defe4 f   MSVCRT:gs_support.obj
 0001:001de090       _get_startup_file_mode     00000001401df090 f   MSVCRT:file_mode.obj
 0001:001de098       ?__scrt_initialize_type_info@@YAXXZ 00000001401df098 f   MSVCRT:tncleanup.obj
 0001:001de0a8       __local_stdio_scanf_options 00000001401df0a8 f i MSVCRT:default_local_stdio_options.obj
 0001:001de0b0       __scrt_initialize_default_local_stdio_options 00000001401df0b0 f   MSVCRT:default_local_stdio_options.obj
 0001:001de0cc       __scrt_is_user_matherr_present 00000001401df0cc f   MSVCRT:matherr_detection.obj
 0001:001de0d8       __scrt_get_dyn_tls_init_callback 00000001401df0d8 f   MSVCRT:dyn_tls_init.obj
 0001:001de0e0       __scrt_get_dyn_tls_dtor_callback 00000001401df0e0 f   MSVCRT:dyn_tls_dtor.obj
 0001:001de0e8       _RTC_Initialize            00000001401df0e8 f   MSVCRT:initsect.obj
 0001:001de124       _RTC_Terminate             00000001401df124 f   MSVCRT:initsect.obj
 0001:001de160       SetLastError               00000001401df160 f   kernel32:KERNEL32.dll
 0001:001de166       GetModuleHandleW           00000001401df166 f   kernel32:KERNEL32.dll
 0001:001de16c       __CxxFrameHandler4         00000001401df16c f   vcruntime:VCRUNTIME140_1.dll
 0001:001de172       __std_terminate            00000001401df172 f   vcruntime:VCRUNTIME140.dll
 0001:001de178       __std_exception_destroy    00000001401df178 f   vcruntime:VCRUNTIME140.dll
 0001:001de17e       __std_exception_copy       00000001401df17e f   vcruntime:VCRUNTIME140.dll
 0001:001de184       _purecall                  00000001401df184 f   vcruntime:VCRUNTIME140.dll
 0001:001de18a       strrchr                    00000001401df18a f   vcruntime:VCRUNTIME140.dll
 0001:001de190       longjmp                    00000001401df190 f   vcruntime:VCRUNTIME140.dll
 0001:001de196       memcpy                     00000001401df196 f   vcruntime:VCRUNTIME140.dll
 0001:001de19c       memmove                    00000001401df19c f   vcruntime:VCRUNTIME140.dll
 0001:001de1a2       memset                     00000001401df1a2 f   vcruntime:VCRUNTIME140.dll
 0001:001de1a8       strstr                     00000001401df1a8 f   vcruntime:VCRUNTIME140.dll
 0001:001de1ae       memchr                     00000001401df1ae f   vcruntime:VCRUNTIME140.dll
 0001:001de1b4       memcmp                     00000001401df1b4 f   vcruntime:VCRUNTIME140.dll
 0001:001de1ba       __C_specific_handler       00000001401df1ba f   vcruntime:VCRUNTIME140.dll
 0001:001de1c0       _CxxThrowException         00000001401df1c0 f   vcruntime:VCRUNTIME140.dll
 0001:001de1c6       __uncaught_exception       00000001401df1c6 f   vcruntime:VCRUNTIME140.dll
 0001:001de1cc       __current_exception        00000001401df1cc f   vcruntime:VCRUNTIME140.dll
 0001:001de1d2       __current_exception_context 00000001401df1d2 f   vcruntime:VCRUNTIME140.dll
 0001:001de1d8       __intrinsic_setjmp         00000001401df1d8 f   vcruntime:VCRUNTIME140.dll
 0001:001de1d8       _setjmp                    00000001401df1d8 f   vcruntime:VCRUNTIME140.dll
 0001:001de1de       ftell                      00000001401df1de f   ucrt:api-ms-win-crt-stdio-l1-1-0.dll
 0001:001de1e4       fclose                     00000001401df1e4 f   ucrt:api-ms-win-crt-stdio-l1-1-0.dll
 0001:001de1ea       fread                      00000001401df1ea f   ucrt:api-ms-win-crt-stdio-l1-1-0.dll
 0001:001de1f0       _fseeki64                  00000001401df1f0 f   ucrt:api-ms-win-crt-stdio-l1-1-0.dll
 0001:001de1f6       strncmp                    00000001401df1f6 f   ucrt:api-ms-win-crt-string-l1-1-0.dll
 0001:001de1fc       _invalid_parameter_noinfo_noreturn 00000001401df1fc f   ucrt:api-ms-win-crt-runtime-l1-1-0.dll
 0001:001de202       calloc                     00000001401df202 f   ucrt:api-ms-win-crt-heap-l1-1-0.dll
 0001:001de208       fopen                      00000001401df208 f   ucrt:api-ms-win-crt-stdio-l1-1-0.dll
 0001:001de20e       fseek                      00000001401df20e f   ucrt:api-ms-win-crt-stdio-l1-1-0.dll
 0001:001de214       fgetc                      00000001401df214 f   ucrt:api-ms-win-crt-stdio-l1-1-0.dll
 0001:001de21a       malloc                     00000001401df21a f   ucrt:api-ms-win-crt-heap-l1-1-0.dll
 0001:001de220       qsort                      00000001401df220 f   ucrt:api-ms-win-crt-utility-l1-1-0.dll
 0001:001de226       realloc                    00000001401df226 f   ucrt:api-ms-win-crt-heap-l1-1-0.dll
 0001:001de22c       strncpy                    00000001401df22c f   ucrt:api-ms-win-crt-string-l1-1-0.dll
 0001:001de232       free                       00000001401df232 f   ucrt:api-ms-win-crt-heap-l1-1-0.dll
 0001:001de238       __acrt_iob_func            00000001401df238 f   ucrt:api-ms-win-crt-stdio-l1-1-0.dll
 0001:001de23e       exit                       00000001401df23e f   ucrt:api-ms-win-crt-runtime-l1-1-0.dll
 0001:001de244       strcmp                     00000001401df244 f   ucrt:api-ms-win-crt-string-l1-1-0.dll
 0001:001de24a       atol                       00000001401df24a f   ucrt:api-ms-win-crt-convert-l1-1-0.dll
 0001:001de250       strtol                     00000001401df250 f   ucrt:api-ms-win-crt-convert-l1-1-0.dll
 0001:001de256       strlen                     00000001401df256 f   ucrt:api-ms-win-crt-string-l1-1-0.dll
 0001:001de25c       abort                      00000001401df25c f   ucrt:api-ms-win-crt-runtime-l1-1-0.dll
 0001:001de262       floor                      00000001401df262 f   ucrt:api-ms-win-crt-math-l1-1-0.dll
 0001:001de268       _get_stream_buffer_pointers 00000001401df268 f   ucrt:api-ms-win-crt-stdio-l1-1-0.dll
 0001:001de26e       fflush                     00000001401df26e f   ucrt:api-ms-win-crt-stdio-l1-1-0.dll
 0001:001de274       fgetpos                    00000001401df274 f   ucrt:api-ms-win-crt-stdio-l1-1-0.dll
 0001:001de27a       fputc                      00000001401df27a f   ucrt:api-ms-win-crt-stdio-l1-1-0.dll
 0001:001de280       fsetpos                    00000001401df280 f   ucrt:api-ms-win-crt-stdio-l1-1-0.dll
 0001:001de286       fwrite                     00000001401df286 f   ucrt:api-ms-win-crt-stdio-l1-1-0.dll
 0001:001de28c       setvbuf                    00000001401df28c f   ucrt:api-ms-win-crt-stdio-l1-1-0.dll
 0001:001de292       ungetc                     00000001401df292 f   ucrt:api-ms-win-crt-stdio-l1-1-0.dll
 0001:001de298       _lock_file                 00000001401df298 f   ucrt:api-ms-win-crt-filesystem-l1-1-0.dll
 0001:001de29e       _unlock_file               00000001401df29e f   ucrt:api-ms-win-crt-filesystem-l1-1-0.dll
 0001:001de2a4       _lock_locales              00000001401df2a4 f   ucrt:api-ms-win-crt-locale-l1-1-0.dll
 0001:001de2aa       _unlock_locales            00000001401df2aa f   ucrt:api-ms-win-crt-locale-l1-1-0.dll
 0001:001de2b0       setlocale                  00000001401df2b0 f   ucrt:api-ms-win-crt-locale-l1-1-0.dll
 0001:001de2b6       __pctype_func              00000001401df2b6 f   ucrt:api-ms-win-crt-locale-l1-1-0.dll
 0001:001de2bc       isupper                    00000001401df2bc f   ucrt:api-ms-win-crt-string-l1-1-0.dll
 0001:001de2c2       ___lc_locale_name_func     00000001401df2c2 f   ucrt:api-ms-win-crt-locale-l1-1-0.dll
 0001:001de2c8       ___lc_codepage_func        00000001401df2c8 f   ucrt:api-ms-win-crt-locale-l1-1-0.dll
 0001:001de2ce       _wcsdup                    00000001401df2ce f   ucrt:api-ms-win-crt-string-l1-1-0.dll
 0001:001de2d4       islower                    00000001401df2d4 f   ucrt:api-ms-win-crt-string-l1-1-0.dll
 0001:001de2da       __strncnt                  00000001401df2da f   ucrt:api-ms-win-crt-string-l1-1-0.dll
 0001:001de2e0       terminate                  00000001401df2e0 f   ucrt:api-ms-win-crt-runtime-l1-1-0.dll
 0001:001de2e6       _callnewh                  00000001401df2e6 f   ucrt:api-ms-win-crt-heap-l1-1-0.dll
 0001:001de2ec       _configure_narrow_argv     00000001401df2ec f   ucrt:api-ms-win-crt-runtime-l1-1-0.dll
 0001:001de2f2       _initialize_narrow_environment 00000001401df2f2 f   ucrt:api-ms-win-crt-runtime-l1-1-0.dll
 0001:001de2f8       _initialize_onexit_table   00000001401df2f8 f   ucrt:api-ms-win-crt-runtime-l1-1-0.dll
 0001:001de2fe       _register_onexit_function  00000001401df2fe f   ucrt:api-ms-win-crt-runtime-l1-1-0.dll
 0001:001de304       _crt_atexit                00000001401df304 f   ucrt:api-ms-win-crt-runtime-l1-1-0.dll
 0001:001de30a       _cexit                     00000001401df30a f   ucrt:api-ms-win-crt-runtime-l1-1-0.dll
 0001:001de310       _seh_filter_exe            00000001401df310 f   ucrt:api-ms-win-crt-runtime-l1-1-0.dll
 0001:001de316       _set_app_type              00000001401df316 f   ucrt:api-ms-win-crt-runtime-l1-1-0.dll
 0001:001de31c       __setusermatherr           00000001401df31c f   ucrt:api-ms-win-crt-math-l1-1-0.dll
 0001:001de322       _get_narrow_winmain_command_line 00000001401df322 f   ucrt:api-ms-win-crt-runtime-l1-1-0.dll
 0001:001de328       _initterm                  00000001401df328 f   ucrt:api-ms-win-crt-runtime-l1-1-0.dll
 0001:001de32e       _initterm_e                00000001401df32e f   ucrt:api-ms-win-crt-runtime-l1-1-0.dll
 0001:001de334       _exit                      00000001401df334 f   ucrt:api-ms-win-crt-runtime-l1-1-0.dll
 0001:001de33a       _set_fmode                 00000001401df33a f   ucrt:api-ms-win-crt-stdio-l1-1-0.dll
 0001:001de340       _c_exit                    00000001401df340 f   ucrt:api-ms-win-crt-runtime-l1-1-0.dll
 0001:001de346       _register_thread_local_exe_atexit_callback 00000001401df346 f   ucrt:api-ms-win-crt-runtime-l1-1-0.dll
 0001:001de34c       _configthreadlocale        00000001401df34c f   ucrt:api-ms-win-crt-locale-l1-1-0.dll
 0001:001de352       _set_new_mode              00000001401df352 f   ucrt:api-ms-win-crt-heap-l1-1-0.dll
 0001:001de358       __p__commode               00000001401df358 f   ucrt:api-ms-win-crt-stdio-l1-1-0.dll
 0001:001de360       WinMain                    00000001401df360 f   SDL2Main:SDL_windows_main.obj
 0001:001de5c1       SDL_SetMainReady           00000001401df5c1 f   SDL2:SDL2.dll
 0001:001de5c7       __imp_load_SDL_SetMainReady 00000001401df5c7 f   SDL2:SDL2.dll
 0001:001de5e0       vorbis_synthesis_headerin  00000001401df5e0 f   libvorbis_static:info.obj
 0001:001de840       vorbis_synthesis_idheader  00000001401df840 f   libvorbis_static:info.obj
 0001:001def30       vorbis_info_clear          00000001401dff30 f   libvorbis_static:info.obj
 0001:001df1e0       vorbis_info_init           00000001401e01e0 f   libvorbis_static:info.obj
 0001:001df220       vorbis_info_blocksize      00000001401e0220 f   libvorbis_static:info.obj
 0001:001df240       vorbis_comment_clear       00000001401e0240 f   libvorbis_static:info.obj
 0001:001df2e0       vorbis_comment_init        00000001401e02e0 f   libvorbis_static:info.obj
 0001:001df430       vorbis_window              00000001401e0430 f   libvorbis_static:block.obj
 0001:001df470       vorbis_synthesis_lapout    00000001401e0470 f   libvorbis_static:block.obj
 0001:001df860       vorbis_synthesis_read      00000001401e0860 f   libvorbis_static:block.obj
 0001:001df890       vorbis_synthesis_pcmout    00000001401e0890 f   libvorbis_static:block.obj
 0001:001df920       vorbis_synthesis_blockin   00000001401e0920 f   libvorbis_static:block.obj
 0001:001e03c0       vorbis_synthesis_init      00000001401e13c0 f   libvorbis_static:block.obj
 0001:001e0450       vorbis_synthesis_restart   00000001401e1450 f   libvorbis_static:block.obj
 0001:001e04d0       vorbis_dsp_clear           00000001401e14d0 f   libvorbis_static:block.obj
 0001:001e0df0       vorbis_block_clear         00000001401e1df0 f   libvorbis_static:block.obj
 0001:001e0ed0       _vorbis_block_ripcord      00000001401e1ed0 f   libvorbis_static:block.obj
 0001:001e0f70       _vorbis_block_alloc        00000001401e1f70 f   libvorbis_static:block.obj
 0001:001e1000       vorbis_block_init          00000001401e2000 f   libvorbis_static:block.obj
 0001:001e10e0       vorbis_synthesis_halfrate_p 00000001401e20e0 f   libvorbis_static:synthesis.obj
 0001:001e1100       vorbis_synthesis_halfrate  00000001401e2100 f   libvorbis_static:synthesis.obj
 0001:001e1130       vorbis_packet_blocksize    00000001401e2130 f   libvorbis_static:synthesis.obj
 0001:001e1200       vorbis_synthesis_trackonly 00000001401e2200 f   libvorbis_static:synthesis.obj
 0001:001e1310       vorbis_synthesis           00000001401e2310 f   libvorbis_static:synthesis.obj
 0001:001e1570       _book_unquantize           00000001401e2570 f   libvorbis_static:sharedbook.obj
 0001:001e1870       _book_maptype1_quantvals   00000001401e2870 f   libvorbis_static:sharedbook.obj
 0001:001e1900       _make_words                00000001401e2900 f   libvorbis_static:sharedbook.obj
 0001:001e1b10       _float32_unpack            00000001401e2b10 f   libvorbis_static:sharedbook.obj
 0001:001e1b60       vorbis_book_init_encode    00000001401e2b60 f   libvorbis_static:sharedbook.obj
 0001:001e1c80       vorbis_book_init_decode    00000001401e2c80 f   libvorbis_static:sharedbook.obj
 0001:001e27a0       ov_ilog                    00000001401e37a0 f   libvorbis_static:sharedbook.obj
 0001:001e27c0       vorbis_staticbook_destroy  00000001401e37c0 f   libvorbis_static:sharedbook.obj
 0001:001e2820       vorbis_book_clear          00000001401e3820 f   libvorbis_static:sharedbook.obj
 0001:001e28a0       vorbis_book_decodevv_add   00000001401e38a0 f   libvorbis_static:codebook.obj
 0001:001e2b00       vorbis_book_decodev_set    00000001401e3b00 f   libvorbis_static:codebook.obj
 0001:001e2db0       vorbis_book_decodev_add    00000001401e3db0 f   libvorbis_static:codebook.obj
 0001:001e3260       vorbis_book_decodevs_add   00000001401e4260 f   libvorbis_static:codebook.obj
 0001:001e35c0       vorbis_book_decode         00000001401e45c0 f   libvorbis_static:codebook.obj
 0001:001e37c0       vorbis_book_encode         00000001401e47c0 f   libvorbis_static:codebook.obj
 0001:001e3820       vorbis_staticbook_unpack   00000001401e4820 f   libvorbis_static:codebook.obj
 0001:001e3bf0       _vp_couple_quantize_normalize 00000001401e4bf0 f   libvorbis_static:psy.obj
 0001:001e5180       _vp_offset_and_mix         00000001401e6180 f   libvorbis_static:psy.obj
 0001:001e5520       _vp_tonemask               00000001401e6520 f   libvorbis_static:psy.obj
 0001:001e57c0       _vp_noisemask              00000001401e67c0 f   libvorbis_static:psy.obj
 0001:001e8800       _vp_psy_clear              00000001401e9800 f   libvorbis_static:psy.obj
 0001:001e8910       _vp_global_free            00000001401e9910 f   libvorbis_static:psy.obj
 0001:001e8940       _vp_psy_init               00000001401e9940 f   libvorbis_static:psy.obj
 0001:001e9310       _vi_psy_free               00000001401ea310 f   libvorbis_static:psy.obj
 0001:001e9340       vorbis_bitrate_managed     00000001401ea340 f   libvorbis_static:bitrate.obj
 0001:001e9370       vorbis_bitrate_clear       00000001401ea370 f   libvorbis_static:bitrate.obj
 0001:001e9390       _ve_envelope_clear         00000001401ea390 f   libvorbis_static:envelope.obj
 0001:001e9440       mdct_backward              00000001401ea440 f   libvorbis_static:mdct.obj
 0001:001ea550       mdct_forward               00000001401eb550 f   libvorbis_static:mdct.obj
 0001:001ea950       mdct_clear                 00000001401eb950 f   libvorbis_static:mdct.obj
 0001:001ea9a0       mdct_init                  00000001401eb9a0 f   libvorbis_static:mdct.obj
 0001:001eacb0       drft_forward               00000001401ebcb0 f   libvorbis_static:smallft.obj
 0001:001ed8e0       drft_clear                 00000001401ee8e0 f   libvorbis_static:smallft.obj
 0001:001ed930       drft_init                  00000001401ee930 f   libvorbis_static:smallft.obj
 0001:001ed990       _vorbis_apply_window       00000001401ee990 f   libvorbis_static:window.obj
 0001:001edc60       _vorbis_window_get         00000001401eec60 f   libvorbis_static:window.obj
 0001:001f0160       res2_inverse               00000001401f1160 f   libvorbis_static:res0.obj
 0001:001f0390       res2_forward               00000001401f1390 f   libvorbis_static:res0.obj
 0001:001f04a0       res2_class                 00000001401f14a0 f   libvorbis_static:res0.obj
 0001:001f0720       res1_inverse               00000001401f1720 f   libvorbis_static:res0.obj
 0001:001f0790       res1_class                 00000001401f1790 f   libvorbis_static:res0.obj
 0001:001f0b30       res1_forward               00000001401f1b30 f   libvorbis_static:res0.obj
 0001:001f0bc0       res0_inverse               00000001401f1bc0 f   libvorbis_static:res0.obj
 0001:001f1ce0       res0_look                  00000001401f2ce0 f   libvorbis_static:res0.obj
 0001:001f1f00       res0_unpack                00000001401f2f00 f   libvorbis_static:res0.obj
 0001:001f2100       res0_pack                  00000001401f3100 f   libvorbis_static:res0.obj
 0001:001f2290       res0_free_look             00000001401f3290 f   libvorbis_static:res0.obj
 0001:001f2360       res0_free_info             00000001401f3360 f   libvorbis_static:res0.obj
 0001:001f4230       floor1_interpolate_fit     00000001401f5230 f   libvorbis_static:floor1.obj
 0001:001f4460       floor1_encode              00000001401f5460 f   libvorbis_static:floor1.obj
 0001:001f4ba0       floor1_fit                 00000001401f5ba0 f   libvorbis_static:floor1.obj
 0001:001f5200       vorbis_lsp_to_curve        00000001401f6200 f   libvorbis_static:lsp.obj
 0001:001f5497       asinf                      00000001401f6497 f   ucrt:api-ms-win-crt-math-l1-1-0.dll
 0001:001f549d       atan                       00000001401f649d f   ucrt:api-ms-win-crt-math-l1-1-0.dll
 0001:001f54a3       atan2f                     00000001401f64a3 f   ucrt:api-ms-win-crt-math-l1-1-0.dll
 0001:001f54a9       ceil                       00000001401f64a9 f   ucrt:api-ms-win-crt-math-l1-1-0.dll
 0001:001f54af       ceilf                      00000001401f64af f   ucrt:api-ms-win-crt-math-l1-1-0.dll
 0001:001f54b5       cos                        00000001401f64b5 f   ucrt:api-ms-win-crt-math-l1-1-0.dll
 0001:001f54bb       cosf                       00000001401f64bb f   ucrt:api-ms-win-crt-math-l1-1-0.dll
 0001:001f54c1       exp                        00000001401f64c1 f   ucrt:api-ms-win-crt-math-l1-1-0.dll
 0001:001f54c7       floorf                     00000001401f64c7 f   ucrt:api-ms-win-crt-math-l1-1-0.dll
 0001:001f54cd       log                        00000001401f64cd f   ucrt:api-ms-win-crt-math-l1-1-0.dll
 0001:001f54d3       pow                        00000001401f64d3 f   ucrt:api-ms-win-crt-math-l1-1-0.dll
 0001:001f54d9       sin                        00000001401f64d9 f   ucrt:api-ms-win-crt-math-l1-1-0.dll
 0001:001f54df       sinf                       00000001401f64df f   ucrt:api-ms-win-crt-math-l1-1-0.dll
 0001:001f54e5       sqrt                       00000001401f64e5 f   ucrt:api-ms-win-crt-math-l1-1-0.dll
 0001:001f54eb       sqrtf                      00000001401f64eb f   ucrt:api-ms-win-crt-math-l1-1-0.dll
 0001:001f54f1       tan                        00000001401f64f1 f   ucrt:api-ms-win-crt-math-l1-1-0.dll
 0001:001f5510       _guard_dispatch_icall_nop  00000001401f6510 f   MSVCRT:guard_dispatch.obj
 0001:001f5530       _guard_xfg_dispatch_icall_nop 00000001401f6530 f   MSVCRT:guard_xfg_dispatch.obj
 0002:00000000       __imp_ReleaseSRWLockExclusive 00000001401fc000     kernel32:KERNEL32.dll
 0002:00000008       __imp_UnhandledExceptionFilter 00000001401fc008     kernel32:KERNEL32.dll
 0002:00000010       __imp_RtlVirtualUnwind     00000001401fc010     kernel32:KERNEL32.dll
 0002:00000018       __imp_RtlLookupFunctionEntry 00000001401fc018     kernel32:KERNEL32.dll
 0002:00000020       __imp_RtlCaptureContext    00000001401fc020     kernel32:KERNEL32.dll
 0002:00000028       __imp_LCMapStringEx        00000001401fc028     kernel32:KERNEL32.dll
 0002:00000030       __imp_WideCharToMultiByte  00000001401fc030     kernel32:KERNEL32.dll
 0002:00000038       __imp_MultiByteToWideChar  00000001401fc038     kernel32:KERNEL32.dll
 0002:00000040       __imp_InitializeCriticalSectionEx 00000001401fc040     kernel32:KERNEL32.dll
 0002:00000048       __imp_DecodePointer        00000001401fc048     kernel32:KERNEL32.dll
 0002:00000050       __imp_EncodePointer        00000001401fc050     kernel32:KERNEL32.dll
 0002:00000058       __imp_GetSystemInfo        00000001401fc058     kernel32:KERNEL32.dll
 0002:00000060       __imp_RaiseException       00000001401fc060     kernel32:KERNEL32.dll
 0002:00000068       __imp_VirtualFree          00000001401fc068     kernel32:KERNEL32.dll
 0002:00000070       __imp_GetCurrentThreadId   00000001401fc070     kernel32:KERNEL32.dll
 0002:00000078       __imp_VirtualAlloc         00000001401fc078     kernel32:KERNEL32.dll
 0002:00000080       __imp_VirtualProtect       00000001401fc080     kernel32:KERNEL32.dll
 0002:00000088       __imp_GetModuleHandleW     00000001401fc088     kernel32:KERNEL32.dll
 0002:00000090       __imp_SetLastError         00000001401fc090     kernel32:KERNEL32.dll
 0002:00000098       __imp_VirtualQuery         00000001401fc098     kernel32:KERNEL32.dll
 0002:000000a0       __imp_LoadLibraryExA       00000001401fc0a0     kernel32:KERNEL32.dll
 0002:000000a8       __imp_GetCurrentProcess    00000001401fc0a8     kernel32:KERNEL32.dll
 0002:000000b0       __imp_GetProcAddress       00000001401fc0b0     kernel32:KERNEL32.dll
 0002:000000b8       __imp_SystemTimeToTzSpecificLocalTime 00000001401fc0b8     kernel32:KERNEL32.dll
 0002:000000c0       __imp_GetCommandLineW      00000001401fc0c0     kernel32:KERNEL32.dll
 0002:000000c8       __imp_GetTimeZoneInformation 00000001401fc0c8     kernel32:KERNEL32.dll
 0002:000000d0       __imp_QueryPerformanceCounter 00000001401fc0d0     kernel32:KERNEL32.dll
 0002:000000d8       __imp_FreeLibrary          00000001401fc0d8     kernel32:KERNEL32.dll
 0002:000000e0       __imp_QueryPerformanceFrequency 00000001401fc0e0     kernel32:KERNEL32.dll
 0002:000000e8       __imp_LoadLibraryA         00000001401fc0e8     kernel32:KERNEL32.dll
 0002:000000f0       __imp_GetLastError         00000001401fc0f0     kernel32:KERNEL32.dll
 0002:000000f8       __imp_GetModuleHandleA     00000001401fc0f8     kernel32:KERNEL32.dll
 0002:00000100       __imp_ReleaseMutex         00000001401fc100     kernel32:KERNEL32.dll
 0002:00000108       __imp_CreateMutexA         00000001401fc108     kernel32:KERNEL32.dll
 0002:00000110       __imp_FindNextFileA        00000001401fc110     kernel32:KERNEL32.dll
 0002:00000118       __imp_CreateEventA         00000001401fc118     kernel32:KERNEL32.dll
 0002:00000120       __imp_DeleteCriticalSection 00000001401fc120     kernel32:KERNEL32.dll
 0002:00000128       __imp_CreateThread         00000001401fc128     kernel32:KERNEL32.dll
 0002:00000130       __imp_CloseHandle          00000001401fc130     kernel32:KERNEL32.dll
 0002:00000138       __imp_SetEvent             00000001401fc138     kernel32:KERNEL32.dll
 0002:00000140       __imp_ExitThread           00000001401fc140     kernel32:KERNEL32.dll
 0002:00000148       __imp_WaitForSingleObject  00000001401fc148     kernel32:KERNEL32.dll
 0002:00000150       __imp_InitializeConditionVariable 00000001401fc150     kernel32:KERNEL32.dll
 0002:00000158       __imp_InitializeCriticalSection 00000001401fc158     kernel32:KERNEL32.dll
 0002:00000160       __imp_LeaveCriticalSection 00000001401fc160     kernel32:KERNEL32.dll
 0002:00000168       __imp_WakeConditionVariable 00000001401fc168     kernel32:KERNEL32.dll
 0002:00000170       __imp_EnterCriticalSection 00000001401fc170     kernel32:KERNEL32.dll
 0002:00000178       __imp_InitializeSListHead  00000001401fc178     kernel32:KERNEL32.dll
 0002:00000180       __imp_GetSystemTimeAsFileTime 00000001401fc180     kernel32:KERNEL32.dll
 0002:00000188       __imp_GetCurrentProcessId  00000001401fc188     kernel32:KERNEL32.dll
 0002:00000190       __imp_GetStartupInfoW      00000001401fc190     kernel32:KERNEL32.dll
 0002:00000198       __imp_IsDebuggerPresent    00000001401fc198     kernel32:KERNEL32.dll
 0002:000001a0       __imp_SleepConditionVariableSRW 00000001401fc1a0     kernel32:KERNEL32.dll
 0002:000001a8       __imp_WakeAllConditionVariable 00000001401fc1a8     kernel32:KERNEL32.dll
 0002:000001b0       __imp_AcquireSRWLockExclusive 00000001401fc1b0     kernel32:KERNEL32.dll
 0002:000001b8       __imp_SetUnhandledExceptionFilter 00000001401fc1b8     kernel32:KERNEL32.dll
 0002:000001c0       __imp_IsProcessorFeaturePresent 00000001401fc1c0     kernel32:KERNEL32.dll
 0002:000001c8       __imp_TerminateProcess     00000001401fc1c8     kernel32:KERNEL32.dll
 0002:000001d0       __imp_FindFirstFileA       00000001401fc1d0     kernel32:KERNEL32.dll
 0002:000001d8       __imp_FindClose            00000001401fc1d8     kernel32:KERNEL32.dll
 0002:000001e0       __imp_GetFileAttributesA   00000001401fc1e0     kernel32:KERNEL32.dll
 0002:000001e8       __imp_FileTimeToSystemTime 00000001401fc1e8     kernel32:KERNEL32.dll
 0002:000001f0       __imp_CreateDirectoryA     00000001401fc1f0     kernel32:KERNEL32.dll
 0002:000001f8       __imp_SleepConditionVariableCS 00000001401fc1f8     kernel32:KERNEL32.dll
 0002:00000200       \177KERNEL32_NULL_THUNK_DATA 00000001401fc200     kernel32:KERNEL32.dll
 0002:00000208       __imp_glEnable             00000001401fc208     opengl32:OPENGL32.dll
 0002:00000210       __imp_glCullFace           00000001401fc210     opengl32:OPENGL32.dll
 0002:00000218       __imp_glDrawArrays         00000001401fc218     opengl32:OPENGL32.dll
 0002:00000220       __imp_glBindTexture        00000001401fc220     opengl32:OPENGL32.dll
 0002:00000228       __imp_glGenTextures        00000001401fc228     opengl32:OPENGL32.dll
 0002:00000230       __imp_glTexParameterfv     00000001401fc230     opengl32:OPENGL32.dll
 0002:00000238       __imp_glTexParameteri      00000001401fc238     opengl32:OPENGL32.dll
 0002:00000240       __imp_glDeleteTextures     00000001401fc240     opengl32:OPENGL32.dll
 0002:00000248       __imp_glTexImage2D         00000001401fc248     opengl32:OPENGL32.dll
 0002:00000250       __imp_glGetIntegerv        00000001401fc250     opengl32:OPENGL32.dll
 0002:00000258       __imp_glPointSize          00000001401fc258     opengl32:OPENGL32.dll
 0002:00000260       __imp_glDisable            00000001401fc260     opengl32:OPENGL32.dll
 0002:00000268       __imp_glDepthMask          00000001401fc268     opengl32:OPENGL32.dll
 0002:00000270       __imp_glBlendFunc          00000001401fc270     opengl32:OPENGL32.dll
 0002:00000278       __imp_glClear              00000001401fc278     opengl32:OPENGL32.dll
 0002:00000280       __imp_glCopyTexImage2D     00000001401fc280     opengl32:OPENGL32.dll
 0002:00000288       __imp_glViewport           00000001401fc288     opengl32:OPENGL32.dll
 0002:00000290       __imp_glReadPixels         00000001401fc290     opengl32:OPENGL32.dll
 0002:00000298       __imp_glReadBuffer         00000001401fc298     opengl32:OPENGL32.dll
 0002:000002a0       __imp_glLineWidth          00000001401fc2a0     opengl32:OPENGL32.dll
 0002:000002a8       __imp_glClearColor         00000001401fc2a8     opengl32:OPENGL32.dll
 0002:000002b0       __imp_glDrawBuffer         00000001401fc2b0     opengl32:OPENGL32.dll
 0002:000002b8       __imp_glScissor            00000001401fc2b8     opengl32:OPENGL32.dll
 0002:000002c0       __imp_wglGetProcAddress    00000001401fc2c0     opengl32:OPENGL32.dll
 0002:000002c8       __imp_glGetString          00000001401fc2c8     opengl32:OPENGL32.dll
 0002:000002d0       __imp_glFinish             00000001401fc2d0     opengl32:OPENGL32.dll
 0002:000002d8       __imp_glTexSubImage2D      00000001401fc2d8     opengl32:OPENGL32.dll
 0002:000002e0       __imp_glPolygonMode        00000001401fc2e0     opengl32:OPENGL32.dll
 0002:000002e8       __imp_glDrawElements       00000001401fc2e8     opengl32:OPENGL32.dll
 0002:000002f0       __imp_glTexParameterf      00000001401fc2f0     opengl32:OPENGL32.dll
 0002:000002f8       __imp_glColorMask          00000001401fc2f8     opengl32:OPENGL32.dll
 0002:00000300       __imp_glDepthFunc          00000001401fc300     opengl32:OPENGL32.dll
 0002:00000308       __imp_glPolygonOffset      00000001401fc308     opengl32:OPENGL32.dll
 0002:00000310       __imp_glGetError           00000001401fc310     opengl32:OPENGL32.dll
 0002:00000318       \177OPENGL32_NULL_THUNK_DATA 00000001401fc318     opengl32:OPENGL32.dll
 0002:00000320       __imp_GetCursorPos         00000001401fc320     user32:USER32.dll
 0002:00000328       __imp_SetCursorPos         00000001401fc328     user32:USER32.dll
 0002:00000330       __imp_MessageBoxA          00000001401fc330     user32:USER32.dll
 0002:00000338       \177USER32_NULL_THUNK_DATA 00000001401fc338     user32:USER32.dll
 0002:00000340       __imp___current_exception  00000001401fc340     vcruntime:VCRUNTIME140.dll
 0002:00000348       __imp___uncaught_exception 00000001401fc348     vcruntime:VCRUNTIME140.dll
 0002:00000350       __imp__CxxThrowException   00000001401fc350     vcruntime:VCRUNTIME140.dll
 0002:00000358       __imp___C_specific_handler 00000001401fc358     vcruntime:VCRUNTIME140.dll
 0002:00000360       __imp_memcmp               00000001401fc360     vcruntime:VCRUNTIME140.dll
 0002:00000368       __imp_memchr               00000001401fc368     vcruntime:VCRUNTIME140.dll
 0002:00000370       __imp_strstr               00000001401fc370     vcruntime:VCRUNTIME140.dll
 0002:00000378       __imp_memset               00000001401fc378     vcruntime:VCRUNTIME140.dll
 0002:00000380       __imp___intrinsic_setjmp   00000001401fc380     vcruntime:VCRUNTIME140.dll
 0002:00000388       __imp_memcpy               00000001401fc388     vcruntime:VCRUNTIME140.dll
 0002:00000390       __imp_longjmp              00000001401fc390     vcruntime:VCRUNTIME140.dll
 0002:00000398       __imp_strrchr              00000001401fc398     vcruntime:VCRUNTIME140.dll
 0002:000003a0       __imp__purecall            00000001401fc3a0     vcruntime:VCRUNTIME140.dll
 0002:000003a8       __imp___std_exception_copy 00000001401fc3a8     vcruntime:VCRUNTIME140.dll
 0002:000003b0       __imp___std_exception_destroy 00000001401fc3b0     vcruntime:VCRUNTIME140.dll
 0002:000003b8       __imp___std_terminate      00000001401fc3b8     vcruntime:VCRUNTIME140.dll
 0002:000003c0       __imp___current_exception_context 00000001401fc3c0     vcruntime:VCRUNTIME140.dll
 0002:000003c8       __imp_memmove              00000001401fc3c8     vcruntime:VCRUNTIME140.dll
 0002:000003d0       \177VCRUNTIME140_NULL_THUNK_DATA 00000001401fc3d0     vcruntime:VCRUNTIME140.dll
 0002:000003d8       __imp___CxxFrameHandler4   00000001401fc3d8     vcruntime:VCRUNTIME140_1.dll
 0002:000003e0       \177VCRUNTIME140_1_NULL_THUNK_DATA 00000001401fc3e0     vcruntime:VCRUNTIME140_1.dll
 0002:000003e8       __imp_timeGetTime          00000001401fc3e8     winmm:WINMM.dll
 0002:000003f0       __imp_timeBeginPeriod      00000001401fc3f0     winmm:WINMM.dll
 0002:000003f8       __imp_timeEndPeriod        00000001401fc3f8     winmm:WINMM.dll
 0002:00000400       \177WINMM_NULL_THUNK_DATA  00000001401fc400     winmm:WINMM.dll
 0002:00000408       __imp_WSARecvFrom          00000001401fc408     ws2_32:WS2_32.dll
 0002:00000410       __imp_WSASendTo            00000001401fc410     ws2_32:WS2_32.dll
 0002:00000418       __imp_closesocket          00000001401fc418     ws2_32:WS2_32.dll
 0002:00000420       __imp_shutdown             00000001401fc420     ws2_32:WS2_32.dll
 0002:00000428       __imp_accept               00000001401fc428     ws2_32:WS2_32.dll
 0002:00000430       __imp_WSAGetLastError      00000001401fc430     ws2_32:WS2_32.dll
 0002:00000438       __imp_connect              00000001401fc438     ws2_32:WS2_32.dll
 0002:00000440       __imp_getsockopt           00000001401fc440     ws2_32:WS2_32.dll
 0002:00000448       __imp_ioctlsocket          00000001401fc448     ws2_32:WS2_32.dll
 0002:00000450       __imp___WSAFDIsSet         00000001401fc450     ws2_32:WS2_32.dll
 0002:00000458       __imp_socket               00000001401fc458     ws2_32:WS2_32.dll
 0002:00000460       __imp_listen               00000001401fc460     ws2_32:WS2_32.dll
 0002:00000468       __imp_ntohs                00000001401fc468     ws2_32:WS2_32.dll
 0002:00000470       __imp_getsockname          00000001401fc470     ws2_32:WS2_32.dll
 0002:00000478       __imp_bind                 00000001401fc478     ws2_32:WS2_32.dll
 0002:00000480       __imp_htonl                00000001401fc480     ws2_32:WS2_32.dll
 0002:00000488       __imp_gethostbyaddr        00000001401fc488     ws2_32:WS2_32.dll
 0002:00000490       __imp_inet_ntoa            00000001401fc490     ws2_32:WS2_32.dll
 0002:00000498       __imp_gethostbyname        00000001401fc498     ws2_32:WS2_32.dll
 0002:000004a0       __imp_WSACleanup           00000001401fc4a0     ws2_32:WS2_32.dll
 0002:000004a8       __imp_WSAStartup           00000001401fc4a8     ws2_32:WS2_32.dll
 0002:000004b0       __imp_select               00000001401fc4b0     ws2_32:WS2_32.dll
 0002:000004b8       __imp_ntohl                00000001401fc4b8     ws2_32:WS2_32.dll
 0002:000004c0       __imp_setsockopt           00000001401fc4c0     ws2_32:WS2_32.dll
 0002:000004c8       __imp_htons                00000001401fc4c8     ws2_32:WS2_32.dll
 0002:000004d0       \177WS2_32_NULL_THUNK_DATA 00000001401fc4d0     ws2_32:WS2_32.dll
 0002:000004d8       __imp_strtol               00000001401fc4d8     ucrt:api-ms-win-crt-convert-l1-1-0.dll
 0002:000004e0       __imp_atoi                 00000001401fc4e0     ucrt:api-ms-win-crt-convert-l1-1-0.dll
 0002:000004e8       __imp_atol                 00000001401fc4e8     ucrt:api-ms-win-crt-convert-l1-1-0.dll
 0002:000004f0       __imp_atof                 00000001401fc4f0     ucrt:api-ms-win-crt-convert-l1-1-0.dll
 0002:000004f8       \177api-ms-win-crt-convert-l1-1-0_NULL_THUNK_DATA 00000001401fc4f8     ucrt:api-ms-win-crt-convert-l1-1-0.dll
 0002:00000500       __imp_remove               00000001401fc500     ucrt:api-ms-win-crt-filesystem-l1-1-0.dll
 0002:00000508       __imp__unlock_file         00000001401fc508     ucrt:api-ms-win-crt-filesystem-l1-1-0.dll
 0002:00000510       __imp__lock_file           00000001401fc510     ucrt:api-ms-win-crt-filesystem-l1-1-0.dll
 0002:00000518       \177api-ms-win-crt-filesystem-l1-1-0_NULL_THUNK_DATA 00000001401fc518     ucrt:api-ms-win-crt-filesystem-l1-1-0.dll
 0002:00000520       __imp_malloc               00000001401fc520     ucrt:api-ms-win-crt-heap-l1-1-0.dll
 0002:00000528       __imp__set_new_mode        00000001401fc528     ucrt:api-ms-win-crt-heap-l1-1-0.dll
 0002:00000530       __imp_calloc               00000001401fc530     ucrt:api-ms-win-crt-heap-l1-1-0.dll
 0002:00000538       __imp_realloc              00000001401fc538     ucrt:api-ms-win-crt-heap-l1-1-0.dll
 0002:00000540       __imp_free                 00000001401fc540     ucrt:api-ms-win-crt-heap-l1-1-0.dll
 0002:00000548       __imp__callnewh            00000001401fc548     ucrt:api-ms-win-crt-heap-l1-1-0.dll
 0002:00000550       \177api-ms-win-crt-heap-l1-1-0_NULL_THUNK_DATA 00000001401fc550     ucrt:api-ms-win-crt-heap-l1-1-0.dll
 0002:00000558       __imp____lc_locale_name_func 00000001401fc558     ucrt:api-ms-win-crt-locale-l1-1-0.dll
 0002:00000560       __imp____lc_codepage_func  00000001401fc560     ucrt:api-ms-win-crt-locale-l1-1-0.dll
 0002:00000568       __imp___pctype_func        00000001401fc568     ucrt:api-ms-win-crt-locale-l1-1-0.dll
 0002:00000570       __imp_setlocale            00000001401fc570     ucrt:api-ms-win-crt-locale-l1-1-0.dll
 0002:00000578       __imp__unlock_locales      00000001401fc578     ucrt:api-ms-win-crt-locale-l1-1-0.dll
 0002:00000580       __imp__configthreadlocale  00000001401fc580     ucrt:api-ms-win-crt-locale-l1-1-0.dll
 0002:00000588       __imp__lock_locales        00000001401fc588     ucrt:api-ms-win-crt-locale-l1-1-0.dll
 0002:00000590       \177api-ms-win-crt-locale-l1-1-0_NULL_THUNK_DATA 00000001401fc590     ucrt:api-ms-win-crt-locale-l1-1-0.dll
 0002:00000598       __imp_floorf               00000001401fc598     ucrt:api-ms-win-crt-math-l1-1-0.dll
 0002:000005a0       __imp_ceilf                00000001401fc5a0     ucrt:api-ms-win-crt-math-l1-1-0.dll
 0002:000005a8       __imp_exp                  00000001401fc5a8     ucrt:api-ms-win-crt-math-l1-1-0.dll
 0002:000005b0       __imp_log                  00000001401fc5b0     ucrt:api-ms-win-crt-math-l1-1-0.dll
 0002:000005b8       __imp_pow                  00000001401fc5b8     ucrt:api-ms-win-crt-math-l1-1-0.dll
 0002:000005c0       __imp_sin                  00000001401fc5c0     ucrt:api-ms-win-crt-math-l1-1-0.dll
 0002:000005c8       __imp_sinf                 00000001401fc5c8     ucrt:api-ms-win-crt-math-l1-1-0.dll
 0002:000005d0       __imp_sqrt                 00000001401fc5d0     ucrt:api-ms-win-crt-math-l1-1-0.dll
 0002:000005d8       __imp_cosf                 00000001401fc5d8     ucrt:api-ms-win-crt-math-l1-1-0.dll
 0002:000005e0       __imp_floor                00000001401fc5e0     ucrt:api-ms-win-crt-math-l1-1-0.dll
 0002:000005e8       __imp_asinf                00000001401fc5e8     ucrt:api-ms-win-crt-math-l1-1-0.dll
 0002:000005f0       __imp_ldexp                00000001401fc5f0     ucrt:api-ms-win-crt-math-l1-1-0.dll
 0002:000005f8       __imp_atan                 00000001401fc5f8     ucrt:api-ms-win-crt-math-l1-1-0.dll
 0002:00000600       __imp_atan2f               00000001401fc600     ucrt:api-ms-win-crt-math-l1-1-0.dll
 0002:00000608       __imp_ceil                 00000001401fc608     ucrt:api-ms-win-crt-math-l1-1-0.dll
 0002:00000610       __imp___setusermatherr     00000001401fc610     ucrt:api-ms-win-crt-math-l1-1-0.dll
 0002:00000618       __imp_sqrtf                00000001401fc618     ucrt:api-ms-win-crt-math-l1-1-0.dll
 0002:00000620       __imp_cos                  00000001401fc620     ucrt:api-ms-win-crt-math-l1-1-0.dll
 0002:00000628       __imp_tan                  00000001401fc628     ucrt:api-ms-win-crt-math-l1-1-0.dll
 0002:00000630       \177api-ms-win-crt-math-l1-1-0_NULL_THUNK_DATA 00000001401fc630     ucrt:api-ms-win-crt-math-l1-1-0.dll
 0002:00000638       __imp__errno               00000001401fc638     ucrt:api-ms-win-crt-runtime-l1-1-0.dll
 0002:00000640       __imp__set_app_type        00000001401fc640     ucrt:api-ms-win-crt-runtime-l1-1-0.dll
 0002:00000648       __imp__seh_filter_exe      00000001401fc648     ucrt:api-ms-win-crt-runtime-l1-1-0.dll
 0002:00000650       __imp__crt_atexit          00000001401fc650     ucrt:api-ms-win-crt-runtime-l1-1-0.dll
 0002:00000658       __imp__register_onexit_function 00000001401fc658     ucrt:api-ms-win-crt-runtime-l1-1-0.dll
 0002:00000660       __imp__wassert             00000001401fc660     ucrt:api-ms-win-crt-runtime-l1-1-0.dll
 0002:00000668       __imp_abort                00000001401fc668     ucrt:api-ms-win-crt-runtime-l1-1-0.dll
 0002:00000670       __imp__initialize_onexit_table 00000001401fc670     ucrt:api-ms-win-crt-runtime-l1-1-0.dll
 0002:00000678       __imp__initialize_narrow_environment 00000001401fc678     ucrt:api-ms-win-crt-runtime-l1-1-0.dll
 0002:00000680       __imp__configure_narrow_argv 00000001401fc680     ucrt:api-ms-win-crt-runtime-l1-1-0.dll
 0002:00000688       __imp_strerror             00000001401fc688     ucrt:api-ms-win-crt-runtime-l1-1-0.dll
 0002:00000690       __imp__cexit               00000001401fc690     ucrt:api-ms-win-crt-runtime-l1-1-0.dll
 0002:00000698       __imp__invalid_parameter_noinfo_noreturn 00000001401fc698     ucrt:api-ms-win-crt-runtime-l1-1-0.dll
 0002:000006a0       __imp_exit                 00000001401fc6a0     ucrt:api-ms-win-crt-runtime-l1-1-0.dll
 0002:000006a8       __imp_terminate            00000001401fc6a8     ucrt:api-ms-win-crt-runtime-l1-1-0.dll
 0002:000006b0       __imp__initterm            00000001401fc6b0     ucrt:api-ms-win-crt-runtime-l1-1-0.dll
 0002:000006b8       __imp__initterm_e          00000001401fc6b8     ucrt:api-ms-win-crt-runtime-l1-1-0.dll
 0002:000006c0       __imp__exit                00000001401fc6c0     ucrt:api-ms-win-crt-runtime-l1-1-0.dll
 0002:000006c8       __imp__c_exit              00000001401fc6c8     ucrt:api-ms-win-crt-runtime-l1-1-0.dll
 0002:000006d0       __imp__get_narrow_winmain_command_line 00000001401fc6d0     ucrt:api-ms-win-crt-runtime-l1-1-0.dll
 0002:000006d8       __imp__register_thread_local_exe_atexit_callback 00000001401fc6d8     ucrt:api-ms-win-crt-runtime-l1-1-0.dll
 0002:000006e0       \177api-ms-win-crt-runtime-l1-1-0_NULL_THUNK_DATA 00000001401fc6e0     ucrt:api-ms-win-crt-runtime-l1-1-0.dll
 0002:000006e8       __imp_fgetc                00000001401fc6e8     ucrt:api-ms-win-crt-stdio-l1-1-0.dll
 0002:000006f0       __imp__set_fmode           00000001401fc6f0     ucrt:api-ms-win-crt-stdio-l1-1-0.dll
 0002:000006f8       __imp_fseek                00000001401fc6f8     ucrt:api-ms-win-crt-stdio-l1-1-0.dll
 0002:00000700       __imp___acrt_iob_func      00000001401fc700     ucrt:api-ms-win-crt-stdio-l1-1-0.dll
 0002:00000708       __imp_fopen                00000001401fc708     ucrt:api-ms-win-crt-stdio-l1-1-0.dll
 0002:00000710       __imp___stdio_common_vfprintf 00000001401fc710     ucrt:api-ms-win-crt-stdio-l1-1-0.dll
 0002:00000718       __imp__fseeki64            00000001401fc718     ucrt:api-ms-win-crt-stdio-l1-1-0.dll
 0002:00000720       __imp_fread                00000001401fc720     ucrt:api-ms-win-crt-stdio-l1-1-0.dll
 0002:00000728       __imp_fclose               00000001401fc728     ucrt:api-ms-win-crt-stdio-l1-1-0.dll
 0002:00000730       __imp_ftell                00000001401fc730     ucrt:api-ms-win-crt-stdio-l1-1-0.dll
 0002:00000738       __imp___stdio_common_vsprintf_s 00000001401fc738     ucrt:api-ms-win-crt-stdio-l1-1-0.dll
 0002:00000740       __imp___stdio_common_vsprintf 00000001401fc740     ucrt:api-ms-win-crt-stdio-l1-1-0.dll
 0002:00000748       __imp__get_stream_buffer_pointers 00000001401fc748     ucrt:api-ms-win-crt-stdio-l1-1-0.dll
 0002:00000750       __imp_fflush               00000001401fc750     ucrt:api-ms-win-crt-stdio-l1-1-0.dll
 0002:00000758       __imp_fgetpos              00000001401fc758     ucrt:api-ms-win-crt-stdio-l1-1-0.dll
 0002:00000760       __imp_setvbuf              00000001401fc760     ucrt:api-ms-win-crt-stdio-l1-1-0.dll
 0002:00000768       __imp_fputc                00000001401fc768     ucrt:api-ms-win-crt-stdio-l1-1-0.dll
 0002:00000770       __imp_fsetpos              00000001401fc770     ucrt:api-ms-win-crt-stdio-l1-1-0.dll
 0002:00000778       __imp_fwrite               00000001401fc778     ucrt:api-ms-win-crt-stdio-l1-1-0.dll
 0002:00000780       __imp___p__commode         00000001401fc780     ucrt:api-ms-win-crt-stdio-l1-1-0.dll
 0002:00000788       __imp_ungetc               00000001401fc788     ucrt:api-ms-win-crt-stdio-l1-1-0.dll
 0002:00000790       \177api-ms-win-crt-stdio-l1-1-0_NULL_THUNK_DATA 00000001401fc790     ucrt:api-ms-win-crt-stdio-l1-1-0.dll
 0002:00000798       __imp_tolower              00000001401fc798     ucrt:api-ms-win-crt-string-l1-1-0.dll
 0002:000007a0       __imp_strncpy              00000001401fc7a0     ucrt:api-ms-win-crt-string-l1-1-0.dll
 0002:000007a8       __imp_islower              00000001401fc7a8     ucrt:api-ms-win-crt-string-l1-1-0.dll
 0002:000007b0       __imp_strlen               00000001401fc7b0     ucrt:api-ms-win-crt-string-l1-1-0.dll
 0002:000007b8       __imp_strcmp               00000001401fc7b8     ucrt:api-ms-win-crt-string-l1-1-0.dll
 0002:000007c0       __imp__wcsdup              00000001401fc7c0     ucrt:api-ms-win-crt-string-l1-1-0.dll
 0002:000007c8       __imp_isupper              00000001401fc7c8     ucrt:api-ms-win-crt-string-l1-1-0.dll
 0002:000007d0       __imp_strncmp              00000001401fc7d0     ucrt:api-ms-win-crt-string-l1-1-0.dll
 0002:000007d8       __imp_isspace              00000001401fc7d8     ucrt:api-ms-win-crt-string-l1-1-0.dll
 0002:000007e0       __imp___strncnt            00000001401fc7e0     ucrt:api-ms-win-crt-string-l1-1-0.dll
 0002:000007e8       \177api-ms-win-crt-string-l1-1-0_NULL_THUNK_DATA 00000001401fc7e8     ucrt:api-ms-win-crt-string-l1-1-0.dll
 0002:000007f0       __imp_strftime             00000001401fc7f0     ucrt:api-ms-win-crt-time-l1-1-0.dll
 0002:000007f8       __imp_clock                00000001401fc7f8     ucrt:api-ms-win-crt-time-l1-1-0.dll
 0002:00000800       __imp__localtime64         00000001401fc800     ucrt:api-ms-win-crt-time-l1-1-0.dll
 0002:00000808       __imp__time64              00000001401fc808     ucrt:api-ms-win-crt-time-l1-1-0.dll
 0002:00000810       \177api-ms-win-crt-time-l1-1-0_NULL_THUNK_DATA 00000001401fc810     ucrt:api-ms-win-crt-time-l1-1-0.dll
 0002:00000818       __imp_rand                 00000001401fc818     ucrt:api-ms-win-crt-utility-l1-1-0.dll
 0002:00000820       __imp_qsort                00000001401fc820     ucrt:api-ms-win-crt-utility-l1-1-0.dll
 0002:00000828       \177api-ms-win-crt-utility-l1-1-0_NULL_THUNK_DATA 00000001401fc828     ucrt:api-ms-win-crt-utility-l1-1-0.dll
 0002:00000830       __imp_Discord_Shutdown     00000001401fc830     discord-rpc:discord-rpc.dll
 0002:00000838       __imp_Discord_Initialize   00000001401fc838     discord-rpc:discord-rpc.dll
 0002:00000840       __imp_Discord_UpdatePresence 00000001401fc840     discord-rpc:discord-rpc.dll
 0002:00000848       \177discord-rpc_NULL_THUNK_DATA 00000001401fc848     discord-rpc:discord-rpc.dll
 0002:00000850       __guard_check_icall_fptr   00000001401fc850     MSVCRT:guard_support.obj
 0002:00000858       __guard_xfg_check_icall_fptr 00000001401fc858     MSVCRT:guard_support.obj
 0002:00000860       __guard_dispatch_icall_fptr 00000001401fc860     MSVCRT:guard_support.obj
 0002:00000868       __guard_xfg_dispatch_icall_fptr 00000001401fc868     MSVCRT:guard_support.obj
 0002:00000870       __guard_xfg_table_dispatch_icall_fptr 00000001401fc870     MSVCRT:guard_support.obj
 0002:00000878       __castguard_check_failure_os_handled_fptr 00000001401fc878     MSVCRT:guard_support.obj
 0002:00000880       __guard_memcpy_fptr        00000001401fc880     vcruntime:softmemtag.obj
 0002:00000888       __xc_a                     00000001401fc888     MSVCRT:initializers.obj
 0002:00000a88       __xc_z                     00000001401fca88     MSVCRT:initializers.obj
 0002:00000a90       __xi_a                     00000001401fca90     MSVCRT:initializers.obj
 0002:00000aa8       __xi_z                     00000001401fcaa8     MSVCRT:initializers.obj
 0002:00000ab0       __xl_a                     00000001401fcab0     MSVCRT:tlssup.obj
 0002:00000ab8       __xl_z                     00000001401fcab8     MSVCRT:tlssup.obj
 0002:00000ac0       __xp_a                     00000001401fcac0     MSVCRT:initializers.obj
 0002:00000ac8       __xp_z                     00000001401fcac8     MSVCRT:initializers.obj
 0002:00000ad0       __xt_a                     00000001401fcad0     MSVCRT:initializers.obj
 0002:00000ad8       __xt_z                     00000001401fcad8     MSVCRT:initializers.obj
 0002:00000ae0       __sz_SDL2_dll              00000001401fcae0     SDL2:SDL2.dll
 0002:00000af0       ft_bitmap_glyph_class      00000001401fcaf0     freetype253:ftglyph.obj
 0002:00000b28       ft_outline_glyph_class     00000001401fcb28     freetype253:ftglyph.obj
 0002:00000b60       ft_raccess_guess_table     00000001401fcb60     freetype253:ftbase.obj
 0002:00000c70       ??_C@_02PEOAMJM@?4_@       00000001401fcc70     freetype253:ftbase.obj
 0002:00000c74       ??_C@_05FLPKNBDI@?1rsrc@   00000001401fcc74     freetype253:ftbase.obj
 0002:00000c80       ??_C@_0BC@OBHLCHMP@?1?4?4namedfork?1rsrc@ 00000001401fcc80     freetype253:ftbase.obj
 0002:00000c98       ??_C@_0O@FDMCFKOC@resource?4frk?1@ 00000001401fcc98     freetype253:ftbase.obj
 0002:00000ca8       ??_C@_0L@FGJFJHGF@?4resource?1@ 00000001401fcca8     freetype253:ftbase.obj
 0002:00000cb4       ??_C@_01FGNFDNOH@?$CF@     00000001401fccb4     freetype253:ftbase.obj
 0002:00000cb8       ??_C@_0O@KCDCBAF@?4AppleDouble?1@ 00000001401fccb8     freetype253:ftbase.obj
 0002:00000cc8       ??_C@_03LBLPCGAC@cid@      00000001401fccc8     freetype253:ftbase.obj
 0002:00000ccc       ??_C@_05MJDCDNNA@type1@    00000001401fcccc     freetype253:ftbase.obj
 0002:00000cd4       ??_C@_03IINFADLN@cff@      00000001401fccd4     freetype253:ftbase.obj
 0002:00000cd8       ??_C@_08OKLLNAKL@truetype@ 00000001401fccd8     freetype253:ftbase.obj
 0002:00000ce8       ??_C@_07IAOBDJBM@kerning@  00000001401fcce8     freetype253:ftbase.obj
 0002:00000cf0       ??_C@_0L@POCJHJKN@glyph?9dict@ 00000001401fccf0     freetype253:ftbase.obj
 0002:00000d00       ??_C@_0BF@GDPJODJF@postscript?9font?9name@ 00000001401fcd00     freetype253:ftbase.obj
 0002:00000d18       ??_C@_0L@MBBJBANC@sfnt?9table@ 00000001401fcd18     freetype253:ftbase.obj
 0002:00000d28       ??_C@_08OHCKCLF@tt?9cmaps@ 00000001401fcd28     freetype253:ftbase.obj
 0002:00000d38       ??_C@_0L@CIHKIEFA@properties@ 00000001401fcd38     freetype253:ftbase.obj
 0002:00000d44       ??_C@_06GNKBHGHD@type42@   00000001401fcd44     freetype253:ftbase.obj
 0002:00000d50       ??_C@_0BA@DHLLBDBB@truetype?9engine@ 00000001401fcd50     freetype253:ftbase.obj
 0002:00000e20       af_blue_strings            00000001401fce20     freetype253:autofit.obj
 0002:00001030       af_blue_stringsets         00000001401fd030     freetype253:autofit.obj
 0002:00001118       autofit_module_class       00000001401fd118     freetype253:autofit.obj
 0002:00001150       af_writing_system_classes  00000001401fd150     freetype253:autofit.obj
 0002:00001178       af_cyrl_script_class       00000001401fd178     freetype253:autofit.obj
 0002:00001198       af_grek_script_class       00000001401fd198     freetype253:autofit.obj
 0002:000011b8       af_hebr_script_class       00000001401fd1b8     freetype253:autofit.obj
 0002:000011d8       af_latn_script_class       00000001401fd1d8     freetype253:autofit.obj
 0002:000011f8       af_none_script_class       00000001401fd1f8     freetype253:autofit.obj
 0002:00001218       af_beng_script_class       00000001401fd218     freetype253:autofit.obj
 0002:00001238       af_deva_script_class       00000001401fd238     freetype253:autofit.obj
 0002:00001258       af_gujr_script_class       00000001401fd258     freetype253:autofit.obj
 0002:00001278       af_guru_script_class       00000001401fd278     freetype253:autofit.obj
 0002:00001298       af_knda_script_class       00000001401fd298     freetype253:autofit.obj
 0002:000012b8       af_limb_script_class       00000001401fd2b8     freetype253:autofit.obj
 0002:000012d8       af_mlym_script_class       00000001401fd2d8     freetype253:autofit.obj
 0002:000012f8       af_orya_script_class       00000001401fd2f8     freetype253:autofit.obj
 0002:00001318       af_sinh_script_class       00000001401fd318     freetype253:autofit.obj
 0002:00001338       af_sund_script_class       00000001401fd338     freetype253:autofit.obj
 0002:00001358       af_sylo_script_class       00000001401fd358     freetype253:autofit.obj
 0002:00001378       af_taml_script_class       00000001401fd378     freetype253:autofit.obj
 0002:00001398       af_telu_script_class       00000001401fd398     freetype253:autofit.obj
 0002:000013b8       af_tibt_script_class       00000001401fd3b8     freetype253:autofit.obj
 0002:000013d8       af_hani_script_class       00000001401fd3d8     freetype253:autofit.obj
 0002:00001400       af_script_classes          00000001401fd400     freetype253:autofit.obj
 0002:000014a8       af_cyrl_c2cp_style_class   00000001401fd4a8     freetype253:autofit.obj
 0002:000014c0       af_cyrl_c2sc_style_class   00000001401fd4c0     freetype253:autofit.obj
 0002:000014d8       af_cyrl_ordn_style_class   00000001401fd4d8     freetype253:autofit.obj
 0002:000014f0       af_cyrl_pcap_style_class   00000001401fd4f0     freetype253:autofit.obj
 0002:00001508       af_cyrl_sinf_style_class   00000001401fd508     freetype253:autofit.obj
 0002:00001520       af_cyrl_smcp_style_class   00000001401fd520     freetype253:autofit.obj
 0002:00001538       af_cyrl_subs_style_class   00000001401fd538     freetype253:autofit.obj
 0002:00001550       af_cyrl_sups_style_class   00000001401fd550     freetype253:autofit.obj
 0002:00001568       af_cyrl_titl_style_class   00000001401fd568     freetype253:autofit.obj
 0002:00001580       af_cyrl_dflt_style_class   00000001401fd580     freetype253:autofit.obj
 0002:00001598       af_grek_c2cp_style_class   00000001401fd598     freetype253:autofit.obj
 0002:000015b0       af_grek_c2sc_style_class   00000001401fd5b0     freetype253:autofit.obj
 0002:000015c8       af_grek_ordn_style_class   00000001401fd5c8     freetype253:autofit.obj
 0002:000015e0       af_grek_pcap_style_class   00000001401fd5e0     freetype253:autofit.obj
 0002:000015f8       af_grek_sinf_style_class   00000001401fd5f8     freetype253:autofit.obj
 0002:00001610       af_grek_smcp_style_class   00000001401fd610     freetype253:autofit.obj
 0002:00001628       af_grek_subs_style_class   00000001401fd628     freetype253:autofit.obj
 0002:00001640       af_grek_sups_style_class   00000001401fd640     freetype253:autofit.obj
 0002:00001658       af_grek_titl_style_class   00000001401fd658     freetype253:autofit.obj
 0002:00001670       af_grek_dflt_style_class   00000001401fd670     freetype253:autofit.obj
 0002:00001688       af_hebr_dflt_style_class   00000001401fd688     freetype253:autofit.obj
 0002:000016a0       af_latn_c2cp_style_class   00000001401fd6a0     freetype253:autofit.obj
 0002:000016b8       af_latn_c2sc_style_class   00000001401fd6b8     freetype253:autofit.obj
 0002:000016d0       af_latn_ordn_style_class   00000001401fd6d0     freetype253:autofit.obj
 0002:000016e8       af_latn_pcap_style_class   00000001401fd6e8     freetype253:autofit.obj
 0002:00001700       af_latn_sinf_style_class   00000001401fd700     freetype253:autofit.obj
 0002:00001718       af_latn_smcp_style_class   00000001401fd718     freetype253:autofit.obj
 0002:00001730       af_latn_subs_style_class   00000001401fd730     freetype253:autofit.obj
 0002:00001748       af_latn_sups_style_class   00000001401fd748     freetype253:autofit.obj
 0002:00001760       af_latn_titl_style_class   00000001401fd760     freetype253:autofit.obj
 0002:00001778       af_latn_dflt_style_class   00000001401fd778     freetype253:autofit.obj
 0002:00001790       af_none_dflt_style_class   00000001401fd790     freetype253:autofit.obj
 0002:000017a8       af_beng_dflt_style_class   00000001401fd7a8     freetype253:autofit.obj
 0002:000017c0       af_deva_dflt_style_class   00000001401fd7c0     freetype253:autofit.obj
 0002:000017d8       af_gujr_dflt_style_class   00000001401fd7d8     freetype253:autofit.obj
 0002:000017f0       af_guru_dflt_style_class   00000001401fd7f0     freetype253:autofit.obj
 0002:00001808       af_knda_dflt_style_class   00000001401fd808     freetype253:autofit.obj
 0002:00001820       af_limb_dflt_style_class   00000001401fd820     freetype253:autofit.obj
 0002:00001838       af_mlym_dflt_style_class   00000001401fd838     freetype253:autofit.obj
 0002:00001850       af_orya_dflt_style_class   00000001401fd850     freetype253:autofit.obj
 0002:00001868       af_sinh_dflt_style_class   00000001401fd868     freetype253:autofit.obj
 0002:00001880       af_sund_dflt_style_class   00000001401fd880     freetype253:autofit.obj
 0002:00001898       af_sylo_dflt_style_class   00000001401fd898     freetype253:autofit.obj
 0002:000018b0       af_taml_dflt_style_class   00000001401fd8b0     freetype253:autofit.obj
 0002:000018c8       af_telu_dflt_style_class   00000001401fd8c8     freetype253:autofit.obj
 0002:000018e0       af_tibt_dflt_style_class   00000001401fd8e0     freetype253:autofit.obj
 0002:000018f8       af_hani_dflt_style_class   00000001401fd8f8     freetype253:autofit.obj
 0002:00001910       af_style_classes           00000001401fd910     freetype253:autofit.obj
 0002:00001a90       af_cyrl_uniranges          00000001401fda90     freetype253:autofit.obj
 0002:00001ab8       af_grek_uniranges          00000001401fdab8     freetype253:autofit.obj
 0002:00001ad0       af_hebr_uniranges          00000001401fdad0     freetype253:autofit.obj
 0002:00001af0       af_latn_uniranges          00000001401fdaf0     freetype253:autofit.obj
 0002:00001ba8       af_none_uniranges          00000001401fdba8     freetype253:autofit.obj
 0002:00001bb0       af_beng_uniranges          00000001401fdbb0     freetype253:autofit.obj
 0002:00001bc0       af_deva_uniranges          00000001401fdbc0     freetype253:autofit.obj
 0002:00001bd0       af_gujr_uniranges          00000001401fdbd0     freetype253:autofit.obj
 0002:00001be0       af_guru_uniranges          00000001401fdbe0     freetype253:autofit.obj
 0002:00001bf0       af_knda_uniranges          00000001401fdbf0     freetype253:autofit.obj
 0002:00001c00       af_limb_uniranges          00000001401fdc00     freetype253:autofit.obj
 0002:00001c10       af_mlym_uniranges          00000001401fdc10     freetype253:autofit.obj
 0002:00001c20       af_orya_uniranges          00000001401fdc20     freetype253:autofit.obj
 0002:00001c30       af_sinh_uniranges          00000001401fdc30     freetype253:autofit.obj
 0002:00001c40       af_sund_uniranges          00000001401fdc40     freetype253:autofit.obj
 0002:00001c50       af_sylo_uniranges          00000001401fdc50     freetype253:autofit.obj
 0002:00001c60       af_taml_uniranges          00000001401fdc60     freetype253:autofit.obj
 0002:00001c70       af_telu_uniranges          00000001401fdc70     freetype253:autofit.obj
 0002:00001c80       af_tibt_uniranges          00000001401fdc80     freetype253:autofit.obj
 0002:00001c90       af_hani_uniranges          00000001401fdc90     freetype253:autofit.obj
 0002:00001d98       af_dummy_writing_system_class 00000001401fdd98     freetype253:autofit.obj
 0002:00001dd0       af_latin_writing_system_class 00000001401fddd0     freetype253:autofit.obj
 0002:00001e08       af_cjk_writing_system_class 00000001401fde08     freetype253:autofit.obj
 0002:00001e40       af_indic_writing_system_class 00000001401fde40     freetype253:autofit.obj
 0002:00001ea8       af_autofitter_interface    00000001401fdea8     freetype253:autofit.obj
 0002:00001ec8       ??_C@_0BA@OKOILHEH@fallback?9script@ 00000001401fdec8     freetype253:autofit.obj
 0002:00001ed8       ??_C@_0P@PHBNIPOP@default?9script@ 00000001401fded8     freetype253:autofit.obj
 0002:00001ee8       ??_C@_0BC@OOHNGIJD@increase?9x?9height@ 00000001401fdee8     freetype253:autofit.obj
 0002:00001f00       ??_C@_0BE@CELKBFDM@glyph?9to?9script?9map@ 00000001401fdf00     freetype253:autofit.obj
 0002:00001f18       ??_C@_0L@MNEBCNMP@autofitter@ 00000001401fdf18     freetype253:autofit.obj
 0002:00001f30       __xmm@00000000000000000001000000010000 00000001401fdf30     freetype253:autofit.obj
 0002:00001fb0       tt_driver_class            00000001401fdfb0     freetype253:truetype.obj
 0002:00002060       tt_default_graphics_state  00000001401fe060     freetype253:truetype.obj
 0002:000025a0       ??_C@_06ODJMJFLN@Weight@   00000001401fe5a0     freetype253:truetype.obj
 0002:000025a8       ??_C@_05IBAMDCFI@Width@    00000001401fe5a8     freetype253:truetype.obj
 0002:000025b0       ??_C@_0M@EDHPABCB@OpticalSize@ 00000001401fe5b0     freetype253:truetype.obj
 0002:000025bc       ??_C@_05BCGFHEPH@Slant@    00000001401fe5bc     freetype253:truetype.obj
 0002:000025c8       ??_C@_0BE@OJJAFABD@interpreter?9version@ 00000001401fe5c8     freetype253:truetype.obj
 0002:000025e0       ??_C@_0BB@PMIOOMFN@xf86?9driver?9name@ 00000001401fe5e0     freetype253:truetype.obj
 0002:000025f8       ??_C@_08KJILHNAM@TrueType@ 00000001401fe5f8     freetype253:truetype.obj
 0002:00002608       ??_C@_0O@DHADKGAK@multi?9masters@ 00000001401fe608     freetype253:truetype.obj
 0002:00002618       ??_C@_07CDLHCBDE@tt?9glyf@ 00000001401fe618     freetype253:truetype.obj
 0002:00002620       ??_C@_04JAPIGAPK@sfnt@     00000001401fe620     freetype253:truetype.obj
 0002:00002628       ??_C@_07JBKHDJHE@?4notdef@ 00000001401fe628     freetype253:truetype.obj
 0002:00002630       ??_C@_0P@EMKCEFJO@?$CF?$CBPS?9AdobeFont@ 00000001401fe630     freetype253:type1.obj
 0002:00002640       ??_C@_0L@LLIKMEDC@?$CF?$CBFontType@ 00000001401fe640     freetype253:type1.obj
 0002:0000264c       ??_C@_05OJJBIBFE@eexec@    00000001401fe64c     freetype253:type1.obj
 0002:00002658       ??_C@_0BB@MLEHKAJM@StandardEncoding@ 00000001401fe658     freetype253:type1.obj
 0002:00002670       ??_C@_0P@LHOFAKJ@ExpertEncoding@ 00000001401fe670     freetype253:type1.obj
 0002:00002680       ??_C@_0BC@OHHLKLPP@ISOLatin1Encoding@ 00000001401fe680     freetype253:type1.obj
 0002:00002694       ??_C@_03BHPKJDPK@dup@      00000001401fe694     freetype253:type1.obj
 0002:00002698       ??_C@_03KMONJGDG@put@      00000001401fe698     freetype253:type1.obj
 0002:00002f70       t1_driver_class            00000001401fef70     freetype253:type1.obj
 0002:00003100       ??_C@_07CPCPJPKL@version@  00000001401ff100     freetype253:type1.obj
 0002:00003108       ??_C@_06JHGCIHDH@Notice@   00000001401ff108     freetype253:type1.obj
 0002:00003110       ??_C@_08FPDCFGEH@FullName@ 00000001401ff110     freetype253:type1.obj
 0002:00003120       ??_C@_0L@KKMPOENF@FamilyName@ 00000001401ff120     freetype253:type1.obj
 0002:00003130       ??_C@_0M@ILCDBHGP@ItalicAngle@ 00000001401ff130     freetype253:type1.obj
 0002:00003140       ??_C@_0N@OPLNPOL@isFixedPitch@ 00000001401ff140     freetype253:type1.obj
 0002:00003150       ??_C@_0BC@CCIMILPE@UnderlinePosition@ 00000001401ff150     freetype253:type1.obj
 0002:00003168       ??_C@_0BD@KBICJDLM@UnderlineThickness@ 00000001401ff168     freetype253:type1.obj
 0002:0000317c       ??_C@_06FIINGLDE@FSType@   00000001401ff17c     freetype253:type1.obj
 0002:00003188       ??_C@_08OMJGNOHD@UniqueID@ 00000001401ff188     freetype253:type1.obj
 0002:00003194       ??_C@_05CIIKKFON@lenIV@    00000001401ff194     freetype253:type1.obj
 0002:000031a0       ??_C@_0O@PJDGHDCK@LanguageGroup@ 00000001401ff1a0     freetype253:type1.obj
 0002:000031b0       ??_C@_08NLHBPEGP@password@ 00000001401ff1b0     freetype253:type1.obj
 0002:000031c0       ??_C@_09IPAGIEBG@BlueScale@ 00000001401ff1c0     freetype253:type1.obj
 0002:000031d0       ??_C@_09GDCMDLCO@BlueShift@ 00000001401ff1d0     freetype253:type1.obj
 0002:000031e0       ??_C@_08IPFLJFPM@BlueFuzz@ 00000001401ff1e0     freetype253:type1.obj
 0002:000031f0       ??_C@_0L@DKDIMLOI@BlueValues@ 00000001401ff1f0     freetype253:type1.obj
 0002:00003200       ??_C@_0L@CCJAIIMC@OtherBlues@ 00000001401ff200     freetype253:type1.obj
 0002:00003210       ??_C@_0M@OIPOLIDA@FamilyBlues@ 00000001401ff210     freetype253:type1.obj
 0002:00003220       ??_C@_0BB@FMLCJJDP@FamilyOtherBlues@ 00000001401ff220     freetype253:type1.obj
 0002:00003234       ??_C@_05PHECBFLF@StdHW@    00000001401ff234     freetype253:type1.obj
 0002:0000323c       ??_C@_05OBPKJLMP@StdVW@    00000001401ff23c     freetype253:type1.obj
 0002:00003248       ??_C@_0L@NKGPCONN@MinFeature@ 00000001401ff248     freetype253:type1.obj
 0002:00003258       ??_C@_09NCKADFKP@StemSnapH@ 00000001401ff258     freetype253:type1.obj
 0002:00003268       ??_C@_09GOBAKHA@StemSnapV@ 00000001401ff268     freetype253:type1.obj
 0002:00003278       ??_C@_0BA@PKGIFANC@ExpansionFactor@ 00000001401ff278     freetype253:type1.obj
 0002:00003288       ??_C@_09BDDIAPM@ForceBold@ 00000001401ff288     freetype253:type1.obj
 0002:00003298       ??_C@_08MKFDOKHL@FontName@ 00000001401ff298     freetype253:type1.obj
 0002:000032a8       ??_C@_09PNDIDGHG@PaintType@ 00000001401ff2a8     freetype253:type1.obj
 0002:000032b8       ??_C@_08GBFACKAL@FontType@ 00000001401ff2b8     freetype253:type1.obj
 0002:000032c8       ??_C@_0M@GLGMDIGG@StrokeWidth@ 00000001401ff2c8     freetype253:type1.obj
 0002:000032d8       ??_C@_08EBMMLPNI@FontBBox@ 00000001401ff2d8     freetype253:type1.obj
 0002:000032e4       ??_C@_03DOACNACD@NDV@      00000001401ff2e4     freetype253:type1.obj
 0002:000032e8       ??_C@_03MMGIAIPO@CDV@      00000001401ff2e8     freetype253:type1.obj
 0002:000032f0       ??_C@_0N@PGGOPDKP@DesignVector@ 00000001401ff2f0     freetype253:type1.obj
 0002:00003300       ??_C@_0L@LNCCOCBB@FontMatrix@ 00000001401ff300     freetype253:type1.obj
 0002:00003310       ??_C@_08EJAHIGCJ@Encoding@ 00000001401ff310     freetype253:type1.obj
 0002:0000331c       ??_C@_05DHFNOCDJ@Subrs@    00000001401ff31c     freetype253:type1.obj
 0002:00003328       ??_C@_0M@EKIFGBLL@CharStrings@ 00000001401ff328     freetype253:type1.obj
 0002:00003338       ??_C@_07CFINJGKH@Private@  00000001401ff338     freetype253:type1.obj
 0002:00003340       ??_C@_0BF@BEKHBPMN@BlendDesignPositions@ 00000001401ff340     freetype253:type1.obj
 0002:00003358       ??_C@_0P@FPDIEJKK@BlendDesignMap@ 00000001401ff358     freetype253:type1.obj
 0002:00003368       ??_C@_0P@LEAACMFJ@BlendAxisTypes@ 00000001401ff368     freetype253:type1.obj
 0002:00003378       ??_C@_0N@JPPBHHHF@WeightVector@ 00000001401ff378     freetype253:type1.obj
 0002:00003388       ??_C@_0P@KEOGGALI@BuildCharArray@ 00000001401ff388     freetype253:type1.obj
 0002:00003398       ??_C@_09BJJLCLMA@closefile@ 00000001401ff398     freetype253:type1.obj
 0002:000033a8       ??_C@_0O@CJLBGMNG@FontDirectory@ 00000001401ff3a8     freetype253:type1.obj
 0002:000033b8       ??_C@_08MNGCAOLP@pshinter@ 00000001401ff3b8     freetype253:type1.obj
 0002:000033c8       ??_C@_0BB@JIMLNENF@postscript?9cmaps@ 00000001401ff3c8     freetype253:type1.obj
 0002:000033dc       ??_C@_05MNCLAAKB@psaux@    00000001401ff3dc     freetype253:type1.obj
 0002:000033e8       ??_C@_07FFHPBFOK@Regular@  00000001401ff3e8     freetype253:type1.obj
 0002:000033f0       ??_C@_04DIPHHIHJ@Bold@     00000001401ff3f0     freetype253:type1.obj
 0002:000033f8       ??_C@_05BPGNDIAE@Black@    00000001401ff3f8     freetype253:type1.obj
 0002:00003400       ??_C@_06JCBOBHIA@Type?51@  00000001401ff400     freetype253:type1.obj
 0002:00003408       ??_C@_0BA@EAOIOGJA@postscript?9info@ 00000001401ff408     freetype253:type1.obj
 0002:00003460       cff_cmap_encoding_class_rec 00000001401ff460     freetype253:cff.obj
 0002:000034b0       cff_cmap_unicode_class_rec 00000001401ff4b0     freetype253:cff.obj
 0002:00003500       cff_driver_class           00000001401ff500     freetype253:cff.obj
 0002:00004538       ??_C@_0BF@GIDENNON@darkening?9parameters@ 0000000140200538     freetype253:cff.obj
 0002:00004550       ??_C@_0P@DGAAAJJA@hinting?9engine@ 0000000140200550     freetype253:cff.obj
 0002:00004560       ??_C@_0BC@GFOLLGHN@no?9stem?9darkening@ 0000000140200560     freetype253:cff.obj
 0002:00004574       ??_C@_03IFCOMOMB@CFF@      0000000140200574     freetype253:cff.obj
 0002:00004578       ??_C@_03LMEEOLHO@CID@      0000000140200578     freetype253:cff.obj
 0002:00004580       ??_C@_0CA@JGHPJJJF@?$CF?$CBPS?9Adobe?93?40?5Resource?9CIDFont@ 0000000140200580     freetype253:type1cid.obj
 0002:000045a0       ??_C@_09BFOLOCGO@StartData@ 00000001402005a0     freetype253:type1cid.obj
 0002:000045ac       ??_C@_06EMLBPOPP@?1sfnts@  00000001402005ac     freetype253:type1cid.obj
 0002:000045b4       ??_C@_05NPBNGLLN@?$CIHex?$CJ@ 00000001402005b4     freetype253:type1cid.obj
 0002:00004f50       t1cid_driver_class         0000000140200f50     freetype253:type1cid.obj
 0002:00005090       ??_C@_0M@CKCGNNAK@CIDFontName@ 0000000140201090     freetype253:type1cid.obj
 0002:000050a0       ??_C@_0P@FDOGBFAP@CIDFontVersion@ 00000001402010a0     freetype253:type1cid.obj
 0002:000050b0       ??_C@_0M@IBCFBNHK@CIDFontType@ 00000001402010b0     freetype253:type1cid.obj
 0002:000050c0       ??_C@_08EPBENDNC@Registry@ 00000001402010c0     freetype253:type1cid.obj
 0002:000050d0       ??_C@_08HMKBFHBJ@Ordering@ 00000001402010d0     freetype253:type1cid.obj
 0002:000050e0       ??_C@_0L@EJNILPMC@Supplement@ 00000001402010e0     freetype253:type1cid.obj
 0002:000050f0       ??_C@_07CNNFHHEA@UIDBase@  00000001402010f0     freetype253:type1cid.obj
 0002:000050f8       ??_C@_0N@LBMCPKAC@CIDMapOffset@ 00000001402010f8     freetype253:type1cid.obj
 0002:00005108       ??_C@_07NNGKIHHK@FDBytes@  0000000140201108     freetype253:type1cid.obj
 0002:00005110       ??_C@_07BBMAIHOE@GDBytes@  0000000140201110     freetype253:type1cid.obj
 0002:00005118       ??_C@_08LPCKMOBH@CIDCount@ 0000000140201118     freetype253:type1cid.obj
 0002:00005128       ??_C@_0O@DKIHOHFK@SubrMapOffset@ 0000000140201128     freetype253:type1cid.obj
 0002:00005138       ??_C@_07OJDBLIDF@SDBytes@  0000000140201138     freetype253:type1cid.obj
 0002:00005140       ??_C@_09NKAONILE@SubrCount@ 0000000140201140     freetype253:type1cid.obj
 0002:00005150       ??_C@_0BC@HBJENNOG@lenBuildCharArray@ 0000000140201150     freetype253:type1cid.obj
 0002:00005168       ??_C@_0BD@BGHMBBEO@ForceBoldThreshold@ 0000000140201168     freetype253:type1cid.obj
 0002:00005180       ??_C@_07PEKDNLEP@FDArray@  0000000140201180     freetype253:type1cid.obj
 0002:00005188       ??_C@_0BC@JBBEDJNJ@?$CFADOBeginFontDict@ 0000000140201188     freetype253:type1cid.obj
 0002:000051a0       ??_C@_0L@DDPIBKML@CID?5Type?51@ 00000001402011a0     freetype253:type1cid.obj
 0002:000051ac       ??_C@_05CNMLIGFM@t1cid@    00000001402011ac     freetype253:type1cid.obj
 0002:00005290       pfr_cmap_class_rec         0000000140201290     freetype253:pfr.obj
 0002:000052e0       pfr_driver_class           00000001402012e0     freetype253:pfr.obj
 0002:00005388       pfr_metrics_service_rec    0000000140201388     freetype253:pfr.obj
 0002:000053d0       ??_C@_0M@BAGPBJNL@pfr?9metrics@ 00000001402013d0     freetype253:pfr.obj
 0002:000053dc       ??_C@_03OJCMOBOF@PFR@      00000001402013dc     freetype253:pfr.obj
 0002:000053e0       ??_C@_03OENHCMJJ@pfr@      00000001402013e0     freetype253:pfr.obj
 0002:000057b0       t42_driver_class           00000001402017b0     freetype253:type42.obj
 0002:000058f0       ??_C@_05FJOKMJFH@sfnts@    00000001402018f0     freetype253:type42.obj
 0002:000058f8       ??_C@_05MDIJLHEA@known@    00000001402018f8     freetype253:type42.obj
 0002:00005900       ??_C@_07GJBALKN@Type?542@  0000000140201900     freetype253:type42.obj
 0002:00005910       winfnt_driver_class        0000000140201910     freetype253:winfnt.obj
 0002:00005bb0       ??_C@_0M@DFCIIFPB@Bold?5Italic@ 0000000140201bb0     freetype253:winfnt.obj
 0002:00005bbc       ??_C@_06PPMHIBHB@Italic@   0000000140201bbc     freetype253:winfnt.obj
 0002:00005bc8       ??_C@_0M@FPCOPFGH@Windows?5FNT@ 0000000140201bc8     freetype253:winfnt.obj
 0002:00005bd8       ??_C@_08NAMFKPDH@winfonts@ 0000000140201bd8     freetype253:winfnt.obj
 0002:00005d20       pcf_driver_class           0000000140201d20     freetype253:pcf.obj
 0002:00005dd0       pcf_cmap_class             0000000140201dd0     freetype253:pcf.obj
 0002:00005e60       ??_C@_05NOFPJGIP@SLANT@    0000000140201e60     freetype253:pcf.obj
 0002:00005e68       ??_C@_07EGOIFKG@Oblique@   0000000140201e68     freetype253:pcf.obj
 0002:00005e70       ??_C@_0M@FCJHKPGH@WEIGHT_NAME@ 0000000140201e70     freetype253:pcf.obj
 0002:00005e80       ??_C@_0O@DANCJNNA@SETWIDTH_NAME@ 0000000140201e80     freetype253:pcf.obj
 0002:00005e90       ??_C@_0P@BLEODLOA@ADD_STYLE_NAME@ 0000000140201e90     freetype253:pcf.obj
 0002:00005ea0       ??_C@_0M@FBEHGJKE@FAMILY_NAME@ 0000000140201ea0     freetype253:pcf.obj
 0002:00005eb0       ??_C@_0O@KPOPAFON@AVERAGE_WIDTH@ 0000000140201eb0     freetype253:pcf.obj
 0002:00005ec0       ??_C@_0L@JCJJGPJF@POINT_SIZE@ 0000000140201ec0     freetype253:pcf.obj
 0002:00005ed0       ??_C@_0L@CNGHIHBP@PIXEL_SIZE@ 0000000140201ed0     freetype253:pcf.obj
 0002:00005ee0       ??_C@_0N@NBDHNJFJ@RESOLUTION_X@ 0000000140201ee0     freetype253:pcf.obj
 0002:00005ef0       ??_C@_0N@MICMOIBI@RESOLUTION_Y@ 0000000140201ef0     freetype253:pcf.obj
 0002:00005f00       ??_C@_0BB@OHIDJKBJ@CHARSET_REGISTRY@ 0000000140201f00     freetype253:pcf.obj
 0002:00005f18       ??_C@_0BB@OBJAMPOC@CHARSET_ENCODING@ 0000000140201f18     freetype253:pcf.obj
 0002:00005f2c       ??_C@_05FPAEEJJG@10646@    0000000140201f2c     freetype253:pcf.obj
 0002:00005f34       ??_C@_04LBDHIBCK@8859@     0000000140201f34     freetype253:pcf.obj
 0002:00005f3c       ??_C@_03DDONLALG@bdf@      0000000140201f3c     freetype253:pcf.obj
 0002:00005f40       ??_C@_03MBEJPEFL@PCF@      0000000140201f40     freetype253:pcf.obj
 0002:00005f44       ??_C@_03MMLCDJCH@pcf@      0000000140201f44     freetype253:pcf.obj
 0002:00005f50       ps_table_funcs             0000000140201f50     freetype253:psaux.obj
 0002:00005f70       ps_parser_funcs            0000000140201f70     freetype253:psaux.obj
 0002:00005fe0       t1_builder_funcs           0000000140201fe0     freetype253:psaux.obj
 0002:00006020       t1_decoder_funcs           0000000140202020     freetype253:psaux.obj
 0002:00006040       t1_cmap_standard_class_rec 0000000140202040     freetype253:psaux.obj
 0002:00006090       t1_cmap_expert_class_rec   0000000140202090     freetype253:psaux.obj
 0002:000060e0       t1_cmap_custom_class_rec   00000001402020e0     freetype253:psaux.obj
 0002:00006130       t1_cmap_unicode_class_rec  0000000140202130     freetype253:psaux.obj
 0002:00006180       afm_parser_funcs           0000000140202180     freetype253:psaux.obj
 0002:00006198       t1_cmap_classes            0000000140202198     freetype253:psaux.obj
 0002:000061f0       psaux_module_class         00000001402021f0     freetype253:psaux.obj
 0002:00006570       ??_C@_08NBPEBJDA@Ascender@ 0000000140202570     freetype253:psaux.obj
 0002:00006580       ??_C@_09POOBGNPO@AxisLabel@ 0000000140202580     freetype253:psaux.obj
 0002:00006590       ??_C@_08KLONHBMG@AxisType@ 0000000140202590     freetype253:psaux.obj
 0002:0000659c       ??_C@_01HMGJMAIH@B@        000000014020259c     freetype253:psaux.obj
 0002:000065a0       ??_C@_01GFHCPBMG@C@        00000001402025a0     freetype253:psaux.obj
 0002:000065a4       ??_C@_02KJDGAJLC@CC@       00000001402025a4     freetype253:psaux.obj
 0002:000065a8       ??_C@_02EKMCNAHJ@CH@       00000001402025a8     freetype253:psaux.obj
 0002:000065b0       ??_C@_09JOCJHGEG@CapHeight@ 00000001402025b0     freetype253:psaux.obj
 0002:000065c0       ??_C@_09CGMEAFLF@CharWidth@ 00000001402025c0     freetype253:psaux.obj
 0002:000065d0       ??_C@_0N@LHPDLMAH@CharacterSet@ 00000001402025d0     freetype253:psaux.obj
 0002:000065e0       ??_C@_0L@EMODJLOD@Characters@ 00000001402025e0     freetype253:psaux.obj
 0002:000065f0       ??_C@_09JMDLBBJN@Descender@ 00000001402025f0     freetype253:psaux.obj
 0002:00006600       ??_C@_0P@JNPLONMI@EncodingScheme@ 0000000140202600     freetype253:psaux.obj
 0002:00006610       ??_C@_07DLEALFPL@EndAxis@  0000000140202610     freetype253:psaux.obj
 0002:00006618       ??_C@_0P@GFNMGKCM@EndCharMetrics@ 0000000140202618     freetype253:psaux.obj
 0002:00006628       ??_C@_0O@JABMALCH@EndComposites@ 0000000140202628     freetype253:psaux.obj
 0002:00006638       ??_C@_0N@FNMEONKF@EndDirection@ 0000000140202638     freetype253:psaux.obj
 0002:00006648       ??_C@_0P@FGFFCKLI@EndFontMetrics@ 0000000140202648     freetype253:psaux.obj
 0002:00006658       ??_C@_0M@HKHGIIOM@EndKernData@ 0000000140202658     freetype253:psaux.obj
 0002:00006668       ??_C@_0N@IJIACAAI@EndKernPairs@ 0000000140202668     freetype253:psaux.obj
 0002:00006678       ??_C@_0N@FEBBJBLC@EndTrackKern@ 0000000140202678     freetype253:psaux.obj
 0002:00006688       ??_C@_07BNJNBMEL@EscChar@  0000000140202688     freetype253:psaux.obj
 0002:00006690       ??_C@_0L@PAHDJIHN@IsBaseFont@ 0000000140202690     freetype253:psaux.obj
 0002:000066a0       ??_C@_09OIFAOJEJ@IsCIDFont@ 00000001402026a0     freetype253:psaux.obj
 0002:000066b0       ??_C@_0N@LNIFJEBO@IsFixedPitch@ 00000001402026b0     freetype253:psaux.obj
 0002:000066c0       ??_C@_08CHFNODLO@IsFixedV@ 00000001402026c0     freetype253:psaux.obj
 0002:000066cc       ??_C@_02MGMKBJJI@KP@       00000001402026cc     freetype253:psaux.obj
 0002:000066d0       ??_C@_03MGLCBEGC@KPH@      00000001402026d0     freetype253:psaux.obj
 0002:000066d4       ??_C@_03IMHAAGDD@KPX@      00000001402026d4     freetype253:psaux.obj
 0002:000066d8       ??_C@_03JFGLDHHC@KPY@      00000001402026d8     freetype253:psaux.obj
 0002:000066dc       ??_C@_01OCOKONAJ@L@        00000001402026dc     freetype253:psaux.obj
 0002:000066e0       ??_C@_0O@NDBFHPJC@MappingScheme@ 00000001402026e0     freetype253:psaux.obj
 0002:000066f0       ??_C@_0M@PGHPLBFB@MetricsSets@ 00000001402026f0     freetype253:psaux.obj
 0002:000066fc       ??_C@_01NANMIPIL@N@        00000001402026fc     freetype253:psaux.obj
 0002:00006700       ??_C@_03LMDOAABO@PCC@      0000000140202700     freetype253:psaux.obj
 0002:00006708       ??_C@_09JMBADFPL@StartAxis@ 0000000140202708     freetype253:psaux.obj
 0002:00006718       ??_C@_0BB@JDMDJAID@StartCharMetrics@ 0000000140202718     freetype253:psaux.obj
 0002:00006730       ??_C@_0BA@DGMAPPPC@StartComposites@ 0000000140202730     freetype253:psaux.obj
 0002:00006740       ??_C@_0P@DNGHFPAA@StartDirection@ 0000000140202740     freetype253:psaux.obj
 0002:00006750       ??_C@_0BB@KAEKNABH@StartFontMetrics@ 0000000140202750     freetype253:psaux.obj
 0002:00006768       ??_C@_0O@GJEKPIHD@StartKernData@ 0000000140202768     freetype253:psaux.obj
 0002:00006778       ??_C@_0P@OJCDJCKN@StartKernPairs@ 0000000140202778     freetype253:psaux.obj
 0002:00006788       ??_C@_0BA@HHMIMKDE@StartKernPairs0@ 0000000140202788     freetype253:psaux.obj
 0002:00006798       ??_C@_0BA@GONDPLHF@StartKernPairs1@ 0000000140202798     freetype253:psaux.obj
 0002:000067a8       ??_C@_0P@DELCCDBH@StartTrackKern@ 00000001402027a8     freetype253:psaux.obj
 0002:000067b8       ??_C@_09DJCDMHFC@TrackKern@ 00000001402027b8     freetype253:psaux.obj
 0002:000067c4       ??_C@_02IEGOIODN@VV@       00000001402027c4     freetype253:psaux.obj
 0002:000067c8       ??_C@_07HFOFDFIM@VVector@  00000001402027c8     freetype253:psaux.obj
 0002:000067d0       ??_C@_07NGFJPNPN@Version@  00000001402027d0     freetype253:psaux.obj
 0002:000067d8       ??_C@_01ELNMCGJD@W@        00000001402027d8     freetype253:psaux.obj
 0002:000067dc       ??_C@_02LGALCICL@W0@       00000001402027dc     freetype253:psaux.obj
 0002:000067e0       ??_C@_03NOGICFDE@W0X@      00000001402027e0     freetype253:psaux.obj
 0002:000067e4       ??_C@_03MHHDBEHF@W0Y@      00000001402027e4     freetype253:psaux.obj
 0002:000067e8       ??_C@_02KPBABJGK@W1@       00000001402027e8     freetype253:psaux.obj
 0002:000067ec       ??_C@_03NPKKEPAD@W1X@      00000001402027ec     freetype253:psaux.obj
 0002:000067f0       ??_C@_03MGLBHOEC@W1Y@      00000001402027f0     freetype253:psaux.obj
 0002:000067f4       ??_C@_02BLCPMJIE@WX@       00000001402027f4     freetype253:psaux.obj
 0002:000067f8       ??_C@_02CDEPIMF@WY@        00000001402027f8     freetype253:psaux.obj
 0002:00006800       ??_C@_07MIHJBPO@XHeight@   0000000140202800     freetype253:psaux.obj
 0002:00006810       psnames_module_class       0000000140202810     freetype253:psmodule.obj
 0002:00015bb0       ??_C@_07POODEHEH@psnames@  0000000140211bb0     freetype253:psmodule.obj
 0002:00015bd0       pshinter_module_class      0000000140211bd0     freetype253:pshinter.obj
 0002:00015c10       ft_standard_raster         0000000140211c10     freetype253:raster.obj
 0002:00015c40       ft_raster1_renderer_class  0000000140211c40     freetype253:raster.obj
 0002:00015cb0       ft_raster5_renderer_class  0000000140211cb0     freetype253:raster.obj
 0002:00015d18       ??_C@_07EFFNHEPH@raster1@  0000000140211d18     freetype253:raster.obj
 0002:00015d20       ??_C@_07CBDBLBPD@raster5@  0000000140211d20     freetype253:raster.obj
 0002:00015d30       tt_cmap13_class_rec        0000000140211d30     freetype253:sfnt.obj
 0002:00015da0       tt_cmap14_class_rec        0000000140211da0     freetype253:sfnt.obj
 0002:00015f38       sfnt_module_class          0000000140211f38     freetype253:sfnt.obj
 0002:000163d0       tt_cmap0_class_rec         00000001402123d0     freetype253:sfnt.obj
 0002:00016440       tt_cmap2_class_rec         0000000140212440     freetype253:sfnt.obj
 0002:000164b0       tt_cmap4_class_rec         00000001402124b0     freetype253:sfnt.obj
 0002:00016520       tt_cmap6_class_rec         0000000140212520     freetype253:sfnt.obj
 0002:00016590       tt_cmap8_class_rec         0000000140212590     freetype253:sfnt.obj
 0002:00016600       tt_cmap10_class_rec        0000000140212600     freetype253:sfnt.obj
 0002:00016670       tt_cmap12_class_rec        0000000140212670     freetype253:sfnt.obj
 0002:000166e0       ft_grays_raster            00000001402126e0     freetype253:smooth.obj
 0002:00016740       ft_smooth_renderer_class   0000000140212740     freetype253:smooth.obj
 0002:000167b0       ft_smooth_lcd_renderer_class 00000001402127b0     freetype253:smooth.obj
 0002:00016820       ft_smooth_lcdv_renderer_class 0000000140212820     freetype253:smooth.obj
 0002:00016888       ??_C@_06INICNAFJ@smooth@   0000000140212888     freetype253:smooth.obj
 0002:00016890       ??_C@_0L@KCJBAIJI@smooth?9lcd@ 0000000140212890     freetype253:smooth.obj
 0002:000168a0       ??_C@_0M@IHBDFEAO@smooth?9lcdv@ 00000001402128a0     freetype253:smooth.obj
 0002:00017180       bdf_driver_class           0000000140213180     freetype253:bdf.obj
 0002:00017230       bdf_cmap_class             0000000140213230     freetype253:bdf.obj
 0002:000172c0       ??_C@_0BC@DEIBICAG@AVG_CAPITAL_WIDTH@ 00000001402132c0     freetype253:bdf.obj
 0002:000172d8       ??_C@_0BE@FDPIDJIH@AVG_LOWERCASE_WIDTH@ 00000001402132d8     freetype253:bdf.obj
 0002:000172f0       ??_C@_0L@IPPBEDCK@CAP_HEIGHT@ 00000001402132f0     freetype253:bdf.obj
 0002:00017300       ??_C@_0BE@KNHMGHPI@CHARSET_COLLECTIONS@ 0000000140213300     freetype253:bdf.obj
 0002:00017318       ??_C@_07JEDAPFNH@COMMENT@  0000000140213318     freetype253:bdf.obj
 0002:00017320       ??_C@_09DJIAAPDG@COPYRIGHT@ 0000000140213320     freetype253:bdf.obj
 0002:00017330       ??_C@_0N@LOGJBDOF@DEFAULT_CHAR@ 0000000140213330     freetype253:bdf.obj
 0002:00017340       ??_C@_0M@LFJMPFGC@DESTINATION@ 0000000140213340     freetype253:bdf.obj
 0002:00017350       ??_C@_0BB@PJMJCLEI@DEVICE_FONT_NAME@ 0000000140213350     freetype253:bdf.obj
 0002:00017368       ??_C@_09GEIPNEKC@END_SPACE@ 0000000140213368     freetype253:bdf.obj
 0002:00017378       ??_C@_09DLOGKOHL@FACE_NAME@ 0000000140213378     freetype253:bdf.obj
 0002:00017388       ??_C@_0N@LCIIJFB@FIGURE_WIDTH@ 0000000140213388     freetype253:bdf.obj
 0002:00017398       ??_C@_04IJMKNFPK@FONT@     0000000140213398     freetype253:bdf.obj
 0002:000173a0       ??_C@_0BC@LNICJLFI@FONTNAME_REGISTRY@ 00000001402133a0     freetype253:bdf.obj
 0002:000173b8       ??_C@_0M@ECCDLGDC@FONT_ASCENT@ 00000001402133b8     freetype253:bdf.obj
 0002:000173c8       ??_C@_0N@BAIKBLGK@FONT_DESCENT@ 00000001402133c8     freetype253:bdf.obj
 0002:000173d8       ??_C@_07GMNLECKJ@FOUNDRY@  00000001402133d8     freetype253:bdf.obj
 0002:000173e0       ??_C@_09IGHCOKHJ@FULL_NAME@ 00000001402133e0     freetype253:bdf.obj
 0002:000173f0       ??_C@_0N@LHJKBLMB@ITALIC_ANGLE@ 00000001402133f0     freetype253:bdf.obj
 0002:00017400       ??_C@_09IDPFHPOD@MAX_SPACE@ 0000000140213400     freetype253:bdf.obj
 0002:00017410       ??_C@_09ICPJOFFH@MIN_SPACE@ 0000000140213410     freetype253:bdf.obj
 0002:00017420       ??_C@_0L@CKCFAFFG@NORM_SPACE@ 0000000140213420     freetype253:bdf.obj
 0002:0001742c       ??_C@_06FMPEGAHJ@NOTICE@   000000014021342c     freetype253:bdf.obj
 0002:00017438       ??_C@_0L@MANNMNIK@QUAD_WIDTH@ 0000000140213438     freetype253:bdf.obj
 0002:00017448       ??_C@_0L@CAMLDNCF@RAW_ASCENT@ 0000000140213448     freetype253:bdf.obj
 0002:00017458       ??_C@_0BC@LNOEENJF@RAW_AVERAGE_WIDTH@ 0000000140213458     freetype253:bdf.obj
 0002:00017470       ??_C@_0BG@PEMOHOIO@RAW_AVG_CAPITAL_WIDTH@ 0000000140213470     freetype253:bdf.obj
 0002:00017488       ??_C@_0BI@BEKJFFLM@RAW_AVG_LOWERCASE_WIDTH@ 0000000140213488     freetype253:bdf.obj
 0002:000174a0       ??_C@_0P@PDBKEGFB@RAW_CAP_HEIGHT@ 00000001402134a0     freetype253:bdf.obj
 0002:000174b0       ??_C@_0M@JDDLHGCG@RAW_DESCENT@ 00000001402134b0     freetype253:bdf.obj
 0002:000174c0       ??_C@_0O@FDGFBIGM@RAW_END_SPACE@ 00000001402134c0     freetype253:bdf.obj
 0002:000174d0       ??_C@_0BB@LHIJKBAI@RAW_FIGURE_WIDTH@ 00000001402134d0     freetype253:bdf.obj
 0002:000174e8       ??_C@_0O@LEBPLDCN@RAW_MAX_SPACE@ 00000001402134e8     freetype253:bdf.obj
 0002:000174f8       ??_C@_0O@LFBDCJJJ@RAW_MIN_SPACE@ 00000001402134f8     freetype253:bdf.obj
 0002:00017508       ??_C@_0P@FGMOAACN@RAW_NORM_SPACE@ 0000000140213508     freetype253:bdf.obj
 0002:00017518       ??_C@_0P@FBIMICGE@RAW_PIXEL_SIZE@ 0000000140213518     freetype253:bdf.obj
 0002:00017528       ??_C@_0P@OOHCGKOO@RAW_POINT_SIZE@ 0000000140213528     freetype253:bdf.obj
 0002:00017538       ??_C@_0O@HNFKKCGD@RAW_PIXELSIZE@ 0000000140213538     freetype253:bdf.obj
 0002:00017548       ??_C@_0O@FDNDDOFA@RAW_POINTSIZE@ 0000000140213548     freetype253:bdf.obj
 0002:00017558       ??_C@_0P@LMDGMIPB@RAW_QUAD_WIDTH@ 0000000140213558     freetype253:bdf.obj
 0002:00017568       ??_C@_0BD@HHNHPPKD@RAW_SMALL_CAP_SIZE@ 0000000140213568     freetype253:bdf.obj
 0002:00017580       ??_C@_0BF@DLAIFMIE@RAW_STRIKEOUT_ASCENT@ 0000000140213580     freetype253:bdf.obj
 0002:00017598       ??_C@_0BG@DCPBCGDJ@RAW_STRIKEOUT_DESCENT@ 0000000140213598     freetype253:bdf.obj
 0002:000175b0       ??_C@_0BD@FGAMCDPE@RAW_SUBSCRIPT_SIZE@ 00000001402135b0     freetype253:bdf.obj
 0002:000175c8       ??_C@_0BA@ICOMKGEO@RAW_SUBSCRIPT_X@ 00000001402135c8     freetype253:bdf.obj
 0002:000175d8       ??_C@_0BA@JLPHJHAP@RAW_SUBSCRIPT_Y@ 00000001402135d8     freetype253:bdf.obj
 0002:000175e8       ??_C@_0BF@ILCJEECH@RAW_SUPERSCRIPT_SIZE@ 00000001402135e8     freetype253:bdf.obj
 0002:00017600       ??_C@_0BC@EMCLOPNI@RAW_SUPERSCRIPT_X@ 0000000140213600     freetype253:bdf.obj
 0002:00017618       ??_C@_0BC@FFDANOJJ@RAW_SUPERSCRIPT_Y@ 0000000140213618     freetype253:bdf.obj
 0002:00017630       ??_C@_0BH@LIHCGIBB@RAW_UNDERLINE_POSITION@ 0000000140213630     freetype253:bdf.obj
 0002:00017648       ??_C@_0BI@OEPMFPAK@RAW_UNDERLINE_THICKNESS@ 0000000140213648     freetype253:bdf.obj
 0002:00017660       ??_C@_0N@LFICGJOL@RAW_X_HEIGHT@ 0000000140213660     freetype253:bdf.obj
 0002:00017670       ??_C@_0BC@JMGAMBDF@RELATIVE_SETWIDTH@ 0000000140213670     freetype253:bdf.obj
 0002:00017688       ??_C@_0BA@NKHOPHOP@RELATIVE_WEIGHT@ 0000000140213688     freetype253:bdf.obj
 0002:00017698       ??_C@_0L@JGAABLGD@RESOLUTION@ 0000000140213698     freetype253:bdf.obj
 0002:000176a8       ??_C@_0P@CJBLANOF@SMALL_CAP_SIZE@ 00000001402136a8     freetype253:bdf.obj
 0002:000176b8       ??_C@_07JKNGKIOL@SPACING@  00000001402136b8     freetype253:bdf.obj
 0002:000176c0       ??_C@_0BB@MOJIHJPL@STRIKEOUT_ASCENT@ 00000001402136c0     freetype253:bdf.obj
 0002:000176d8       ??_C@_0BC@PCLONKLB@STRIKEOUT_DESCENT@ 00000001402136d8     freetype253:bdf.obj
 0002:000176f0       ??_C@_0P@IMANBLC@SUBSCRIPT_SIZE@ 00000001402136f0     freetype253:bdf.obj
 0002:00017700       ??_C@_0M@EFEHOFPP@SUBSCRIPT_X@ 0000000140213700     freetype253:bdf.obj
 0002:00017710       ??_C@_0M@FMFMNELO@SUBSCRIPT_Y@ 0000000140213710     freetype253:bdf.obj
 0002:00017720       ??_C@_0BB@HOLJGBFI@SUPERSCRIPT_SIZE@ 0000000140213720     freetype253:bdf.obj
 0002:00017738       ??_C@_0O@FOCAKHKA@SUPERSCRIPT_X@ 0000000140213738     freetype253:bdf.obj
 0002:00017748       ??_C@_0O@EHDLJGOB@SUPERSCRIPT_Y@ 0000000140213748     freetype253:bdf.obj
 0002:00017758       ??_C@_0BD@FLNBCMPP@UNDERLINE_POSITION@ 0000000140213758     freetype253:bdf.obj
 0002:00017770       ??_C@_0BE@KDKNDDDB@UNDERLINE_THICKNESS@ 0000000140213770     freetype253:bdf.obj
 0002:00017784       ??_C@_06CIAKHCPD@WEIGHT@   0000000140213784     freetype253:bdf.obj
 0002:00017790       ??_C@_08IHHFFHAA@X_HEIGHT@ 0000000140213790     freetype253:bdf.obj
 0002:000177a0       ??_C@_0BG@NJJHMBCE@_MULE_BASELINE_OFFSET@ 00000001402137a0     freetype253:bdf.obj
 0002:000177b8       ??_C@_0BH@EGBLCDE@_MULE_RELATIVE_COMPOSE@ 00000001402137b8     freetype253:bdf.obj
 0002:000177d0       ??_C@_05HCHEPOAH@CHARS@    00000001402137d0     freetype253:bdf.obj
 0002:000177d8       ??_C@_02EOIDJNGE@?5?$CL@   00000001402137d8     freetype253:bdf.obj
 0002:000177e0       ??_C@_07MLEKHHFJ@ENDFONT@  00000001402137e0     freetype253:bdf.obj
 0002:000177e8       ??_C@_07MDHLCACL@ENDCHAR@  00000001402137e8     freetype253:bdf.obj
 0002:000177f0       ??_C@_09BPKMEANO@STARTCHAR@ 00000001402137f0     freetype253:bdf.obj
 0002:00017800       ??_C@_08LEFKDKKN@ENCODING@ 0000000140213800     freetype253:bdf.obj
 0002:0001780c       ??_C@_06HDKFFNNH@SWIDTH@   000000014021380c     freetype253:bdf.obj
 0002:00017814       ??_C@_06NBNMPPJH@DWIDTH@   0000000140213814     freetype253:bdf.obj
 0002:0001781c       ??_C@_03OONKDOKH@BBX@      000000014021381c     freetype253:bdf.obj
 0002:00017820       ??_C@_06PGFOEMDN@BITMAP@   0000000140213820     freetype253:bdf.obj
 0002:00017828       ??_C@_0O@JFDPHGFD@ENDPROPERTIES@ 0000000140213828     freetype253:bdf.obj
 0002:00017838       ??_C@_03OACELNE@?$CFhd@    0000000140213838     freetype253:bdf.obj
 0002:00017840       ??_C@_0BG@NDMEGDOA@_XFREE86_GLYPH_RANGES@ 0000000140213840     freetype253:bdf.obj
 0002:00017858       ??_C@_09BHJNBHKM@STARTFONT@ 0000000140213858     freetype253:bdf.obj
 0002:00017868       ??_C@_0BA@HGECMEMA@STARTPROPERTIES@ 0000000140213868     freetype253:bdf.obj
 0002:00017878       ??_C@_0BA@PIDAKDPC@FONTBOUNDINGBOX@ 0000000140213878     freetype253:bdf.obj
 0002:00017888       ??_C@_04EMFHLKGI@SIZE@     0000000140213888     freetype253:bdf.obj
 0002:00017890       ??_C@_03DOBGHNMK@BDF@      0000000140213890     freetype253:bdf.obj
 0002:000178a0       __xmm@00000008000000000000000100000001 00000001402138a0     freetype253:bdf.obj
 0002:00018c50       ??_C@_0CI@CGMOPDPD@oversubscribed?5dynamic?5bit?5leng@ 0000000140214c50     freetype253:ftgzip.obj
 0002:00018c78       ??_C@_0CE@LOHAHEGK@incomplete?5dynamic?5bit?5lengths?5@ 0000000140214c78     freetype253:ftgzip.obj
 0002:00018ca0       ??_C@_0CD@GJIDGCKE@oversubscribed?5literal?1length?5t@ 0000000140214ca0     freetype253:ftgzip.obj
 0002:00018cc8       ??_C@_0BP@NEEEJJNA@incomplete?5literal?1length?5tree@ 0000000140214cc8     freetype253:ftgzip.obj
 0002:00018ce8       ??_C@_0BN@KBLCDIAI@oversubscribed?5distance?5tree@ 0000000140214ce8     freetype253:ftgzip.obj
 0002:00018d08       ??_C@_0BJ@CBCPDPJF@incomplete?5distance?5tree@ 0000000140214d08     freetype253:ftgzip.obj
 0002:00018d28       ??_C@_0CB@KPKKKLFO@empty?5distance?5tree?5with?5length@ 0000000140214d28     freetype253:ftgzip.obj
 0002:00018d50       ??_C@_0BM@FFFLPBBC@invalid?5literal?1length?5code@ 0000000140214d50     freetype253:ftgzip.obj
 0002:00018d70       ??_C@_0BG@LBKINIKP@invalid?5distance?5code@ 0000000140214d70     freetype253:ftgzip.obj
 0002:00018d88       ??_C@_0BD@PJCBIDD@invalid?5block?5type@ 0000000140214d88     freetype253:ftgzip.obj
 0002:00018da0       ??_C@_0BN@LGAADGOK@invalid?5stored?5block?5lengths@ 0000000140214da0     freetype253:ftgzip.obj
 0002:00018dc0       ??_C@_0CE@GMIGFPBB@too?5many?5length?5or?5distance?5sym@ 0000000140214dc0     freetype253:ftgzip.obj
 0002:00018de8       ??_C@_0BK@BMMPFBBH@invalid?5bit?5length?5repeat@ 0000000140214de8     freetype253:ftgzip.obj
 0002:00018e04       ??_C@_05DOIEBMOI@1?41?44@  0000000140214e04     freetype253:ftgzip.obj
 0002:00018e10       ??_C@_0BL@IHKGDAEE@unknown?5compression?5method@ 0000000140214e10     freetype253:ftgzip.obj
 0002:00018e30       ??_C@_0BE@EMOGCLGO@invalid?5window?5size@ 0000000140214e30     freetype253:ftgzip.obj
 0002:00018e48       ??_C@_0BH@LIBMMIGA@incorrect?5header?5check@ 0000000140214e48     freetype253:ftgzip.obj
 0002:00018e60       ??_C@_0BA@MOKMMFOD@need?5dictionary@ 0000000140214e60     freetype253:ftgzip.obj
 0002:00018e70       ??_C@_0BF@MEIGEHBE@incorrect?5data?5check@ 0000000140214e70     freetype253:ftgzip.obj
 0002:00019000       __sz_OpenAL32_dll          0000000140215000     openal32:OpenAL32.dll
 0002:00019018       DETOUR_EXE_RESTORE_GUID    0000000140215018     detours:modules.obj
 0002:00019100       ??_C@_1BK@DBDEIDLH@?$AAK?$AAE?$AAR?$AAN?$AAE?$AAL?$AA3?$AA2?$AA?4?$AAD?$AAL?$AAL@ 0000000140215100     Delayimp:delayhlp.obj
 0002:00019120       ??_C@_0BI@OMNLIJDB@AcquireSRWLockExclusive@ 0000000140215120     Delayimp:delayhlp.obj
 0002:00019138       ??_C@_0BI@HMIEPCNJ@ReleaseSRWLockExclusive@ 0000000140215138     Delayimp:delayhlp.obj
 0002:00019150       __pfnDliNotifyHook2        0000000140215150     Delayimp:delayhk2.obj
 0002:00019158       __pfnDliFailureHook2       0000000140215158     Delayimp:delayhk1.obj
 0002:00019168       ??_7exception@std@@6B@     0000000140215168     libcpmt:cout.obj
 0002:00019180       ??_7bad_alloc@std@@6B@     0000000140215180     libcpmt:cout.obj
 0002:00019198       ??_7bad_array_new_length@std@@6B@ 0000000140215198     libcpmt:cout.obj
 0002:000191b0       ??_7runtime_error@std@@6B@ 00000001402151b0     libcpmt:cout.obj
 0002:000191c8       ??_7_System_error@std@@6B@ 00000001402151c8     libcpmt:cout.obj
 0002:000191e0       ??_7system_error@std@@6B@  00000001402151e0     libcpmt:cout.obj
 0002:000191f8       ??_7_Iostream_error_category2@std@@6B@ 00000001402151f8     libcpmt:cout.obj
 0002:00019230       ??_7bad_cast@std@@6B@      0000000140215230     libcpmt:cout.obj
 0002:00019240       ??_C@_08EPJLHIJG@bad?5cast@ 0000000140215240     libcpmt:cout.obj
 0002:00019258       ??_7_Facet_base@std@@6B@   0000000140215258     libcpmt:cout.obj
 0002:00019270       ??_C@_0BA@ELKIONDK@bad?5locale?5name@ 0000000140215270     libcpmt:cout.obj
 0002:00019288       ??_7?$ctype@D@std@@6B@     0000000140215288     libcpmt:cout.obj
 0002:000192e8       ??_7failure@ios_base@std@@6B@ 00000001402152e8     libcpmt:cout.obj
 0002:00019300       ??_7ios_base@std@@6B@      0000000140215300     libcpmt:cout.obj
 0002:00019310       ??_7?$basic_ios@DU?$char_traits@D@std@@@std@@6B@ 0000000140215310     libcpmt:cout.obj
 0002:00019320       ??_7?$basic_ostream@DU?$char_traits@D@std@@@std@@6B@ 0000000140215320     libcpmt:cout.obj
 0002:00019328       ??_8?$basic_ostream@DU?$char_traits@D@std@@@std@@7B@ 0000000140215328     libcpmt:cout.obj
 0002:00019338       ??_7?$basic_streambuf@DU?$char_traits@D@std@@@std@@6B@ 0000000140215338     libcpmt:cout.obj
 0002:000193b8       ??_7?$basic_filebuf@DU?$char_traits@D@std@@@std@@6B@ 00000001402153b8     libcpmt:cout.obj
 0002:00019438       ??_7?$codecvt@DDU_Mbstatet@@@std@@6B@ 0000000140215438     libcpmt:cout.obj
 0002:00019488       ??_C@_0P@GHFPNOJB@bad?5allocation@ 0000000140215488     libcpmt:xthrow.obj
 0002:000194a0       ??_7logic_error@std@@6B@   00000001402154a0     libcpmt:xthrow.obj
 0002:000194b8       ??_7length_error@std@@6B@  00000001402154b8     libcpmt:xthrow.obj
 0002:000194d0       ??_7out_of_range@std@@6B@  00000001402154d0     libcpmt:xthrow.obj
 0002:00019c70       ??_C@_07IPNMCAN@success@   0000000140215c70     libcpmt:syserror.obj
 0002:00019c78       ??_C@_0BN@LKKBCCDB@address?5family?5not?5supported@ 0000000140215c78     libcpmt:syserror.obj
 0002:00019c98       ??_C@_0P@LDMLAFHI@address?5in?5use@ 0000000140215c98     libcpmt:syserror.obj
 0002:00019ca8       ??_C@_0BG@DHPCNBJB@address?5not?5available@ 0000000140215ca8     libcpmt:syserror.obj
 0002:00019cc0       ??_C@_0BC@DFIBIBIL@already?5connected@ 0000000140215cc0     libcpmt:syserror.obj
 0002:00019cd8       ??_C@_0BH@CAKOHOMI@argument?5list?5too?5long@ 0000000140215cd8     libcpmt:syserror.obj
 0002:00019cf0       ??_C@_0BH@CGIMPKIM@argument?5out?5of?5domain@ 0000000140215cf0     libcpmt:syserror.obj
 0002:00019d08       ??_C@_0M@KGHGGJGL@bad?5address@ 0000000140215d08     libcpmt:syserror.obj
 0002:00019d18       ??_C@_0BE@MPJPGCEO@bad?5file?5descriptor@ 0000000140215d18     libcpmt:syserror.obj
 0002:00019d30       ??_C@_0M@PMMIEFCP@bad?5message@ 0000000140215d30     libcpmt:syserror.obj
 0002:00019d40       ??_C@_0M@KPHOFDBE@broken?5pipe@ 0000000140215d40     libcpmt:syserror.obj
 0002:00019d50       ??_C@_0BD@MGNDDEGM@connection?5aborted@ 0000000140215d50     libcpmt:syserror.obj
 0002:00019d68       ??_C@_0BP@KAIHPOGN@connection?5already?5in?5progress@ 0000000140215d68     libcpmt:syserror.obj
 0002:00019d88       ??_C@_0BD@PJLIIJEL@connection?5refused@ 0000000140215d88     libcpmt:syserror.obj
 0002:00019da0       ??_C@_0BB@IECNJNOI@connection?5reset@ 0000000140215da0     libcpmt:syserror.obj
 0002:00019db8       ??_C@_0BC@PPHBOELF@cross?5device?5link@ 0000000140215db8     libcpmt:syserror.obj
 0002:00019dd0       ??_C@_0BN@KDMIFEIP@destination?5address?5required@ 0000000140215dd0     libcpmt:syserror.obj
 0002:00019df0       ??_C@_0BI@NGCEHDD@device?5or?5resource?5busy@ 0000000140215df0     libcpmt:syserror.obj
 0002:00019e08       ??_C@_0BE@JIDOCPHM@directory?5not?5empty@ 0000000140215e08     libcpmt:syserror.obj
 0002:00019e20       ??_C@_0BI@BNCLIGPB@executable?5format?5error@ 0000000140215e20     libcpmt:syserror.obj
 0002:00019e38       ??_C@_0M@MIDIAGJP@file?5exists@ 0000000140215e38     libcpmt:syserror.obj
 0002:00019e48       ??_C@_0P@DNAJLBJK@file?5too?5large@ 0000000140215e48     libcpmt:syserror.obj
 0002:00019e58       ??_C@_0BC@EJHOMAAK@filename?5too?5long@ 0000000140215e58     libcpmt:syserror.obj
 0002:00019e70       ??_C@_0BH@KEFGLDAF@function?5not?5supported@ 0000000140215e70     libcpmt:syserror.obj
 0002:00019e88       ??_C@_0BB@DHFDFGDM@host?5unreachable@ 0000000140215e88     libcpmt:syserror.obj
 0002:00019ea0       ??_C@_0BD@JPHBMONG@identifier?5removed@ 0000000140215ea0     libcpmt:syserror.obj
 0002:00019eb8       ??_C@_0BG@CDNPAGJK@illegal?5byte?5sequence@ 0000000140215eb8     libcpmt:syserror.obj
 0002:00019ed0       ??_C@_0CD@BNPLBMNA@inappropriate?5io?5control?5operat@ 0000000140215ed0     libcpmt:syserror.obj
 0002:00019ef8       ??_C@_0M@EGEKIIMP@interrupted@ 0000000140215ef8     libcpmt:syserror.obj
 0002:00019f08       ??_C@_0BB@FCMFBGOM@invalid?5argument@ 0000000140215f08     libcpmt:syserror.obj
 0002:00019f20       ??_C@_0N@OHAFKDEK@invalid?5seek@ 0000000140215f20     libcpmt:syserror.obj
 0002:00019f30       ??_C@_08GLNPIFBN@io?5error@ 0000000140215f30     libcpmt:syserror.obj
 0002:00019f40       ??_C@_0P@FLLDBIDK@is?5a?5directory@ 0000000140215f40     libcpmt:syserror.obj
 0002:00019f50       ??_C@_0N@IFLPBIOP@message?5size@ 0000000140215f50     libcpmt:syserror.obj
 0002:00019f60       ??_C@_0N@KIIEAAIO@network?5down@ 0000000140215f60     libcpmt:syserror.obj
 0002:00019f70       ??_C@_0O@FNPDBHEE@network?5reset@ 0000000140215f70     libcpmt:syserror.obj
 0002:00019f80       ??_C@_0BE@IFNCKGE@network?5unreachable@ 0000000140215f80     libcpmt:syserror.obj
 0002:00019f98       ??_C@_0BA@PFFCAOFK@no?5buffer?5space@ 0000000140215f98     libcpmt:syserror.obj
 0002:00019fa8       ??_C@_0BB@IEPBLJHK@no?5child?5process@ 0000000140215fa8     libcpmt:syserror.obj
 0002:00019fc0       ??_C@_07PLECNNKG@no?5link@ 0000000140215fc0     libcpmt:syserror.obj
 0002:00019fc8       ??_C@_0BC@NJECKMKE@no?5lock?5available@ 0000000140215fc8     libcpmt:syserror.obj
 0002:00019fe0       ??_C@_0BF@PBGGPKKE@no?5message?5available@ 0000000140215fe0     libcpmt:syserror.obj
 0002:00019ff8       ??_C@_0L@EDOLMPAK@no?5message@ 0000000140215ff8     libcpmt:syserror.obj
 0002:0001a008       ??_C@_0BD@EAMBFIDF@no?5protocol?5option@ 0000000140216008     libcpmt:syserror.obj
 0002:0001a020       ??_C@_0BD@IJDJKDEA@no?5space?5on?5device@ 0000000140216020     libcpmt:syserror.obj
 0002:0001a038       ??_C@_0BE@MKFDAFMP@no?5stream?5resources@ 0000000140216038     libcpmt:syserror.obj
 0002:0001a050       ??_C@_0BK@IMCPHCBI@no?5such?5device?5or?5address@ 0000000140216050     libcpmt:syserror.obj
 0002:0001a070       ??_C@_0P@FDINDDOK@no?5such?5device@ 0000000140216070     libcpmt:syserror.obj
 0002:0001a080       ??_C@_0BK@NDOCBPGE@no?5such?5file?5or?5directory@ 0000000140216080     libcpmt:syserror.obj
 0002:0001a0a0       ??_C@_0BA@ENLPPKBN@no?5such?5process@ 00000001402160a0     libcpmt:syserror.obj
 0002:0001a0b0       ??_C@_0BA@DOCPFFJG@not?5a?5directory@ 00000001402160b0     libcpmt:syserror.obj
 0002:0001a0c0       ??_C@_0N@POEIPGGF@not?5a?5socket@ 00000001402160c0     libcpmt:syserror.obj
 0002:0001a0d0       ??_C@_0N@LGAPMMPI@not?5a?5stream@ 00000001402160d0     libcpmt:syserror.obj
 0002:0001a0e0       ??_C@_0O@GLMIBBEG@not?5connected@ 00000001402160e0     libcpmt:syserror.obj
 0002:0001a0f0       ??_C@_0BC@ENOOLCNF@not?5enough?5memory@ 00000001402160f0     libcpmt:syserror.obj
 0002:0001a108       ??_C@_0O@NHEDABJP@not?5supported@ 0000000140216108     libcpmt:syserror.obj
 0002:0001a118       ??_C@_0BD@MOLBPMEA@operation?5canceled@ 0000000140216118     libcpmt:syserror.obj
 0002:0001a130       ??_C@_0BG@KDKHOPCO@operation?5in?5progress@ 0000000140216130     libcpmt:syserror.obj
 0002:0001a148       ??_C@_0BI@OHIEJAAB@operation?5not?5permitted@ 0000000140216148     libcpmt:syserror.obj
 0002:0001a160       ??_C@_0BI@LNEGIFLN@operation?5not?5supported@ 0000000140216160     libcpmt:syserror.obj
 0002:0001a178       ??_C@_0BG@OEMDKMEE@operation?5would?5block@ 0000000140216178     libcpmt:syserror.obj
 0002:0001a190       ??_C@_0L@BLPOFLNJ@owner?5dead@ 0000000140216190     libcpmt:syserror.obj
 0002:0001a1a0       ??_C@_0BC@CIJDGCDI@permission?5denied@ 00000001402161a0     libcpmt:syserror.obj
 0002:0001a1b8       ??_C@_0P@FNPOCJBE@protocol?5error@ 00000001402161b8     libcpmt:syserror.obj
 0002:0001a1c8       ??_C@_0BH@JPPPLHJB@protocol?5not?5supported@ 00000001402161c8     libcpmt:syserror.obj
 0002:0001a1e0       ??_C@_0BG@EICBIHDP@read?5only?5file?5system@ 00000001402161e0     libcpmt:syserror.obj
 0002:0001a1f8       ??_C@_0BO@BJBOMOEJ@resource?5deadlock?5would?5occur@ 00000001402161f8     libcpmt:syserror.obj
 0002:0001a218       ??_C@_0BP@LKNGHENJ@resource?5unavailable?5try?5again@ 0000000140216218     libcpmt:syserror.obj
 0002:0001a238       ??_C@_0BE@GOIPJJHG@result?5out?5of?5range@ 0000000140216238     libcpmt:syserror.obj
 0002:0001a250       ??_C@_0BG@MPLKFPAE@state?5not?5recoverable@ 0000000140216250     libcpmt:syserror.obj
 0002:0001a268       ??_C@_0P@DIIFGFCG@stream?5timeout@ 0000000140216268     libcpmt:syserror.obj
 0002:0001a278       ??_C@_0P@IPFDMIFL@text?5file?5busy@ 0000000140216278     libcpmt:syserror.obj
 0002:0001a288       ??_C@_09KJPPMAOI@timed?5out@ 0000000140216288     libcpmt:syserror.obj
 0002:0001a298       ??_C@_0BO@HACHBEKI@too?5many?5files?5open?5in?5system@ 0000000140216298     libcpmt:syserror.obj
 0002:0001a2b8       ??_C@_0BE@GHAFMPAH@too?5many?5files?5open@ 00000001402162b8     libcpmt:syserror.obj
 0002:0001a2d0       ??_C@_0P@HCOMKFCC@too?5many?5links@ 00000001402162d0     libcpmt:syserror.obj
 0002:0001a2e0       ??_C@_0BO@EFGOJEF@too?5many?5symbolic?5link?5levels@ 00000001402162e0     libcpmt:syserror.obj
 0002:0001a300       ??_C@_0BA@KGKGOOJA@value?5too?5large@ 0000000140216300     libcpmt:syserror.obj
 0002:0001a310       ??_C@_0BE@MIEJDDNH@wrong?5protocol?5type@ 0000000140216310     libcpmt:syserror.obj
 0002:0001a328       ??_C@_0O@BFJCFAAK@unknown?5error@ 0000000140216328     libcpmt:syserror.obj
 0002:0001a340       ??_7_Locimp@locale@std@@6B@ 0000000140216340     libcpmt:locale0.obj
 0002:0001a358       ?_BADOFF@std@@3_JB         0000000140216358     libcpmt:ios.obj
 0002:0001a508       ??_7type_info@@6B@         0000000140216508     MSVCRT:std_type_info_static.obj
 0002:0001a520       _load_config_used          0000000140216520     MSVCRT:loadcfg.obj
 0002:0001a660       ??_C@_0BJ@HFNMHALN@Out?5of?5memory?5?9?5aborting@ 0000000140216660     SDL2Main:SDL_windows_main.obj
 0002:0001a680       ??_C@_0M@HFFOIJBL@Fatal?5Error@ 0000000140216680     SDL2Main:SDL_windows_main.obj
 0002:0001a68c       _Asan_string_should_annotate 000000014021668c     libcpmt:asan_noop.obj
 0002:0001a68c       _Asan_string_should_annotate_default 000000014021668c     libcpmt:asan_noop.obj
 0002:0001a68d       _Asan_vector_should_annotate_default 000000014021668d     libcpmt:asan_noop.obj
 0002:0001a690       ??_C@_1JI@FBMFFIPA@?$AAD?$AA?3?$AA?2?$AAs?$AAo?$AAu?$AAr?$AAc?$AAe?$AAs?$AAd?$AAk?$AA?2?$AAM?$AAa@ 0000000140216690     cbitset.obj
 0002:0001a728       ??_C@_04HDOCAJNK@?$CFs?$CFs@ 0000000140216728     cbitset.obj
 0002:0001a730       ??_C@_1BK@MJPHNBOB@?$AA?$CG?$AAl?$AAh?$AAs?$AA?5?$AA?$CB?$AA?$DN?$AA?5?$AA?$CG?$AAr?$AAh?$AAs@ 0000000140216730     cbitset.obj
 0002:0001a750       ??_C@_1JG@CFINKNLD@?$AAD?$AA?3?$AA?2?$AAs?$AAo?$AAu?$AAr?$AAc?$AAe?$AAs?$AAd?$AAk?$AA?2?$AAM?$AAa@ 0000000140216750     cbitset.obj
 0002:0001a7e8       ??_C@_1CA@JPJGFIBD@?$AAp?$AAs?$AAr?$AAc?$AA?5?$AA?$CB?$AA?$DN?$AA?5?$AAn?$AAu?$AAl?$AAl?$AAp?$AAt?$AAr@ 00000001402167e8     cbitset.obj
 0002:0001a808       ??_C@_1CC@NJLGPCEP@?$AAp?$AAd?$AAe?$AAs?$AAt?$AA?5?$AA?$CB?$AA?$DN?$AA?5?$AAn?$AAu?$AAl?$AAl?$AAp?$AAt@ 0000000140216808     cbitset.obj
 0002:0001a830       ??_C@_1CC@DIBAPLEO@?$AAp?$AAs?$AAt?$AAr?$AA1?$AA?5?$AA?$CB?$AA?$DN?$AA?5?$AAn?$AAu?$AAl?$AAl?$AAp?$AAt@ 0000000140216830     cbitset.obj
 0002:0001a858       ??_C@_1CC@MKEHBGLG@?$AAp?$AAs?$AAt?$AAr?$AA2?$AA?5?$AA?$CB?$AA?$DN?$AA?5?$AAn?$AAu?$AAl?$AAl?$AAp?$AAt@ 0000000140216858     cbitset.obj
 0002:0001a880       ??_C@_1CA@NHGFKLLC@?$AAp?$AAs?$AAt?$AAr?$AA?5?$AA?$CB?$AA?$DN?$AA?5?$AAn?$AAu?$AAl?$AAl?$AAp?$AAt?$AAr@ 0000000140216880     cbitset.obj
 0002:0001a8a0       ??_C@_1CG@CMMINFPP@?$AAp?$AAs?$AAu?$AAb?$AAs?$AAt?$AAr?$AA?5?$AA?$CB?$AA?$DN?$AA?5?$AAn?$AAu?$AAl?$AAl@ 00000001402168a0     cbitset.obj
 0002:0001a8d0       ??_C@_1IK@IMJDGAPK@?$AAD?$AA?3?$AA?2?$AAs?$AAo?$AAu?$AAr?$AAc?$AAe?$AAs?$AAd?$AAk?$AA?2?$AAM?$AAa@ 00000001402168d0     cbuffer.obj
 0002:0001a960       ??_C@_1CM@ECLBOOCF@?$AAm?$AA_?$AAb?$AAu?$AAf?$AAf?$AAe?$AAr?$AAA?$AAl?$AAl?$AAo?$AAc?$AAS?$AAi@ 0000000140216960     cbuffer.obj
 0002:0001a990       ??_C@_1JG@MAABMBBN@?$AAD?$AA?3?$AA?2?$AAs?$AAo?$AAu?$AAr?$AAc?$AAe?$AAs?$AAd?$AAk?$AA?2?$AAM?$AAa@ 0000000140216990     cbuffer.obj
 0002:0001aa28       ??_C@_1CA@FLAFCDEE@?$AAn?$AA?5?$AA?$DM?$AA?5?$AAm?$AA_?$AAa?$AAr?$AAr?$AAa?$AAy?$AAS?$AAi?$AAz?$AAe@ 0000000140216a28     cbuffer.obj
 0002:0001aa50       ??_C@_1JG@NEMFGMAK@?$AAD?$AA?3?$AA?2?$AAs?$AAo?$AAu?$AAr?$AAc?$AAe?$AAs?$AAd?$AAk?$AA?2?$AAM?$AAa@ 0000000140216a50     common.obj
 0002:0001aae8       ??_C@_1M@DNEEJBBN@?$AAn?$AA?5?$AA?$DM?$AA?5?$AA3@ 0000000140216ae8     common.obj
 0002:0001aaf8       ??_C@_07DLHCIBDH@default@  0000000140216af8     common.obj
 0002:0001ab00       ??_C@_0M@EHAPGNAC@?$CFY?9?$CFm?9?$CFd?5?$CFX@ 0000000140216b00     common.obj
 0002:0001ab0c       ??_C@_01HCONENDN@?$HL@     0000000140216b0c     common.obj
 0002:0001ab10       ??_C@_01CELHOKLL@?$HN@     0000000140216b10     common.obj
 0002:0001ab18       ??_C@_09CNJINBGN@classname@ 0000000140216b18     common.obj
 0002:0001ab28       ??_C@_0L@BIFLFHPF@worldspawn@ 0000000140216b28     common.obj
 0002:0001ab34       ??_C@_03GANHLHHC@wad@      0000000140216b34     common.obj
 0002:0001ab38       ??_C@_01ICJEACDI@?$DL@     0000000140216b38     common.obj
 0002:0001ab40       ??_C@_1CG@IBCBLMCJ@?$AAs?$AAi?$AAz?$AAe?$AA?5?$AA?$DO?$AA?5?$AAm?$AA_?$AAa?$AAr?$AAr?$AAa?$AAy?$AAS@ 0000000140216b40     common.obj
 0002:0001ab7c       ?BASICDRAW_CACHE_SIZE@CBasicDraw@@2IB 0000000140216b7c     r_basicdraw.obj
 0002:0001ab80       ?DEFAULT_FOLDER@CSentencesFile@@2QBDB 0000000140216b80     sentencesfile.obj
 0002:0001ab88       ?DEFAULT_MATERIAL_TYPE@CStepSound@@2QBDB 0000000140216b88     stepsound.obj
 0002:0001ab90       ?CONCRETE_MATERIAL_TYPE@CStepSound@@2QBDB 0000000140216b90     stepsound.obj
 0002:0001aba0       ?DEFAULT_FOOTSTEP_TYPE@CStepSound@@2QBDB 0000000140216ba0     stepsound.obj
 0002:0001abb4       ?ANISOTROPY_OFF_VALUE@CTextureManager@@2IB 0000000140216bb4     texturemanager.obj
 0002:0001ae30       ?g_pEAXMultipliers@CSoundEngine@@0QBMB 0000000140216e30     cl_snd.obj
 0002:0001aeb8       ?SOUNDENGINE_CONFIG_GRP_NAME@CSoundEngine@@2QBDB 0000000140216eb8     cl_snd.obj
 0002:0001aed0       ?g_pEAXEffects@CSoundEngine@@0QBUEFXEAXREVERBPROPERTIES@@B 0000000140216ed0     cl_snd.obj
 0002:0001bb58       ?SOUNDENGINE_HRTF_SETTING_NAME@CSoundEngine@@2QBDB 0000000140217b58     cl_snd.obj
 0002:0001bb98       ?TEXTBOX_TEXTSCHEMA_NAME@CConsole@@2QBDB 0000000140217b98     console.obj
 0002:0001bba8       ?TOGGLECONSOLE_CMD_NAME@CConsole@@2QBDB 0000000140217ba8     console.obj
 0002:0001bc00       ?MSG_BUFFER_ALLOC_SIZE@CNetworking@@2IB 0000000140217c00     networking.obj
 0002:0001bc04       ?MSG_DATA_BUFFER_ALLOC_SIZE@CNetworking@@2IB 0000000140217c04     networking.obj
 0002:0001bc40       ?g_cubemapResolutions@CCubemapManager@@0PAY01IA 0000000140217c40     r_cubemaps.obj
 0002:0001bc90       ?DECAL_TEXTURE_PATH@CDecalManager@@2QBDB 0000000140217c90     r_decals.obj
 0002:0001be70       ?FLARE_HALO_DIST_SCALES@CLensFlareRenderer@@2QBMB 0000000140217e70     r_lensflare.obj
 0002:0001be90       ?FLARE_HALO_ALPHAS@CLensFlareRenderer@@2QBMB 0000000140217e90     r_lensflare.obj
 0002:0001beb0       ?SUNGLARE_TEXTURE_PATH@CLensFlareRenderer@@2QBDB 0000000140217eb0     r_lensflare.obj
 0002:0001bec8       ?FLARE_TEXTURE_PATH@CLensFlareRenderer@@2QBDB 0000000140217ec8     r_lensflare.obj
 0002:0001bee0       ?FLARE_HALO_SCALES@CLensFlareRenderer@@2QBMB 0000000140217ee0     r_lensflare.obj
 0002:0001bf00       ?FLARE_HALO_TEXTURES@CLensFlareRenderer@@2QBHB 0000000140217f00     r_lensflare.obj
 0002:0001bf40       ?SKY_TEXTURE_POSTFIXES@CSkyRenderer@@2PAPEBDA 0000000140217f40     r_sky.obj
 0002:0001bf70       ?SKYBOX_TEXTURE_DIR@CSkyRenderer@@2QBDB 0000000140217f70     r_sky.obj
 0002:0001bfd0       ?TEXTURE_MATERIAL_ASSOCIATION_FILE_PATH@CWADTextureResource@@0QBDB 0000000140217fd0     r_wadtextures.obj
 0002:0001c030       ?g_monitorResolutions@@3PAY01IA 0000000140218030     r_monitor.obj
 0002:0001c0c0       ?PARTICLE_RAMP3@CLegacyParticles@@2QBIB 00000001402180c0     r_legacyparticles.obj
 0002:0001c0e0       ?PARTICLE_RAMP2@CLegacyParticles@@2QBIB 00000001402180e0     r_legacyparticles.obj
 0002:0001c100       ?PARTICLE_RAMP1@CLegacyParticles@@2QBIB 0000000140218100     r_legacyparticles.obj
 0002:0001c120       ?PALETTE_FILEPATH@CLegacyParticles@@2QBDB 0000000140218120     r_legacyparticles.obj
 0002:0001c140       ?PARTICLE_TEXTURE_FILEPATH@CLegacyParticles@@2QBDB 0000000140218140     r_legacyparticles.obj
 0002:0001c220       ?EYEGLINT_TEXTURE_PATH@CVBMRenderer@@2QBDB 0000000140218220     r_vbm.obj
 0002:0001c250       ?WATER_SCRIPT_BASEPATH@CWaterShader@@2QBDB 0000000140218250     r_water.obj
 0002:0001c260       ?DEFAULT_WATER_SCRIPT_FILENAME@CWaterShader@@2QBDB 0000000140218260     r_water.obj
 0002:0001c3b0       ?SCHEMA_FOLDER_PATH@CTextSchemas@@2QBDB 00000001402183b0     textschemas.obj
 0002:0001c3d0       ?SAVE_DIR_PATH@CSaveRestore@@2QBDB 00000001402183d0     saverestore.obj
 0002:0001c40c       ?LIGHTMAP_WIDTH@CBSPRenderer@@2IB 000000014021840c     r_bsp.obj
 0002:0001c418       ?MENU_BUTTON_TEXT_SCHEMA@CMenu@@2QBDB 0000000140218418     r_menu.obj
 0002:0001c424       ?MENU_BASE_WIDTH@CMenu@@2HB 0000000140218424     r_menu.obj
 0002:0001c428       ?MENU_MUSIC_FILE_INGAME@CMenu@@2QBDB 0000000140218428     r_menu.obj
 0002:0001c448       ?MENU_HOVER_SOUND@CMenu@@2QBDB 0000000140218448     r_menu.obj
 0002:0001c460       ?MENU_MUSIC_FILE_STARTUP@CMenu@@2QBDB 0000000140218460     r_menu.obj
 0002:0001c478       ?MENU_CLICK_SOUND@CMenu@@2QBDB 0000000140218478     r_menu.obj
 0002:0001c508       ?USER_CONFIG_FILENAME@CConfig@@2QBDB 0000000140218508     config.obj
 0002:0001c520       ?SYSTEM_CONFIG_FILENAME@CConfig@@2QBDB 0000000140218520     config.obj
 0002:0001c530       ?USER_CONFIG_GRP_NAME@CConfig@@2QBDB 0000000140218530     config.obj
 0002:0001c540       ?KEYNAMES_FILE_PATH@CInput@@0QBDB 0000000140218540     input.obj
 0002:0001c63c       ?FONT_DIRECTORY@CText@@0QBDB 000000014021863c     r_text.obj
 0002:0001c680       ?DEFAULT_TEXT_SCHEMA@CUIManager@@2QBDB 0000000140218680     uimanager.obj
 0002:0001c6a8       ?MIN_SCREEN_HEIGHT@CWindow@@2IB 00000001402186a8     window.obj
 0002:0001c6d0       ?EXECUTE_BUTTON_OBJ_NAME@CUIConsoleWindow@@0QBDB 00000001402186d0     uiconsolewindow.obj
 0002:0001c6e0       ?INPUT_TAB_OBJ_NAME@CUIConsoleWindow@@0QBDB 00000001402186e0     uiconsolewindow.obj
 0002:0001c6f0       ?WINDOW_OBJ_NAME@CUIConsoleWindow@@0QBDB 00000001402186f0     uiconsolewindow.obj
 0002:0001c700       ?HISTORY_TAB_OBJ_NAME@CUIConsoleWindow@@0QBDB 0000000140218700     uiconsolewindow.obj
 0002:0001c710       ?WINDOW_DESC_FILE@CUIConsoleWindow@@0QBDB 0000000140218710     uiconsolewindow.obj
 0002:0001c730       ?CANCEL_BUTTON_OBJ_NAME@CUIDownloadWindow@@2QBDB 0000000140218730     uidownloadwindow.obj
 0002:0001c740       ?FILE_DOWNLOAD_PROGRESSBAR_OBJ_NAME@CUIDownloadWindow@@2QBDB 0000000140218740     uidownloadwindow.obj
 0002:0001c758       ?WINDOW_OBJ_NAME@CUIDownloadWindow@@2QBDB 0000000140218758     uidownloadwindow.obj
 0002:0001c768       ?TOTAL_PROGRESS_PROGRESSBAR_OBJ_NAME@CUIDownloadWindow@@2QBDB 0000000140218768     uidownloadwindow.obj
 0002:0001c780       ?TOTAL_PROGRESS_LABEL_OBJ_NAME@CUIDownloadWindow@@2QBDB 0000000140218780     uidownloadwindow.obj
 0002:0001c798       ?FILE_DOWNLOAD_LABEL_OBJ_NAME@CUIDownloadWindow@@2QBDB 0000000140218798     uidownloadwindow.obj
 0002:0001c7b0       ?WINDOW_DESC_FILE@CUIDownloadWindow@@2QBDB 00000001402187b0     uidownloadwindow.obj
 0002:0001c7d0       ?WINDOW_DESC_FILE@CUIExitWindow@@2QBDB 00000001402187d0     uiexitwindow.obj
 0002:0001c7e0       ?QUIT_TEXT_OBJ_NAME@CUIExitWindow@@2QBDB 00000001402187e0     uiexitwindow.obj
 0002:0001c7f0       ?CANCEL_BUTTON_OBJ_NAME@CUIExitWindow@@2QBDB 00000001402187f0     uiexitwindow.obj
 0002:0001c800       ?SAVE_AND_QUIT_BUTTON_OBJ_NAME@CUIExitWindow@@2QBDB 0000000140218800     uiexitwindow.obj
 0002:0001c818       ?INGAME_QUIT_TEXT_OBJ_NAME@CUIExitWindow@@2QBDB 0000000140218818     uiexitwindow.obj
 0002:0001c828       ?QUIT_BUTTON_OBJ_NAME@CUIExitWindow@@2QBDB 0000000140218828     uiexitwindow.obj
 0002:0001c838       ?WINDOW_OBJ_NAME@CUIExitWindow@@2QBDB 0000000140218838     uiexitwindow.obj
 0002:0001c850       ?WINDOW_OBJ_NAME@CUINewGameWindow@@2QBDB 0000000140218850     uinewgamewindow.obj
 0002:0001c860       ?NEW_GAME_NORMAL_BUTTON_OBJ_NAME@CUINewGameWindow@@2QBDB 0000000140218860     uinewgamewindow.obj
 0002:0001c878       ?NEW_GAME_EASY_BUTTON_OBJ_NAME@CUINewGameWindow@@2QBDB 0000000140218878     uinewgamewindow.obj
 0002:0001c890       ?WINDOW_DESC_FILE@CUINewGameWindow@@2QBDB 0000000140218890     uinewgamewindow.obj
 0002:0001c8a8       ?CANCEL_BUTTON_OBJ_NAME@CUINewGameWindow@@2QBDB 00000001402188a8     uinewgamewindow.obj
 0002:0001c8b8       ?NEW_GAME_HARD_BUTTON_OBJ_NAME@CUINewGameWindow@@2QBDB 00000001402188b8     uinewgamewindow.obj
 0002:0001c8d8       ?WINDOW_DESC_FILE@CUISaveLoadWindow@@2QBDB 00000001402188d8     uisaveloadwindow.obj
 0002:0001c8f0       ?WINDOW_OBJ_NAME@CUISaveLoadWindow@@2QBDB 00000001402188f0     uisaveloadwindow.obj
 0002:0001c900       ?SAVE_GAME_BUTTON_OBJ_NAME@CUISaveLoadWindow@@2QBDB 0000000140218900     uisaveloadwindow.obj
 0002:0001c910       ?LOAD_GAME_BUTTON_OBJ_NAME@CUISaveLoadWindow@@2QBDB 0000000140218910     uisaveloadwindow.obj
 0002:0001c920       ?SAVELIST_OBJ_NAME@CUISaveLoadWindow@@2QBDB 0000000140218920     uisaveloadwindow.obj
 0002:0001c930       ?DELETE_SAVE_BUTTON_OBJ_NAME@CUISaveLoadWindow@@2QBDB 0000000140218930     uisaveloadwindow.obj
 0002:0001c960       ?CANCEL_BUTTON_OBJ_NAME@CUISaveLoadWindow@@2QBDB 0000000140218960     uisaveloadwindow.obj
 0002:0001c980       ?WINDOW_OBJ_NAME@CUISettingsWindow@@2QBDB 0000000140218980     uisettingswindow.obj
 0002:0001c990       ?AUDIO_TAB_SUBTITLES_LABEL_OBJ_NAME@CUISettingsWindow@@2QBDB 0000000140218990     uisettingswindow.obj
 0002:0001c9a0       ?VIDEOTAB_DISPLAY_DEVICE_LABEL_OBJ_NAME@CUISettingsWindow@@2QBDB 00000001402189a0     uisettingswindow.obj
 0002:0001c9b8       ?MOUSE_TAB_FILTER_MOUSE_BOX_OBJ_NAME@CUISettingsWindow@@2QBDB 00000001402189b8     uisettingswindow.obj
 0002:0001c9d0       ?BINDS_FILE_PATH@CUISettingsWindow@@2QBDB 00000001402189d0     uisettingswindow.obj
 0002:0001c9e8       ?APPLY_BUTTON_OBJ_NAME@CUISettingsWindow@@2QBDB 00000001402189e8     uisettingswindow.obj
 0002:0001c9f8       ?AUDIO_TAB_OCCLUSION_TICKBOX_OBJ_NAME@CUISettingsWindow@@2QBDB 00000001402189f8     uisettingswindow.obj
 0002:0001ca20       ?AUDIO_TAB_GAME_VOLUME_SLIDER_OBJ_NAME@CUISettingsWindow@@2QBDB 0000000140218a20     uisettingswindow.obj
 0002:0001ca48       ?MOUSE_TAB_SENSITIVITY_TAB_OBJ_NAME@CUISettingsWindow@@2QBDB 0000000140218a48     uisettingswindow.obj
 0002:0001ca60       ?VIDEOTAB_RESOLUTION_LABEL_OBJ_NAME@CUISettingsWindow@@2QBDB 0000000140218a60     uisettingswindow.obj
 0002:0001ca78       ?AUDIO_TAB_HRTF_TICKBOX_OBJ_NAME@CUISettingsWindow@@2QBDB 0000000140218a78     uisettingswindow.obj
 0002:0001ca88       ?MOUSE_TAB_AUTOAIM_LABEL_OBJ_NAME@CUISettingsWindow@@2QBDB 0000000140218a88     uisettingswindow.obj
 0002:0001ca98       ?GAMEPLAY_TAB_VIEWROLL_LABEL_OBJ_NAME@CUISettingsWindow@@2QBDB 0000000140218a98     uisettingswindow.obj
 0002:0001caa8       ?GAMEPLAY_TAB_LIST_OBJ_NAME@CUISettingsWindow@@2QBDB 0000000140218aa8     uisettingswindow.obj
 0002:0001cab8       ?AUDIO_TAB_HRTF_LABEL_OBJ_NAME@CUISettingsWindow@@2QBDB 0000000140218ab8     uisettingswindow.obj
 0002:0001cad8       ?AUDIO_TAB_GAME_VOLUME_LABEL_OBJ_NAME@CUISettingsWindow@@2QBDB 0000000140218ad8     uisettingswindow.obj
 0002:0001cae8       ?CANCEL_BUTTON_OBJ_NAME@CUISettingsWindow@@2QBDB 0000000140218ae8     uisettingswindow.obj
 0002:0001caf8       ?SCROLLSURFACE_OPTION_LABEL_OBJ_NAME@CUISettingsWindow@@2QBDB 0000000140218af8     uisettingswindow.obj
 0002:0001cb18       ?VIDEOTAB_ANISOTROPY_LABEL_OBJ_NAME@CUISettingsWindow@@2QBDB 0000000140218b18     uisettingswindow.obj
 0002:0001cb28       ?MOUSE_TAB_FILTER_FRAMES_TEXT_OBJ_NAME@CUISettingsWindow@@2QBDB 0000000140218b28     uisettingswindow.obj
 0002:0001cb40       ?GAMEPLAY_DESC_FILE@CUISettingsWindow@@2QBDB 0000000140218b40     uisettingswindow.obj
 0002:0001cb50       ?VIDEOTAB_DISPLAY_RESOLUTION_LIST_OBJ_NAME@CUISettingsWindow@@2QBDB 0000000140218b50     uisettingswindow.obj
 0002:0001cb78       ?MOUSE_TAB_FILTER_FRAMES_TAB_OBJ_NAME@CUISettingsWindow@@2QBDB 0000000140218b78     uisettingswindow.obj
 0002:0001cb90       ?MOUSE_TAB_AUTOAIM_BOX_OBJ_NAME@CUISettingsWindow@@2QBDB 0000000140218b90     uisettingswindow.obj
 0002:0001cba0       ?GAMEPLAY_TAB_VIEWROLL_TAB_OBJ_NAME@CUISettingsWindow@@2QBDB 0000000140218ba0     uisettingswindow.obj
 0002:0001cbb0       ?GAMEPLAY_TAB_VIEWBOB_LABEL_OBJ_NAME@CUISettingsWindow@@2QBDB 0000000140218bb0     uisettingswindow.obj
 0002:0001cbc8       ?ADVANCED_DESC_FILE@CUISettingsWindow@@2QBDB 0000000140218bc8     uisettingswindow.obj
 0002:0001cbd8       ?BINDSTAB_RESTORE_DEFAULTS_BTN_OBJ_NAME@CUISettingsWindow@@2QBDB 0000000140218bd8     uisettingswindow.obj
 0002:0001cbf0       ?GAMEPLAY_TAB_VIEWBOB_TAB_OBJ_NAME@CUISettingsWindow@@2QBDB 0000000140218bf0     uisettingswindow.obj
 0002:0001cc00       ?AUDIO_TAB_SUBTITLES_TICKBOX_OBJ_NAME@CUISettingsWindow@@2QBDB 0000000140218c00     uisettingswindow.obj
 0002:0001cc18       ?MOUSE_TAB_SENSITIVITY_TEXT_OBJ_NAME@CUISettingsWindow@@2QBDB 0000000140218c18     uisettingswindow.obj
 0002:0001cc30       ?MOUSE_TAB_SENSITIVITY_LABEL_OBJ_NAME@CUISettingsWindow@@2QBDB 0000000140218c30     uisettingswindow.obj
 0002:0001cc48       ?VIDEOTAB_HIGH_DYNAMIC_RANGE_LABEL_OBJ_NAME@CUISettingsWindow@@2QBDB 0000000140218c48     uisettingswindow.obj
 0002:0001cc60       ?VIDEOTAB_ANTIALIAS_LIST_OBJ_NAME@CUISettingsWindow@@2QBDB 0000000140218c60     uisettingswindow.obj
 0002:0001cc70       ?MOUSE_TAB_FILTER_FRAMES_SLIDER_OBJ_NAME@CUISettingsWindow@@2QBDB 0000000140218c70     uisettingswindow.obj
 0002:0001cc88       ?GAMEPLAY_TAB_VIEWROLL_TEXT_OBJ_NAME@CUISettingsWindow@@2QBDB 0000000140218c88     uisettingswindow.obj
 0002:0001cc98       ?MOUSE_TAB_REVERSE_MOUSE_LABEL_OBJ_NAME@CUISettingsWindow@@2QBDB 0000000140218c98     uisettingswindow.obj
 0002:0001ccb0       ?BINDSTAB_CLEAR_BTN_OBJ_NAME@CUISettingsWindow@@2QBDB 0000000140218cb0     uisettingswindow.obj
 0002:0001ccc8       ?VIDEOTAB_DISPLAY_WINDOWMODE_LIST_OBJ_NAME@CUISettingsWindow@@2QBDB 0000000140218cc8     uisettingswindow.obj
 0002:0001ccd8       ?GAMEPLAY_TAB_VIEWROLL_SLIDER_OBJ_NAME@CUISettingsWindow@@2QBDB 0000000140218cd8     uisettingswindow.obj
 0002:0001cce8       ?AUDIO_TAB_MASTER_VOLUME_LABEL_OBJ_NAME@CUISettingsWindow@@2QBDB 0000000140218ce8     uisettingswindow.obj
 0002:0001cd00       ?BINDSTAB_LIST_OBJ_NAME@CUISettingsWindow@@2QBDB 0000000140218d00     uisettingswindow.obj
 0002:0001cd20       ?VIDEOTAB_HIGH_DYNAMIC_RANGE_LIST_OBJ_NAME@CUISettingsWindow@@2QBDB 0000000140218d20     uisettingswindow.obj
 0002:0001cd38       ?GAMEPLAY_TAB_VIEWBOB_TEXT_OBJ_NAME@CUISettingsWindow@@2QBDB 0000000140218d38     uisettingswindow.obj
 0002:0001cd48       ?VIDEOTAB_VERTICAL_SYNC_LABEL_OBJ_NAME@CUISettingsWindow@@2QBDB 0000000140218d48     uisettingswindow.obj
 0002:0001cd80       ?MOUSE_TAB_REVERSE_MOUSE_BOX_OBJ_NAME@CUISettingsWindow@@2QBDB 0000000140218d80     uisettingswindow.obj
 0002:0001cd98       ?BINDSTAB_BIND_BTN_OBJ_NAME@CUISettingsWindow@@2QBDB 0000000140218d98     uisettingswindow.obj
 0002:0001cda8       ?AUDIO_TAB_OCCLUSION_LABEL_OBJ_NAME@CUISettingsWindow@@2QBDB 0000000140218da8     uisettingswindow.obj
 0002:0001cdc0       ?AUDIO_TAB_MUSIC_VOLUME_SLIDER_OBJ_NAME@CUISettingsWindow@@2QBDB 0000000140218dc0     uisettingswindow.obj
 0002:0001cdd8       ?VIDEOTAB_DISPLAY_DEVICE_LIST_OBJ_NAME@CUISettingsWindow@@2QBDB 0000000140218dd8     uisettingswindow.obj
 0002:0001cdf0       ?SCROLLSURFACE_OPTION_LIST_OBJ_NAME@CUISettingsWindow@@2QBDB 0000000140218df0     uisettingswindow.obj
 0002:0001ce08       ?WINDOW_DESC_FILE@CUISettingsWindow@@2QBDB 0000000140218e08     uisettingswindow.obj
 0002:0001ce20       ?VIDEOTAB_ANTIALIAS_LABEL_OBJ_NAME@CUISettingsWindow@@2QBDB 0000000140218e20     uisettingswindow.obj
 0002:0001ce30       ?AUDIO_TAB_MASTER_VOLUME_SLIDER_OBJ_NAME@CUISettingsWindow@@2QBDB 0000000140218e30     uisettingswindow.obj
 0002:0001ce58       ?SETTINGS_TAB_OBJ_NAME@CUISettingsWindow@@2QBDB 0000000140218e58     uisettingswindow.obj
 0002:0001ce68       ?VIDEOTAB_WINDOW_MODE_LABEL_OBJ_NAME@CUISettingsWindow@@2QBDB 0000000140218e68     uisettingswindow.obj
 0002:0001ce78       ?VIDEOTAB_FRAMEBUFFER_OBJECTS_LABEL_OBJ_NAME@CUISettingsWindow@@2QBDB 0000000140218e78     uisettingswindow.obj
 0002:0001ce90       ?VIDEOTAB_FRAMEBUFFER_OBJECTS_LIST_OBJ_NAME@CUISettingsWindow@@2QBDB 0000000140218e90     uisettingswindow.obj
 0002:0001cea8       ?SCROLLSURFACE_OPTION_TAB_OBJ_NAME@CUISettingsWindow@@2QBDB 0000000140218ea8     uisettingswindow.obj
 0002:0001ced0       ?VIDEOTAB_GAMMA_SLIDER_OBJ_NAME@CUISettingsWindow@@2QBDB 0000000140218ed0     uisettingswindow.obj
 0002:0001cee0       ?VIDEOTAB_VERTICAL_SYNC_LIST_OBJ_NAME@CUISettingsWindow@@2QBDB 0000000140218ee0     uisettingswindow.obj
 0002:0001cef8       ?GAMEPLAY_TAB_VIEWBOB_SLIDER_OBJ_NAME@CUISettingsWindow@@2QBDB 0000000140218ef8     uisettingswindow.obj
 0002:0001cf08       ?MOUSE_TAB_FILTER_MOUSE_LABEL_OBJ_NAME@CUISettingsWindow@@2QBDB 0000000140218f08     uisettingswindow.obj
 0002:0001cf28       ?VIDEOTAB_GAMMA_LABEL_OBJ_NAME@CUISettingsWindow@@2QBDB 0000000140218f28     uisettingswindow.obj
 0002:0001cf48       ?AUDIO_TAB_MUSIC_VOLUME_LABEL_OBJ_NAME@CUISettingsWindow@@2QBDB 0000000140218f48     uisettingswindow.obj
 0002:0001cf60       ?MOUSE_TAB_SENSITIVITY_SLIDER_OBJ_NAME@CUISettingsWindow@@2QBDB 0000000140218f60     uisettingswindow.obj
 0002:0001cf78       ?VIDEOTAB_ANISOTROPY_LIST_OBJ_NAME@CUISettingsWindow@@2QBDB 0000000140218f78     uisettingswindow.obj
 0002:0001cf88       ?ADVANCED_TAB_LIST_OBJ_NAME@CUISettingsWindow@@2QBDB 0000000140218f88     uisettingswindow.obj
 0002:0001cf98       ?MOUSE_TAB_FILTER_FRAMES_LABEL_OBJ_NAME@CUISettingsWindow@@2QBDB 0000000140218f98     uisettingswindow.obj
 0002:0001cfb0       ?DEFAULT_BINDS_FILENAME@CUISettingsWindow@@2QBDB 0000000140218fb0     uisettingswindow.obj
 0002:0001cfd0       _residue_P                 0000000140218fd0     libvorbis_static:registry.obj
 0002:0001cff0       _floor_P                   0000000140218ff0     libvorbis_static:registry.obj
 0002:0001d000       _mapping_P                 0000000140219000     libvorbis_static:registry.obj
 0002:0002af40       floor0_exportbundle        0000000140226f40     libvorbis_static:floor0.obj
 0002:0002af78       mapping0_exportbundle      0000000140226f78     libvorbis_static:mapping0.obj
 0002:0002afa0       residue2_exportbundle      0000000140226fa0     libvorbis_static:res0.obj
 0002:0002afe0       residue0_exportbundle      0000000140226fe0     libvorbis_static:res0.obj
 0002:0002b020       residue1_exportbundle      0000000140227020     libvorbis_static:res0.obj
 0002:0002b060       floor1_exportbundle        0000000140227060     libvorbis_static:floor1.obj
 0002:0002b924       ?PRINT_BOX_BAR_COLOR@CConsole@@2Ucolor32_t@@B 0000000140227924     console.obj
 0002:0002b934       ?PRINT_BOX_BACKGROUND_COLOR@CConsole@@2Ucolor32_t@@B 0000000140227934     console.obj
 0002:00031008       ??_C@_0CD@IPGNCIH@?$CFs?5is?5not?5a?5power?5of?5two?5textur@ 000000014022d008     dds.obj
 0002:00031030       ??_C@_0BN@EBDPJCPC@Incorrect?5DDS?5format?5on?5?$CFs?4?6@ 000000014022d030     dds.obj
 0002:00031050       ??_C@_0EL@KHPAFCGO@Incorrect?5compression?5on?3?5?$CFs?4?5O@ 000000014022d050     dds.obj
 0002:000310a0       ??_C@_1BK@OHDNMJCB@?$AA?$CG?$AAs?$AAt?$AAr?$AA?5?$AA?$CB?$AA?$DN?$AA?5?$AAt?$AAh?$AAi?$AAs@ 000000014022d0a0     logfile.obj
 0002:000310c0       ??_C@_1DA@NDJHEFMP@?$AAb?$AAe?$AAg?$AAi?$AAn?$AA?5?$AA?$DM?$AA?$DN?$AA?5?$AAm?$AA_?$AAs?$AAt?$AAr?$AAi@ 000000014022d0c0     logfile.obj
 0002:000310f0       ??_C@_0CK@LHJPBJIF@Failed?5to?5delete?5previous?5log?5f@ 000000014022d0f0     logfile.obj
 0002:00031120       ??_C@_0CB@IILNMOL@Deleted?5previous?5log?5file?5?8?$CFs?8?4@ 000000014022d120     logfile.obj
 0002:00031148       ??_C@_0O@KIAHLLOA@Log?5started?3?5@ 000000014022d148     logfile.obj
 0002:00031158       ??_C@_01JLIPDDHJ@?3@       000000014022d158     logfile.obj
 0002:00031160       ??_C@_0L@ICGNOKCJ@Log?5file?3?5@ 000000014022d160     logfile.obj
 0002:00031170       ??_C@_0CB@OBFFIPGM@Failed?5to?5write?5to?5log?5file?5?$CFs?4@ 000000014022d170     logfile.obj
 0002:00031194       ??_C@_03NLJIHOMM@?5?9?5@   000000014022d194     logfile.obj
 0002:000311a0       ??_C@_1II@FLDCNIF@?$AAD?$AA?3?$AA?2?$AAs?$AAo?$AAu?$AAr?$AAc?$AAe?$AAs?$AAd?$AAk?$AA?2?$AAM?$AAa@ 000000014022d1a0     matrix.obj
 0002:00031228       ??_C@_1DG@DMFCIEBK@?$AAm?$AA_?$AAp?$AAM?$AAa?$AAt?$AAr?$AAi?$AAx?$AAH?$AAe?$AAa?$AAd?$AAe?$AAr@ 000000014022d228     matrix.obj
 0002:00031268       ??_7CMatrix@@6B@           000000014022d268     matrix.obj
 0002:00031270       ??_C@_00CNPNBAHC@@         000000014022d270     md5.obj
 0002:00031274       ??_C@_04NOJCDH@?$CF02x@    000000014022d274     md5.obj
 0002:00031280       ??_C@_1IO@MOFAIIIH@?$AAD?$AA?3?$AA?2?$AAs?$AAo?$AAu?$AAr?$AAc?$AAe?$AAs?$AAd?$AAk?$AA?2?$AAM?$AAa@ 000000014022d280     r_common.obj
 0002:00031310       ??_C@_1CA@EBJGOAOJ@?$AAt?$AAy?$AAp?$AAe?$AA?5?$AA?$DN?$AA?$DN?$AA?5?$AAM?$AAO?$AAD?$AA_?$AAV?$AAB?$AAM@ 000000014022d310     r_common.obj
 0002:00031330       ??_C@_0BN@EKFBEPOH@R_CheckShaderVertexAttribute@ 000000014022d330     r_common.obj
 0002:00031350       ??_C@_0CH@KINHKMMB@?6Error?5initializing?5vertex?5attr@ 000000014022d350     r_common.obj
 0002:00031378       ??_C@_0P@ONKHIBPA@?8?5for?5shader?5?8@ 000000014022d378     r_common.obj
 0002:00031388       ??_C@_01GEODFPGF@?8@       000000014022d388     r_common.obj
 0002:00031390       ??_C@_0BK@CCOGAIAJ@R_CheckShaderDeterminator@ 000000014022d390     r_common.obj
 0002:000313b0       ??_C@_0CD@OPCDOPAC@?6Error?5initializing?5determinato@ 000000014022d3b0     r_common.obj
 0002:000313d8       ??_C@_0BF@PHAJCMBK@R_CheckShaderUniform@ 000000014022d3d8     r_common.obj
 0002:000313f0       ??_C@_0BO@LFNCHGOE@?6Error?5initializing?5uniform?5?8@ 000000014022d3f0     r_common.obj
 0002:00031410       ??_C@_0FO@BNDMNLCF@?$CFs?5is?5using?5a?5non?9supported?5for@ 000000014022d410     tga.obj
 0002:00031470       ??_C@_0CG@DBPOOODP@TGA?5?$CFs?5uses?5an?5unsupported?5data@ 000000014022d470     tga.obj
 0002:00031498       ??_C@_09LJBGOIFP@TGA_Write@ 000000014022d498     tga.obj
 0002:000314a8       ??_C@_0BK@CGILIEDJ@?$CFs?5?9?5Failed?5to?5write?5?$CFs?4?6@ 000000014022d4a8     tga.obj
 0002:000314d0       ??_C@_1JG@NDJAJJCN@?$AAD?$AA?3?$AA?2?$AAs?$AAo?$AAu?$AAr?$AAc?$AAe?$AAs?$AAd?$AAk?$AA?2?$AAM?$AAa@ 000000014022d4d0     r_basicdraw.obj
 0002:00031570       ??_C@_1FK@LNOBCDBP@?$AAi?$AAn?$AAd?$AAe?$AAx?$AA?5?$AA?$DO?$AA?$DN?$AA?5?$AA0?$AA?5?$AA?$CG?$AA?$CG?$AA?5?$AAi@ 000000014022d570     r_basicdraw.obj
 0002:000315d0       ??_C@_1DI@EIHJCMOM@?$AAp?$AAu?$AAn?$AAi?$AAf?$AAo?$AAr?$AAm?$AA?9?$AA?$DO?$AAe?$AAl?$AAe?$AAm?$AAe@ 000000014022d5d0     r_basicdraw.obj
 0002:00031608       ??_C@_1CM@EMCOGDBP@?$AAp?$AAu?$AAn?$AAi?$AAf?$AAo?$AAr?$AAm?$AA?9?$AA?$DO?$AAs?$AAt?$AAr?$AAi?$AAd@ 000000014022d608     r_basicdraw.obj
 0002:00031638       ??_C@_1CM@FOJLMMPB@?$AAp?$AAu?$AAn?$AAi?$AAf?$AAo?$AAr?$AAm?$AA?9?$AA?$DO?$AAs?$AAt?$AAr?$AAi?$AAd@ 000000014022d638     r_basicdraw.obj
 0002:00031668       ??_C@_1CM@OGCHKLJE@?$AAp?$AAu?$AAn?$AAi?$AAf?$AAo?$AAr?$AAm?$AA?9?$AA?$DO?$AAs?$AAt?$AAr?$AAi?$AAd@ 000000014022d668     r_basicdraw.obj
 0002:00031698       ??_C@_0O@LLGIOEBB@basicdraw?4bss@ 000000014022d698     r_basicdraw.obj
 0002:000316a8       ??_C@_0BD@JHHOPFKH@CBasicDraw?3?3InitGL@ 000000014022d6a8     r_basicdraw.obj
 0002:000316c0       ??_C@_0CD@KGIMFFBE@?$CFs?5?9?5Could?5not?5compile?5shader?3?5@ 000000014022d6c0     r_basicdraw.obj
 0002:000316e8       ??_C@_09FHHBBPAC@modelview@ 000000014022d6e8     r_basicdraw.obj
 0002:000316f8       ??_C@_0L@PPHAJBEH@projection@ 000000014022d6f8     r_basicdraw.obj
 0002:00031708       ??_C@_08CNIDOFM@texture0@  000000014022d708     r_basicdraw.obj
 0002:00031718       ??_C@_0L@JMILLNLL@rectangle0@ 000000014022d718     r_basicdraw.obj
 0002:00031728       ??_C@_0L@NBOAACKH@multiplier@ 000000014022d728     r_basicdraw.obj
 0002:00031738       ??_C@_08MLCFJBLJ@fogcolor@ 000000014022d738     r_basicdraw.obj
 0002:00031748       ??_C@_09PCCNFJDC@fogparams@ 000000014022d748     r_basicdraw.obj
 0002:00031758       ??_C@_0M@ICPGNOKG@in_position@ 000000014022d758     r_basicdraw.obj
 0002:00031768       ??_C@_0M@DBAMMFBI@in_texcoord@ 000000014022d768     r_basicdraw.obj
 0002:00031778       ??_C@_08EDLKLFMD@in_color@ 000000014022d778     r_basicdraw.obj
 0002:00031788       ??_C@_08OAGMDKAF@position@ 000000014022d788     r_basicdraw.obj
 0002:00031798       ??_C@_08FDJGCBLL@texcoord@ 000000014022d798     r_basicdraw.obj
 0002:000317a4       ??_C@_05PEENBMOG@color@    000000014022d7a4     r_basicdraw.obj
 0002:000317b0       ??_C@_07JDHEGGGP@texture@  000000014022d7b0     r_basicdraw.obj
 0002:000317b8       ??_C@_09KEGCCCGI@rectangle@ 000000014022d7b8     r_basicdraw.obj
 0002:000317c4       ??_C@_03KJMBPJEB@fog@      000000014022d7c4     r_basicdraw.obj
 0002:000317c8       ??_C@_04DJCABLIL@?$CFs?$CFc@ 000000014022d7c8     sentencesfile.obj
 0002:000317d0       ??_C@_02HAOIJKIC@?$CFc@    000000014022d7d0     sentencesfile.obj
 0002:000317d4       ??_C@_02DPKJAMEF@?$CFd@    000000014022d7d4     sentencesfile.obj
 0002:000317d8       ??_C@_02DKCKIIND@?$CFs@    000000014022d7d8     sentencesfile.obj
 0002:000317dc       ??_C@_02CBLDBPFN@?1?1@     000000014022d7dc     sentencesfile.obj
 0002:000317e0       ??_C@_0BF@LBMAACDL@CSentencesFile?3?3Init@ 000000014022d7e0     sentencesfile.obj
 0002:000317f8       ??_C@_0BL@KLOKFGFE@?5?9?5Unexpected?5end?5of?5line?5@ 000000014022d7f8     sentencesfile.obj
 0002:00031814       ??_C@_01DCLJPIOD@?$CB@     000000014022d814     sentencesfile.obj
 0002:00031818       ??_C@_02HHAEMJFE@?2?1@     000000014022d818     sentencesfile.obj
 0002:0003181c       ??_C@_01ODHLEDKK@?$CI@     000000014022d81c     sentencesfile.obj
 0002:00031820       ??_C@_0BC@BHPDLAHJ@?5?9?5Error?5on?5line?5@ 000000014022d820     sentencesfile.obj
 0002:00031838       ??_C@_0BH@ELJMBOOP@?0?5unexpected?5?8?$CJ?8?5token@ 000000014022d838     sentencesfile.obj
 0002:00031850       ??_C@_0CG@LFBJNLND@CSentencesFile?3?3Init?5?9?5Error?5on@ 000000014022d850     sentencesfile.obj
 0002:00031878       ??_C@_0BH@NMNCFAKG@?5while?5parsing?5options@ 000000014022d878     sentencesfile.obj
 0002:00031890       ??_C@_0BC@EGGLKKLG@?5?9?5Token?5on?5line?5@ 000000014022d890     sentencesfile.obj
 0002:000318a8       ??_C@_09NKIMOLPO@?5too?5long@ 000000014022d8a8     sentencesfile.obj
 0002:000318b8       ??_C@_0CB@LKDAAJEP@CSentencesFile?3?3ParseOptionToke@ 000000014022d8b8     sentencesfile.obj
 0002:000318e0       ??_C@_0CP@KNNLHFCL@?5?9?5Error?5in?5option?5declaration?0@ 000000014022d8e0     sentencesfile.obj
 0002:00031910       ??_C@_0BI@NIOHPODA@?5?9?5Unrecognized?5option?5@ 000000014022d910     sentencesfile.obj
 0002:00031928       ??_C@_0BM@HKOAEIG@?5?9?5Couldn?8t?5find?5sentence?5?8@ 000000014022d928     sentencesfile.obj
 0002:00031944       ??_C@_04IBLEHOMF@?4wav@    000000014022d944     sentencesfile.obj
 0002:00031950       ??_C@_0CG@CNJEDCFN@CSentencesFile?3?3GetSentenceDefi@ 000000014022d950     sentencesfile.obj
 0002:00031978       ??_C@_04GPMDFGEJ@type@     000000014022d978     stepsound.obj
 0002:00031980       ??_C@_02NJPGOMH@?$CFf@     000000014022d980     texturemanager.obj
 0002:00031988       ??_C@_1DA@IPGEJOKE@?$AAo?$AAf?$AAf?$AAs?$AAe?$AAt?$AA?5?$AA?$DM?$AA?5?$AAm?$AA_?$AAs?$AAt?$AAr?$AAi@ 000000014022d988     texturemanager.obj
 0002:000319c0       ??_C@_1HM@EOKGFDGO@?$AAb?$AAe?$AAg?$AAi?$AAn?$AA?5?$AA?$DM?$AA?5?$AAm?$AA_?$AAs?$AAt?$AAr?$AAi?$AAn@ 000000014022d9c0     texturemanager.obj
 0002:00031a40       ??_C@_0CC@INDAGEHJ@CTextureManager?3?3DeleteAllocati@ 000000014022da40     texturemanager.obj
 0002:00031a68       ??_C@_0DE@DKFKMJKC@?$CFs?5?9?5Allocation?5is?5tied?5to?5a?5te@ 000000014022da68     texturemanager.obj
 0002:00031a9c       ??_C@_05JLNEMJLN@dummy@    000000014022da9c     texturemanager.obj
 0002:00031aa4       ??_C@_03LJIJAGL@tga@       000000014022daa4     texturemanager.obj
 0002:00031aa8       ??_C@_03CBDDAJHO@dds@      000000014022daa8     texturemanager.obj
 0002:00031aac       ??_C@_03CAKEDOOO@bmp@      000000014022daac     texturemanager.obj
 0002:00031ab0       ??_C@_07KFBPAAO@diffuse@   000000014022dab0     texturemanager.obj
 0002:00031ab8       ??_C@_09GEJJOHHL@normalmap@ 000000014022dab8     texturemanager.obj
 0002:00031ac4       ??_C@_06IKLLLDHL@normal@   000000014022dac4     texturemanager.obj
 0002:00031acc       ??_C@_06EENFNEPD@detail@   000000014022dacc     texturemanager.obj
 0002:00031ad8       ??_C@_08DPLIAGAA@specular@ 000000014022dad8     texturemanager.obj
 0002:00031ae8       ??_C@_09CHBEBDMN@luminance@ 000000014022dae8     texturemanager.obj
 0002:00031af4       ??_C@_02KLMOPAJC@ao@       000000014022daf4     texturemanager.obj
 0002:00031af8       ??_C@_06LNLHEAAG@height@   000000014022daf8     texturemanager.obj
 0002:00031b00       ??_C@_0CG@GCEKKDAN@Failed?5to?5load?5material?5script?5@ 000000014022db00     texturemanager.obj
 0002:00031b28       ??_C@_0BJ@ELBEHFOJ@Unexpected?5EOF?5in?5?8?$CFs?8?4?6@ 000000014022db28     texturemanager.obj
 0002:00031b44       ??_C@_06MNCCEIBG@$alias@   000000014022db44     texturemanager.obj
 0002:00031b50       ??_C@_08MPECHOAH@$texture@ 000000014022db50     texturemanager.obj
 0002:00031b60       ??_C@_0DO@MKNKICCI@Expected?5$texture?5or?5$alias?5tok@ 000000014022db60     texturemanager.obj
 0002:00031ba0       ??_C@_0FH@EIKMAOCA@Could?5not?5load?5?8?$CFs?8?0?5because?5it@ 000000014022dba0     texturemanager.obj
 0002:00031bf8       ??_C@_0CN@LFMJKEMJ@Expected?5?$HL?5token?0?5got?5?8?$CFs?8?5inst@ 000000014022dbf8     texturemanager.obj
 0002:00031c28       ??_C@_0DB@FIHLJHKM@Unexpected?5EOF?5in?5?8?$CFs?8?0?5missing@ 000000014022dc28     texturemanager.obj
 0002:00031c60       ??_C@_0M@KGDMAKGL@$scriptfile@ 000000014022dc60     texturemanager.obj
 0002:00031c70       ??_C@_0DH@MINMBDMC@Expected?5$scriptfile?5token?0?5got@ 000000014022dc70     texturemanager.obj
 0002:00031ca8       ??_C@_0DJ@IEMGHFNG@Parameter?5specification?5for?5?8?$CFs@ 000000014022dca8     texturemanager.obj
 0002:00031ce8       ??_C@_09CNFGLEGM@$cubemaps@ 000000014022dce8     texturemanager.obj
 0002:00031cf8       ??_C@_0M@GPIIABBO@$fullbright@ 000000014022dcf8     texturemanager.obj
 0002:00031d08       ??_C@_08BFANNOFL@$nodecal@ 000000014022dd08     texturemanager.obj
 0002:00031d18       ??_C@_0L@OMKAMLJA@$alphatest@ 000000014022dd18     texturemanager.obj
 0002:00031d28       ??_C@_0L@CPABIJC@$nomipmaps@ 000000014022dd28     texturemanager.obj
 0002:00031d34       ??_C@_06GHGJGLFF@$clamp@   000000014022dd34     texturemanager.obj
 0002:00031d40       ??_C@_09CAKBFOMO@$eyeglint@ 000000014022dd40     texturemanager.obj
 0002:00031d50       ??_C@_07BMKAEBO@$chrome@   000000014022dd50     texturemanager.obj
 0002:00031d58       ??_C@_09BHPCEMGH@$additive@ 000000014022dd58     texturemanager.obj
 0002:00031d68       ??_C@_0M@ENCODADO@$alphablend@ 000000014022dd68     texturemanager.obj
 0002:00031d74       ??_C@_06CFHLFPBL@$scope@   000000014022dd74     texturemanager.obj
 0002:00031d80       ??_C@_0M@LIMOMLKP@$noimpactfx@ 000000014022dd80     texturemanager.obj
 0002:00031d90       ??_C@_0N@MMLMBAJE@$nostepsound@ 000000014022dd90     texturemanager.obj
 0002:00031da0       ??_C@_0M@GGPKOAJC@$nofacecull@ 000000014022dda0     texturemanager.obj
 0002:00031db0       ??_C@_0P@PKIPIPKE@$nopenetration@ 000000014022ddb0     texturemanager.obj
 0002:00031dc0       ??_C@_0N@KCKJEBJG@$bulletproof@ 000000014022ddc0     texturemanager.obj
 0002:00031dd0       ??_C@_0L@HEMADOMO@$dt_scalex@ 000000014022ddd0     texturemanager.obj
 0002:00031de0       ??_C@_0L@GNNLAPIP@$dt_scaley@ 000000014022dde0     texturemanager.obj
 0002:00031df0       ??_C@_0L@COHEKIMM@$int_width@ 000000014022ddf0     texturemanager.obj
 0002:00031e00       ??_C@_0M@IFMHFGFN@$int_height@ 000000014022de00     texturemanager.obj
 0002:00031e0c       ??_C@_06JHBGBLFP@$alpha@   000000014022de0c     texturemanager.obj
 0002:00031e18       ??_C@_0L@LHBKLBBK@$phong_exp@ 000000014022de18     texturemanager.obj
 0002:00031e28       ??_C@_0P@LDGBBCCA@$cubemapnormal@ 000000014022de28     texturemanager.obj
 0002:00031e38       ??_C@_0P@HBAHKGPN@$parallaxscale@ 000000014022de38     texturemanager.obj
 0002:00031e48       ??_C@_0BA@CPMAMICC@$parallaxlayers@ 000000014022de48     texturemanager.obj
 0002:00031e58       ??_C@_05HIBBCFA@$spec@     000000014022de58     texturemanager.obj
 0002:00031e60       ??_C@_0M@LNPAKBAD@$scopescale@ 000000014022de60     texturemanager.obj
 0002:00031e70       ??_C@_0BB@FNLNNNEO@$cubemapstrength@ 000000014022de70     texturemanager.obj
 0002:00031e88       ??_C@_0L@BJBHFOLN@$container@ 000000014022de88     texturemanager.obj
 0002:00031e98       ??_C@_08GBJHEDOP@$scrollu@ 000000014022de98     texturemanager.obj
 0002:00031ea8       ??_C@_08EKLKBACM@$scrollv@ 000000014022dea8     texturemanager.obj
 0002:00031eb8       ??_C@_0CM@HLCHKNN@Invalid?5value?5?8?$CFs?8?5for?5field?5?8?$CF@ 000000014022deb8     texturemanager.obj
 0002:00031ee8       ??_C@_0CJ@CCLIOKMD@$texture?5command?5is?5incomplete?5@ 000000014022dee8     texturemanager.obj
 0002:00031f18       ??_C@_0CJ@FPCCBHFE@Unknown?5$texture?5typename?5?8?$CFs?8?5@ 000000014022df18     texturemanager.obj
 0002:00031f48       ??_C@_09OONBBGLO@$material@ 000000014022df48     texturemanager.obj
 0002:00031f58       ??_C@_0CK@DCNEENIC@$material?5command?5is?5incomplete@ 000000014022df58     texturemanager.obj
 0002:00031f88       ??_C@_0BB@NAFPDBGM@$fullbrightcolor@ 000000014022df88     texturemanager.obj
 0002:00031fa0       ??_C@_0BN@CKJJAMFB@Unknown?5field?5?8?$CFs?8?5in?5?8?$CFs?8?4?6@ 000000014022dfa0     texturemanager.obj
 0002:00031fc0       ??_C@_1JI@OJPADBPP@?$AAD?$AA?3?$AA?2?$AAs?$AAo?$AAu?$AAr?$AAc?$AAe?$AAs?$AAd?$AAk?$AA?2?$AAM?$AAa@ 000000014022dfc0     texturemanager.obj
 0002:00032058       ??_C@_1CK@MLAMOHGO@?$AAp?$AAm?$AAa?$AAt?$AAe?$AAr?$AAi?$AAa?$AAl?$AA?5?$AA?$CB?$AA?$DN?$AA?5?$AAn?$AAu@ 000000014022e058     texturemanager.obj
 0002:00032088       ??_C@_0CE@MCLPGEMO@CTextureManager?3?3LoadMaterialSc@ 000000014022e088     texturemanager.obj
 0002:000320b0       ??_C@_0EE@KLNJDPJG@?$CFs?5?9?5Invalid?5y?5detail?5texture?5s@ 000000014022e0b0     texturemanager.obj
 0002:00032100       ??_C@_0EE@IJNKIMIG@?$CFs?5?9?5Invalid?5x?5detail?5texture?5s@ 000000014022e100     texturemanager.obj
 0002:00032148       ??_C@_0CK@PHDCNCBE@Invalid?5resource?5level?5for?5text@ 000000014022e148     texturemanager.obj
 0002:00032180       ??_C@_0FM@BEGKKJIF@Could?5not?5load?5?$CFs?5?9?5Rectangle?5t@ 000000014022e180     texturemanager.obj
 0002:000321dc       ??_C@_04LIKELABK@?4dds@    000000014022e1dc     texturemanager.obj
 0002:000321e4       ??_C@_04LFFPHNGG@?4DDS@    000000014022e1e4     texturemanager.obj
 0002:000321ec       ??_C@_04LJDDIHIK@?4bmp@    000000014022e1ec     texturemanager.obj
 0002:000321f4       ??_C@_04LEMIEKPG@?4BMP@    000000014022e1f4     texturemanager.obj
 0002:00032200       ??_C@_0BO@MMAFOAFM@Failed?5to?5load?5texture?5?8?$CFs?8?4?6@ 000000014022e200     texturemanager.obj
 0002:00032220       ??_C@_0CN@JLKOBMOF@Unknown?5or?5unsupported?5file?5for@ 000000014022e220     texturemanager.obj
 0002:00032250       ??_C@_0CF@HFHBEFDC@Failed?5to?5load?5TGA?5image?5file?5?8@ 000000014022e250     texturemanager.obj
 0002:00032278       ??_C@_0CF@INJAFADJ@Failed?5to?5load?5DDS?5image?5file?5?8@ 000000014022e278     texturemanager.obj
 0002:000322a0       ??_C@_0CF@OKOAMNJL@Failed?5to?5load?5BMP?5image?5file?5?8@ 000000014022e2a0     texturemanager.obj
 0002:000322c8       ??_C@_0CG@PIAGFGOB@Unsupported?5file?5format?5?$CFd?5for?5@ 000000014022e2c8     texturemanager.obj
 0002:000322f0       ??_C@_0CM@GKFDBABE@Invalid?5texture?5properties?5give@ 000000014022e2f0     texturemanager.obj
 0002:00032320       ??_C@_1GA@HPHPOPJD@?$AAs?$AAe?$AAt?$AAt?$AAi?$AAn?$AAg?$AAI?$AAn?$AAd?$AAe?$AAx?$AA?5?$AA?$DM?$AA?5@ 000000014022e320     texturemanager.obj
 0002:00032380       ??_C@_0L@NOBGFDHD@?7$cubemaps@ 000000014022e380     texturemanager.obj
 0002:00032390       ??_C@_0N@JMLMILBL@?7$fullbright@ 000000014022e390     texturemanager.obj
 0002:000323a0       ??_C@_09OMJLIJEJ@?7$nodecal@ 000000014022e3a0     texturemanager.obj
 0002:000323b0       ??_C@_0M@GBFLIGIC@?7$alphatest@ 000000014022e3b0     texturemanager.obj
 0002:000323c0       ??_C@_0M@IPALFFIA@?7$nomipmaps@ 000000014022e3c0     texturemanager.obj
 0002:000323d0       ??_C@_07IAGIHAGJ@?7$clamp@ 000000014022e3d0     texturemanager.obj
 0002:000323d8       ??_C@_0L@NDOBLJNB@?7$eyeglint@ 000000014022e3d8     texturemanager.obj
 0002:000323e8       ??_C@_08COECHJIC@?7$chrome@ 000000014022e3e8     texturemanager.obj
 0002:000323f8       ??_C@_0L@OELCKLHI@?7$additive@ 000000014022e3f8     texturemanager.obj
 0002:00032408       ??_C@_0N@LOBKLKDL@?7$alphablend@ 000000014022e408     texturemanager.obj
 0002:00032418       ??_C@_07MCHKEECH@?7$scope@ 000000014022e418     texturemanager.obj
 0002:00032420       ??_C@_0N@ELPKEBKK@?7$noimpactfx@ 000000014022e420     texturemanager.obj
 0002:00032430       ??_C@_0O@LMCFNAJB@?7$nostepsound@ 000000014022e430     texturemanager.obj
 0002:00032440       ??_C@_0N@JFMOGKJH@?7$nofacecull@ 000000014022e440     texturemanager.obj
 0002:00032450       ??_C@_0N@BKBIIBCO@?7$dt_scalex?5@ 000000014022e450     texturemanager.obj
 0002:00032460       ??_C@_0N@BLNKOLBJ@?7$dt_scaley?5@ 000000014022e460     texturemanager.obj
 0002:00032470       ??_C@_0N@PEEMFEJE@?7$int_width?5@ 000000014022e470     texturemanager.obj
 0002:00032480       ??_C@_0O@PAECAOLI@?7$int_height?5@ 000000014022e480     texturemanager.obj
 0002:00032490       ??_C@_08EBEPADEA@?7$alpha?5@ 000000014022e490     texturemanager.obj
 0002:000324a0       ??_C@_0N@JLGFENGM@?7$phong_exp?5@ 000000014022e4a0     texturemanager.obj
 0002:000324b0       ??_C@_07BJOJOPHI@?7$spec?5@ 000000014022e4b0     texturemanager.obj
 0002:000324b8       ??_C@_0O@HMKJEFLM@?7$scopescale?5@ 000000014022e4b8     texturemanager.obj
 0002:000324c8       ??_C@_0BB@OKLLFLEN@?7$cubemapnormal?5@ 000000014022e4c8     texturemanager.obj
 0002:000324e0       ??_C@_0BD@GHONGOBH@?7$cubemapstrength?5@ 000000014022e4e0     texturemanager.obj
 0002:000324f8       ??_C@_0BB@BCBLJDJA@?7$parallaxscale?5@ 000000014022e4f8     texturemanager.obj
 0002:00032510       ??_C@_0BC@BGDMIDJD@?7$parallaxlayers?5@ 000000014022e510     texturemanager.obj
 0002:00032528       ??_C@_0N@NDHJHGMI@?7$container?5@ 000000014022e528     texturemanager.obj
 0002:00032538       ??_C@_0M@DEEICGCN@?7$material?5@ 000000014022e538     texturemanager.obj
 0002:00032548       ??_C@_0BD@KJFMANHB@?7$texture?5diffuse?5@ 000000014022e548     texturemanager.obj
 0002:00032560       ??_C@_0BF@LINOIKEG@?7$texture?5normalmap?5@ 000000014022e560     texturemanager.obj
 0002:00032578       ??_C@_0BC@GAOIKAPK@?7$texture?5detail?5@ 000000014022e578     texturemanager.obj
 0002:00032590       ??_C@_0BE@KJGDBCCA@?7$texture?5specular?5@ 000000014022e590     texturemanager.obj
 0002:000325a8       ??_C@_0BF@JKJPBBAL@?7$texture?5luminance?5@ 000000014022e5a8     texturemanager.obj
 0002:000325c0       ??_C@_0O@OOOBFIJN@?7$texture?5ao?5@ 000000014022e5c0     texturemanager.obj
 0002:000325d0       ??_C@_0BC@KNMGMEPN@?7$texture?5height?5@ 000000014022e5d0     texturemanager.obj
 0002:000325e8       ??_C@_09CBPMOBF@textures?1@ 000000014022e5e8     texturemanager.obj
 0002:000325f8       ??_C@_1CE@HHABPFPG@?$AAt?$AAy?$AAp?$AAe?$AA?5?$AA?$DN?$AA?$DN?$AA?5?$AAM?$AAO?$AAD?$AA_?$AAB?$AAR?$AAU@ 000000014022e5f8     ald.obj
 0002:00032620       ??_C@_08FFHDJNFG@ALD_Load@ 000000014022e620     ald.obj
 0002:00032630       ??_C@_0CA@HNLGLANF@?$CFs?5?9?5Couldn?8t?5get?5world?5model?4?6@ 000000014022e630     ald.obj
 0002:00032650       ??_C@_04KPILAJPA@?4bsp@    000000014022e650     ald.obj
 0002:00032658       ??_C@_04IEOKJFAG@?4ald@    000000014022e658     ald.obj
 0002:00032660       ??_C@_0DF@JMFJCPDK@?$CFs?5?9?5ALD?5file?5?8?$CFs?8?5is?5older?5tha@ 000000014022e660     ald.obj
 0002:00032698       ??_C@_0BN@EGMIIMH@?$CFs?5?9?5Invalid?5ALD?5file?5?8?$CFs?8?4?6@ 000000014022e698     ald.obj
 0002:000326c0       ??_C@_0EL@IKFNLAKF@?$CFs?5?9?5ALD?5lump?5of?5type?5?$CFd?5incons@ 000000014022e6c0     ald.obj
 0002:00032710       ??_C@_0BE@NMAJIBHN@ALD_ExportLightmaps@ 000000014022e710     ald.obj
 0002:00032728       ??_C@_0BM@PDPOOJDC@?$CFs?5?9?5Failed?5to?5write?5?8?$CFs?8?4?6@ 000000014022e728     ald.obj
 0002:00032748       ??_C@_0BP@CJIPNAHG@?$CFs?5Magic?5Header?5check?5failed?4?6@ 000000014022e748     bmp.obj
 0002:00032768       ??_C@_0CD@DADMFDMC@?$CFs?5unsupported?5bits?5per?5pixel?3?5@ 000000014022e768     bmp.obj
 0002:00032790       ??_C@_0BG@JEKOAFMA@VIS?5buffer?5overflow?4?6@ 000000014022e790     brushmodel.obj
 0002:000327a8       ??_C@_1CK@INIHLNL@?$AAm?$AA_?$AAp?$AAS?$AAt?$AAr?$AAi?$AAn?$AAg?$AA?5?$AA?$CB?$AA?$DN?$AA?5?$AAn?$AAu@ 000000014022e7a8     bspv30.obj
 0002:000327d8       ??_C@_1CO@MLNJMAEM@?$AAn?$AA?5?$AA?$DM?$AA?5?$AAq?$AAs?$AAt?$AAr?$AAl?$AAe?$AAn?$AA?$CI?$AAm?$AA_?$AAp@ 000000014022e7d8     bspv30.obj
 0002:00032808       ??_C@_0BE@BNBCNGKM@BSPV30_LoadVertexes@ 000000014022e808     bspv30.obj
 0002:00032820       ??_C@_0CG@MJHFKJOA@?$CFs?5?9?5Inconsistent?5lump?5size?5in?5@ 000000014022e820     bspv30.obj
 0002:00032848       ??_C@_0BB@PBELLKGH@BSPV30_LoadEdges@ 000000014022e848     bspv30.obj
 0002:00032860       ??_C@_0BF@HGHFLODI@BSPV30_LoadSurfedges@ 000000014022e860     bspv30.obj
 0002:00032878       ??_C@_0BE@JIMJNGIC@BSPV30_LoadTextures@ 000000014022e878     bspv30.obj
 0002:00032890       ??_C@_0CD@COLIMGEM@?$CFs?5?9?5No?5textures?5present?5in?5?8?$CFs@ 000000014022e890     bspv30.obj
 0002:000328b8       ??_C@_0BN@GDDBPHJN@Bad?5animating?5texture?5?8?$CFs?8?4?6@ 000000014022e8b8     bspv30.obj
 0002:000328d8       ??_C@_0CK@GADJKEPB@Missing?5frame?5?$CFd?5animating?5text@ 000000014022e8d8     bspv30.obj
 0002:00032908       ??_C@_0BE@KFHPMMPJ@BSPV30_LoadLighting@ 000000014022e908     bspv30.obj
 0002:00032920       ??_C@_0BC@EOGKAJBD@BSPV30_LoadPlanes@ 000000014022e920     bspv30.obj
 0002:00032938       ??_C@_0BD@CMFCHOEP@BSPV30_LoadTexinfo@ 000000014022e938     bspv30.obj
 0002:00032950       ??_C@_0CF@BHMKNHOM@Invalid?5texture?5index?5?8?$CFd?8?5in?5?8@ 000000014022e950     bspv30.obj
 0002:00032978       ??_C@_0BB@DAFNNAOO@BSPV30_LoadFaces@ 000000014022e978     bspv30.obj
 0002:0003298c       ??_C@_03BNEOMJOP@sky@      000000014022e98c     bspv30.obj
 0002:00032990       ??_C@_0BI@GBFEDBPK@BSPV30_LoadMarksurfaces@ 000000014022e990     bspv30.obj
 0002:000329a8       ??_C@_0CH@GKMADLEA@BSPV30_LoadFaces?5?9?5Bad?5surface?5@ 000000014022e9a8     bspv30.obj
 0002:000329d0       ??_C@_0BB@MMAJCDJK@BSPV30_LoadLeafs@ 000000014022e9d0     bspv30.obj
 0002:000329e8       ??_C@_0BB@POOJNEFL@BSPV30_LoadNodes@ 000000014022e9e8     bspv30.obj
 0002:00032a00       ??_C@_0BF@HLMFCBEP@BSPV30_LoadClipnodes@ 000000014022ea00     bspv30.obj
 0002:00032a18       ??_C@_0BF@MIKALIL@BSPV30_LoadSubmodels@ 000000014022ea18     bspv30.obj
 0002:00032a30       ??_C@_0BK@DIKGMKLH@BSPV30_CalcSurfaceExtents@ 000000014022ea30     bspv30.obj
 0002:00032a50       ??_C@_0BK@LOBDECLL@?$CFs?3?5Bad?5surface?5extents?4?6@ 000000014022ea50     bspv30.obj
 0002:00032a70       ??_C@_0CE@ELIDOGMA@Connect?5to?5a?5server?5at?5an?5addre@ 000000014022ea70     cl_cmd.obj
 0002:00032a98       ??_C@_07KAIBNCHO@connect@  000000014022ea98     cl_cmd.obj
 0002:00032aa0       ??_C@_0CE@MDAGEPNA@Disconnect?5from?5the?5active?5serv@ 000000014022eaa0     cl_cmd.obj
 0002:00032ac8       ??_C@_0L@KKPFIJOL@disconnect@ 000000014022eac8     cl_cmd.obj
 0002:00032ad8       ??_C@_0CC@BCFHMNDL@Download?5a?5file?5from?5the?5server@ 000000014022ead8     cl_cmd.obj
 0002:00032b00       ??_C@_08HNIAHLMM@download@ 000000014022eb00     cl_cmd.obj
 0002:00032b10       ??_C@_0BP@PLNJHFFA@Check?5server?5response?5status?4?6@ 000000014022eb10     cl_cmd.obj
 0002:00032b30       ??_C@_09NCPIAHOP@heartbeat@ 000000014022eb30     cl_cmd.obj
 0002:00032b40       ??_C@_0BP@NMBHPFHO@Connection?5attempt?5cancelled?4?6@ 000000014022eb40     cl_cmd.obj
 0002:00032b60       ??_C@_0BF@NOINFGFP@connect?3?5?$DMhost?5ip?$DO?4?6@ 000000014022eb60     cl_cmd.obj
 0002:00032b78       ??_C@_0BB@IHCIEHKB@No?5active?5game?4?6@ 000000014022eb78     cl_cmd.obj
 0002:00032b90       ??_C@_0BH@PPHFJGBF@download?3?5?$DMfilename?$DO?4?6@ 000000014022eb90     cl_cmd.obj
 0002:00032ba8       ??_C@_0BO@JIEEFCNB@download?3?5no?5file?5specified?4?6@ 000000014022eba8     cl_cmd.obj
 0002:00032bc8       ??_C@_0BB@ELDNKJIM@Cmd_DownloadFile@ 000000014022ebc8     cl_cmd.obj
 0002:00032be0       ??_C@_0CA@HPMCJKGH@?$CFs?5?9?5Failed?5to?5download?5files?4?6@ 000000014022ebe0     cl_cmd.obj
 0002:00032c00       ??_C@_0BE@DMOHDPOL@CL_AllocEntityLight@ 000000014022ec00     cl_efx.obj
 0002:00032c18       ??_C@_0CD@JOGLMBAE@?$CFs?5?9?5Attachment?5index?5is?5invali@ 000000014022ec18     cl_efx.obj
 0002:00032c40       ??_C@_0BG@IAOLKFBL@Failed?5to?5load?5?8?$CFs?8?4?6@ 000000014022ec40     cl_main.obj
 0002:00032c58       ??_C@_0P@JAGFHGLJ@ClientDLL_Init@ 000000014022ec58     cl_main.obj
 0002:00032c68       ??_C@_0DA@CIEANBH@Failed?5to?5hook?5?8ClientDLL_Init?8@ 000000014022ec68     cl_main.obj
 0002:00032c98       ??_C@_0BM@LNMGANMP@Failed?5to?5init?5client?5dll?4?6@ 000000014022ec98     cl_main.obj
 0002:00032cb8       ??_C@_0BN@POELNMEB@Default?5field?5of?5view?5value?4@ 000000014022ecb8     cl_main.obj
 0002:00032cd8       ??_C@_0BP@GJOOKNNE@Reference?5field?5of?5view?5value?4@ 000000014022ecd8     cl_main.obj
 0002:00032cf8       ??_C@_0P@KICNIOCE@Player?8s?5name?4@ 000000014022ecf8     cl_main.obj
 0002:00032d08       ??_C@_0O@FHCNLPF@Chris?5Cornell@ 000000014022ed08     cl_main.obj
 0002:00032d18       ??_C@_04MEMAJGDJ@name@     000000014022ed18     cl_main.obj
 0002:00032d20       ??_C@_0BL@IGELHIBJ@Toggles?5player?5prediction?4@ 000000014022ed20     cl_main.obj
 0002:00032d3c       ??_C@_01HIHLOKLC@1@        000000014022ed3c     cl_main.obj
 0002:00032d40       ??_C@_0L@JPLOLKIH@cl_predict@ 000000014022ed40     cl_main.obj
 0002:00032d50       ??_C@_0N@GKADFOBH@Game?5reset?4?6@ 000000014022ed50     cl_main.obj
 0002:00032d60       ??_C@_0BI@POKNABFE@Worldmodel?5not?5loaded?4?6@ 000000014022ed60     cl_main.obj
 0002:00032d78       ??_C@_0M@FPJLJIOH@CL_InitGame@ 000000014022ed78     cl_main.obj
 0002:00032d88       ??_C@_0CH@DBNAKNAN@?$CFs?5?9?5Failed?5to?5get?5WAD?5list?5for@ 000000014022ed88     cl_main.obj
 0002:00032db0       ??_C@_0BF@KEAGBNIB@Loading?5WAD?5files?4?4?4@ 000000014022edb0     cl_main.obj
 0002:00032dc8       ??_C@_0CK@EFHKBCDL@?$CFs?5?9?5Failed?5to?5initialize?5WAD?5r@ 000000014022edc8     cl_main.obj
 0002:00032df8       ??_C@_0BF@BGJCHGJD@Game?5initialized?5on?5@ 000000014022edf8     cl_main.obj
 0002:00032e10       ??_C@_02MIICKFIN@?4?6@     000000014022ee10     cl_main.obj
 0002:00032e18       ??_C@_0BE@GPIPKOE@No?5host?5specified?4?6@ 000000014022ee18     cl_main.obj
 0002:00032e30       ??_C@_0BG@EFIOGAJ@Retrying?5connection?4?6@ 000000014022ee30     cl_main.obj
 0002:00032e48       ??_C@_0BE@OJKLJNKK@Failed?5to?5connect?4?6@ 000000014022ee48     cl_main.obj
 0002:00032e60       ??_C@_09IPAEKDAI@localhost@ 000000014022ee60     cl_main.obj
 0002:00032e70       ??_C@_0BD@OGBLFPCO@Connecting?5to?5?$CFs?4?6@ 000000014022ee70     cl_main.obj
 0002:00032e88       ??_C@_0BA@BDJAFLKE@Not?5connected?4?6@ 000000014022ee88     cl_main.obj
 0002:00032e98       ??_C@_0CA@JEMNKPOA@Disconnected?5from?5server?5?9?5?$CFs?4?6@ 000000014022ee98     cl_main.obj
 0002:00032eb8       ??_C@_0BL@BCGMMPDP@Disconnected?5from?5server?4?6@ 000000014022eeb8     cl_main.obj
 0002:00032ed8       ??_C@_0P@BFDNJMKP@Disconnected?4?6@ 000000014022eed8     cl_main.obj
 0002:00032ee8       ??_C@_0CB@DNHIJKGO@Failure?5at?5game?5initialization?4@ 000000014022eee8     cl_main.obj
 0002:00032f10       ??_C@_0BG@POEDFPLM@CL_PrecacheFlexScript@ 000000014022ef10     cl_main.obj
 0002:00032f28       ??_C@_0CF@GCJBNHDD@?$CFs?5?9?5Flex?5manager?5not?5initializ@ 000000014022ef28     cl_main.obj
 0002:00032f50       ??_C@_0CB@PHAMMEHA@?$CFs?5?9?5Failed?5to?5load?5script?3?5?$CFs?4@ 000000014022ef50     cl_main.obj
 0002:00032f78       ??_C@_0BB@NONPCHOJ@CL_SetFlexScript@ 000000014022ef78     cl_main.obj
 0002:00032f90       ??_C@_0CM@KNKFAKDD@?$CFs?5?9?5Could?5not?5get?5entity?5for?5s@ 000000014022ef90     cl_main.obj
 0002:00032fc0       ??_C@_0DG@FNIMIFKE@?$CFs?5?9?5Could?5not?5get?5entity?5extra@ 000000014022efc0     cl_main.obj
 0002:00032ff8       ??_C@_0BB@PLGPMHEM@CL_ClientCommand@ 000000014022eff8     cl_main.obj
 0002:00033010       ??_C@_0BG@CADOJEMJ@?$CFs?5?9?5No?5active?5game?4?6@ 000000014022f010     cl_main.obj
 0002:00033028       ??_C@_0BB@NLCMJIIN@CL_ServerCommand@ 000000014022f028     cl_main.obj
 0002:0003303c       ??_C@_04PEFJGNPP@cmd?5@    000000014022f03c     cl_main.obj
 0002:00033048       ??_C@_0BL@MGPCFJOI@CL_LinkMapTextureMaterials@ 000000014022f048     cl_main.obj
 0002:00033068       ??_C@_0DL@NIBPNBCB@?$CFs?5?9?5Failed?5to?5find?5material?5fi@ 000000014022f068     cl_main.obj
 0002:000330a8       ??_C@_0L@CFOCDAO@Short?5read@ 000000014022f0a8     cl_msg.obj
 0002:000330b8       ??_C@_0BO@HFDEAHOH@Read?5out?5of?5bounds?5on?5message@ 000000014022f0b8     cl_msg.obj
 0002:000330e0       ??_C@_1JG@LPGFBGDG@?$AAD?$AA?3?$AA?2?$AAs?$AAo?$AAu?$AAr?$AAc?$AAe?$AAs?$AAd?$AAk?$AA?2?$AAM?$AAa@ 000000014022f0e0     cl_msg.obj
 0002:00033178       ??_C@_1CO@POBEKLP@?$AAp?$AAn?$AAe?$AAt?$AAw?$AAo?$AAr?$AAk?$AAi?$AAn?$AAg?$AA?5?$AA?$CB?$AA?$DN?$AA?5@ 000000014022f178     cl_msg.obj
 0002:000331a8       ??_C@_0BA@NFFPGCGP@CL_ReadMessages@ 000000014022f1a8     cl_msg.obj
 0002:000331b8       ??_C@_0CB@HLEDEMKI@?$CFs?5?9?5Error?5reading?5message?3?5?$CFs?4@ 000000014022f1b8     cl_msg.obj
 0002:000331e0       ??_C@_0P@DODEFNPN@?$CFs?5?9?5svc_bad?4?6@ 000000014022f1e0     cl_msg.obj
 0002:000331f0       ??_C@_0BC@DBKHKJCF@CL_ParseHeartBeat@ 000000014022f1f0     cl_msg.obj
 0002:00033208       ??_C@_0BN@OHJFFEEK@Sever?5response?5time?3?5?$CFd?5ms?4?6@ 000000014022f208     cl_msg.obj
 0002:00033228       ??_C@_0BF@COJPHCMO@CL_ParseAddAVelocity@ 000000014022f228     cl_msg.obj
 0002:00033240       ??_C@_0BG@DCADEKNC@CL_ParseViewSetAngles@ 000000014022f240     cl_msg.obj
 0002:00033258       ??_C@_0BG@DPAJAFPB@CL_ParseClientCommand@ 000000014022f258     cl_msg.obj
 0002:00033270       ??_C@_0BD@LDKDACNN@CL_ParseServerInfo@ 000000014022f270     cl_msg.obj
 0002:00033288       ??_C@_0BF@COBNBKJJ@CL_ParseLightEnvInfo@ 000000014022f288     cl_msg.obj
 0002:000332a0       ??_C@_0BA@OMCLDODJ@CL_ReadMoveVars@ 000000014022f2a0     cl_msg.obj
 0002:000332b0       ??_C@_0BC@DGCFFBNK@CL_ReadClientData@ 000000014022f2b0     cl_msg.obj
 0002:000332c8       ??_C@_0P@EFPJIDKC@Rejected?3?5?$CFs?4?6@ 000000014022f2c8     cl_msg.obj
 0002:000332d8       ??_C@_0BG@ICOODPKD@Dropped?5from?5server?4?6@ 000000014022f2d8     cl_msg.obj
 0002:000332f0       ??_C@_0BB@BPPFHNLM@CL_DisconnectMsg@ 000000014022f2f0     cl_msg.obj
 0002:00033308       ??_C@_0BG@DDAOLGOP@CL_ReadPacketEntities@ 000000014022f308     cl_msg.obj
 0002:00033320       ??_C@_0CC@LPBOFDJD@CL_ReadPacketEntities?5?9?5svc_bad@ 000000014022f320     cl_msg.obj
 0002:00033348       ??_C@_0BG@LFKBMFJE@CL_FileConsistencyMsg@ 000000014022f348     cl_msg.obj
 0002:00033360       ??_C@_0BL@DDOPNNAJ@?$CFs?5?9?5Could?5not?5load?5?8?$CFs?8?4?6@ 000000014022f360     cl_msg.obj
 0002:00033380       ??_C@_0BD@KEEJOMHJ@CL_ReadUserMessage@ 000000014022f380     cl_msg.obj
 0002:00033398       ??_C@_0CJ@LDBMILPH@?$CFs?5?9?5Message?5with?5bogus?5id?5?$CFd?5r@ 000000014022f398     cl_msg.obj
 0002:000333c8       ??_C@_0DB@CHHHOFFF@?$CFs?5?9?5Message?5?8?$CFs?8?5function?5not?5@ 000000014022f3c8     cl_msg.obj
 0002:00033400       ??_C@_0DC@EPCHNAIB@?$CFs?5?9?5Client?5returned?5error?5on?5m@ 000000014022f400     cl_msg.obj
 0002:00033438       ??_C@_0BP@GLHIFMOJ@CL_ReadParticlePrecacheMessage@ 000000014022f438     cl_msg.obj
 0002:00033458       ??_C@_0BM@KMGBPMP@CL_ReadDecalPrecacheMessage@ 000000014022f458     cl_msg.obj
 0002:00033478       ??_C@_0BH@HAANOIJF@CL_RegisterUserMessage@ 000000014022f478     cl_msg.obj
 0002:00033490       ??_C@_0EM@GIKAMNOD@?$CFs?5?9?5Mismatch?5with?5user?5message@ 000000014022f490     cl_msg.obj
 0002:000334e0       ??_C@_08BOJNNJAF@MsgFunc_@ 000000014022f4e0     cl_msg.obj
 0002:000334f0       ??_C@_0CJ@HDPCPBDJ@?$CFs?5?9?5Function?5?8?$CFs?8?5not?5found?5on@ 000000014022f4f0     cl_msg.obj
 0002:00033520       ??_C@_0BK@HBCEKIOP@CL_ReadSoundEngineMessage@ 000000014022f520     cl_msg.obj
 0002:00033540       ??_C@_0EA@KJJEGIME@?$CFs?5?9?5Invalid?5volume?5?$CFf?5for?5ambi@ 000000014022f540     cl_msg.obj
 0002:00033580       ??_C@_0DP@LAJFOFCJ@?$CFs?5?9?5Invalid?5volume?5?$CFf?5for?5soun@ 000000014022f580     cl_msg.obj
 0002:000335c0       ??_C@_0BP@CFLBFJEJ@?$CFs?5?9?5Unknown?5message?5type?5?$CFd?4?6@ 000000014022f5c0     cl_msg.obj
 0002:000335e0       ??_C@_0BI@NDPLDIAD@CL_ClientUserMessageEnd@ 000000014022f5e0     cl_msg.obj
 0002:000335f8       ??_C@_0CE@FGICLHKO@?$CFs?5?9?5Invalid?5message?5send?5attem@ 000000014022f5f8     cl_msg.obj
 0002:00033620       ??_C@_0EI@JBLGALNB@?$CFs?5?9?5User?5message?5?8?$CFs?8?5mismatch@ 000000014022f620     cl_msg.obj
 0002:00033668       ??_C@_0CO@IPMIBCAJ@?$CFs?5?9?5Bogus?5message?5size?5?$CFd?5for?5@ 000000014022f668     cl_msg.obj
 0002:00033698       ??_C@_0BO@IFBNCFDP@CL_ClientRegisterUserMessages@ 000000014022f698     cl_msg.obj
 0002:000336b8       ??_C@_0CL@CPHFMJCD@?$CFs?5?9?5Client?5is?5not?5connected?5to@ 000000014022f6b8     cl_msg.obj
 0002:000336e8       ??_C@_0P@JEPMMBNJ@CL_PlayerTrace@ 000000014022f6e8     cl_pmove.obj
 0002:000336f8       ??_C@_0BL@PIGLHHBP@?$CFs?5?9?5Bogus?5hull?5index?5?$CFd?4?6@ 000000014022f6f8     cl_pmove.obj
 0002:00033718       ??_C@_0O@IDILNLGF@CL_HullForBSP@ 000000014022f718     cl_pmove.obj
 0002:00033730       ??_C@_0EG@PIMOJKGK@?$CFs?5called?5with?5an?5pentity?5?$CFd?5th@ 000000014022f730     cl_pmove.obj
 0002:00033778       ??_C@_0O@BHNJKHNL@CL_TraceModel@ 000000014022f778     cl_pmove.obj
 0002:00033788       ??_C@_0BA@KGIAAPBD@CL_TraceTexture@ 000000014022f788     cl_pmove.obj
 0002:00033798       ??_C@_0BN@NCJPAFO@?$CFs?5?9?5Bogus?5entity?5index?5?$CFd?4?6@ 000000014022f798     cl_pmove.obj
 0002:000337b8       ??_C@_0CN@HFOFLEDC@?$CFs?5?9?5Called?5on?5entity?5?$CFd?5with?5n@ 000000014022f7b8     cl_pmove.obj
 0002:000337f0       ??_C@_1JI@GHMKMHOG@?$AAD?$AA?3?$AA?2?$AAs?$AAo?$AAu?$AAr?$AAc?$AAe?$AAs?$AAd?$AAk?$AA?2?$AAM?$AAa@ 000000014022f7f0     cl_resource.obj
 0002:00033888       ??_C@_1CE@FPBIILMK@?$AAi?$AAn?$AAd?$AAe?$AAx?$AA?5?$AA?$DM?$AA?5?$AAm?$AA_?$AAn?$AAu?$AAm?$AAB?$AAi@ 000000014022f888     cl_resource.obj
 0002:000338b0       ??_C@_1FC@DMIMAEBE@?$AAm?$AA_?$AAp?$AAD?$AAa?$AAt?$AAa?$AAA?$AAr?$AAr?$AAa?$AAy?$AA?5?$AA?$CB?$AA?$DN@ 000000014022f8b0     cl_resource.obj
 0002:00033908       ??_C@_0BF@KJCFCBEM@Download?5cancelled?4?6@ 000000014022f908     cl_resource.obj
 0002:00033920       ??_C@_0BL@MMIHLIAI@CL_GetResourceAbsolutePath@ 000000014022f920     cl_resource.obj
 0002:00033940       ??_C@_0CH@PKNNPOFB@?$CFs?5?9?5Invalid?5resource?5type?5?$CFd?5f@ 000000014022f940     cl_resource.obj
 0002:00033968       ??_C@_0CB@PMEMIDLB@Beginning?5download?5of?5?$CFd?5files?4@ 000000014022f968     cl_resource.obj
 0002:00033990       ??_C@_0CA@IAFCHIAA@Beginning?5download?5of?5?$CFd?5file?4?6@ 000000014022f990     cl_resource.obj
 0002:000339b0       ??_C@_0BG@CLBJBGPF@CL_BeginFilesDownload@ 000000014022f9b0     cl_resource.obj
 0002:000339c8       ??_C@_0DF@JJBGPIBM@?$CFs?5?9?5Download?5initiated?5with?5no@ 000000014022f9c8     cl_resource.obj
 0002:00033a00       ??_C@_0BP@EGDNAOOD@Failed?5to?5create?5exit?5window?4?6@ 000000014022fa00     cl_resource.obj
 0002:00033a20       ??_C@_0BA@CMDECMBH@CL_ReadFileInfo@ 000000014022fa20     cl_resource.obj
 0002:00033a30       ??_C@_0EH@HNFCFFIC@?$CFs?5?9?5File?5?8?$CFs?8?5data?5received?5do@ 000000014022fa30     cl_resource.obj
 0002:00033a78       ??_C@_0BB@DFOAPCOK@CL_LoadResources@ 000000014022fa78     cl_resource.obj
 0002:00033a90       ??_C@_0DD@DLPLDGKL@?$CFs?5?9?5No?5resources?5were?5retreive@ 000000014022fa90     cl_resource.obj
 0002:00033ac8       ??_C@_0BN@HJHKFLBA@?$CFs?5?9?5Failed?5to?5precache?5?$CFs?4?6@ 000000014022fac8     cl_resource.obj
 0002:00033ae8       ??_C@_0BN@EMLPEOFE@?$CFs?5?9?5Could?5not?5precache?5?$CFs?4?6@ 000000014022fae8     cl_resource.obj
 0002:00033b08       ??_C@_0BI@KLFBHEJA@CL_FinishDownloadedFile@ 000000014022fb08     cl_resource.obj
 0002:00033b20       ??_C@_0CE@KGKFLPMG@?$CFs?5?9?5Invalid?5filesize?5?$CFd?5for?5?8?$CF@ 000000014022fb20     cl_resource.obj
 0002:00033b48       ??_C@_0DD@KDIINOHI@?$CFs?5?9?5Overindexing?5on?5file?5buffe@ 000000014022fb48     cl_resource.obj
 0002:00033b7c       ??_C@_01KMDKNFGN@?1@       000000014022fb7c     cl_resource.obj
 0002:00033b80       ??_C@_01LFCBOECM@?4@       000000014022fb80     cl_resource.obj
 0002:00033b88       ??_C@_0CB@GCCNILA@?$CFs?5?9?5Failed?5to?5write?5file?5?8?$CFs?8?4@ 000000014022fb88     cl_resource.obj
 0002:00033bb0       ??_C@_0BC@BEMCFBOC@Downloaded?5?8?$CFs?8?4?6@ 000000014022fbb0     cl_resource.obj
 0002:00033bc8       ??_C@_0BB@GIEDEHAH@CL_ReadFileChunk@ 000000014022fbc8     cl_resource.obj
 0002:00033be0       ??_C@_0DH@HDDFOMAK@?$CFs?5?9?5Mismatch?5in?5file?5ID?4?5Recei@ 000000014022fbe0     cl_resource.obj
 0002:00033c18       ??_C@_0BE@PIIIBCOG@CL_ReadResourceList@ 000000014022fc18     cl_resource.obj
 0002:00033c30       ??_C@_0DH@BGGLDCNI@?$CFs?5?9?5Error?5reading?5message?3?5Unk@ 000000014022fc30     cl_resource.obj
 0002:00033c68       ??_C@_0BH@FJFKLDPA@CL_ReadResourceMessage@ 000000014022fc68     cl_resource.obj
 0002:00033c80       ??_C@_1IE@KOPJJBMN@?$AAD?$AA?3?$AA?2?$AAs?$AAo?$AAu?$AAr?$AAc?$AAe?$AAs?$AAd?$AAk?$AA?2?$AAM?$AAa@ 000000014022fc80     cl_snd.obj
 0002:00033d08       ??_C@_1DK@LPFHLHGB@?$AAi?$AAn?$AAd?$AAe?$AAx?$AA?5?$AA?$DO?$AA?$DN?$AA?5?$AA0?$AA?5?$AA?$CG?$AA?$CG?$AA?5?$AAi@ 000000014022fd08     cl_snd.obj
 0002:00033d50       ??_C@_0FI@GOENBBPO@playmusic?5usage?3?5playmusic?5?$DMfil@ 000000014022fd50     cl_snd.obj
 0002:00033da8       ??_C@_04GKOOIABA@loop@     000000014022fda8     cl_snd.obj
 0002:00033db0       ??_C@_04PEGFANN@stop@      000000014022fdb0     cl_snd.obj
 0002:00033db8       ??_C@_0BA@GKKALKNG@Failed?5to?5load?5@ 000000014022fdb8     cl_snd.obj
 0002:00033dc8       ??_C@_05NAOIJFC@Error@     000000014022fdc8     cl_snd.obj
 0002:00033dd0       ??_C@_0BD@INKOBHLP@CSoundEngine?3?3Init@ 000000014022fdd0     cl_snd.obj
 0002:00033de8       ??_C@_0BM@HDEMBNCI@?$CFs?5?9?5alcOpenDevice?5failed?4?6@ 000000014022fde8     cl_snd.obj
 0002:00033e08       ??_C@_0CI@NCADFHFK@Sound?5engine?5failed?5to?5create?5c@ 000000014022fe08     cl_snd.obj
 0002:00033e30       ??_C@_0N@CKLHBBDJ@alGenEffects@ 000000014022fe30     cl_snd.obj
 0002:00033e40       ??_C@_0BA@FFPPLMJO@alDeleteEffects@ 000000014022fe40     cl_snd.obj
 0002:00033e50       ??_C@_09FADHGDNE@alEffecti@ 000000014022fe50     cl_snd.obj
 0002:00033e60       ??_C@_09NHKPHPBL@alEffectf@ 000000014022fe60     cl_snd.obj
 0002:00033e70       ??_C@_0L@PDNHLIOD@alEffectfv@ 000000014022fe70     cl_snd.obj
 0002:00033e80       ??_C@_0BK@HCDNPKBJ@alGenAuxiliaryEffectSlots@ 000000014022fe80     cl_snd.obj
 0002:00033ea0       ??_C@_0BN@JBMKABOK@alDeleteAuxiliaryEffectSlots@ 000000014022fea0     cl_snd.obj
 0002:00033ec0       ??_C@_0BH@FGDDECAJ@alAuxiliaryEffectSloti@ 000000014022fec0     cl_snd.obj
 0002:00033ed8       ??_C@_0BH@NBKLFOMG@alAuxiliaryEffectSlotf@ 000000014022fed8     cl_snd.obj
 0002:00033ef0       ??_C@_0EO@FCKOFBON@Sound?5engine?5failed?5to?5load?5fun@ 000000014022fef0     cl_snd.obj
 0002:00033f40       ??_C@_0BI@BNHEFALP@Controls?5master?5volume?4@ 000000014022ff40     cl_snd.obj
 0002:00033f58       ??_C@_0BG@CKOBHMBG@Controls?5game?5volume?4@ 000000014022ff58     cl_snd.obj
 0002:00033f70       ??_C@_0BH@FNKIJGOP@Controls?5music?5volume?4@ 000000014022ff70     cl_snd.obj
 0002:00033f88       ??_C@_0CC@BEFHMNJP@Controls?5sound?5occlusion?5dimmin@ 000000014022ff88     cl_snd.obj
 0002:00033fb0       ??_C@_0M@HAIOFEPD@s_occlusion@ 000000014022ffb0     cl_snd.obj
 0002:00033fc0       ??_C@_0BK@DOCNOIMP@Draws?5sound?5debug?5points?4@ 000000014022ffc0     cl_snd.obj
 0002:00033fdc       ??_C@_01GBGANLPD@0@        000000014022ffdc     cl_snd.obj
 0002:00033fe0       ??_C@_07EGIBPCJJ@s_debug@  000000014022ffe0     cl_snd.obj
 0002:00033fe8       ??_C@_0CD@EOPFEIPH@Load?5larger?5audio?5files?5on?9dema@ 000000014022ffe8     cl_snd.obj
 0002:00034010       ??_C@_0L@HLDMMGNE@s_ondemand@ 0000000140230010     cl_snd.obj
 0002:00034020       ??_C@_0BK@DHAFIMAO@Error?5loading?5sentences?4?6@ 0000000140230020     cl_snd.obj
 0002:00034040       ??_C@_0BE@GGEBGCCG@Plays?5a?5music?5track@ 0000000140230040     cl_snd.obj
 0002:00034058       ??_C@_09MANOOBPO@playmusic@ 0000000140230058     cl_snd.obj
 0002:00034068       ??_C@_0BH@MOGPLMPI@Stops?5any?5music?5tracks@ 0000000140230068     cl_snd.obj
 0002:00034080       ??_C@_0BB@IKFGLMFE@Set?5HRTF?5setting@ 0000000140230080     cl_snd.obj
 0002:00034098       ??_C@_09MPCJMFGF@s_sethrtf@ 0000000140230098     cl_snd.obj
 0002:000340a8       ??_C@_0BN@ODMHECB@OpenAL?5version?5?$CFs?5detected?4?6@ 00000001402300a8     cl_snd.obj
 0002:000340c8       ??_C@_0CN@GCHFCHDO@Sound?5engine?5initialization?5was@ 00000001402300c8     cl_snd.obj
 0002:000340f8       ??_C@_0DE@EGBDFNNM@Head?9related?5transfer?5function?5@ 00000001402300f8     cl_snd.obj
 0002:00034130       ??_C@_0DD@BNKAOLFJ@Head?9related?5transfer?5function?5@ 0000000140230130     cl_snd.obj
 0002:00034168       ??_C@_0DC@BIPJLAJF@Head?9related?5transfer?5function?5@ 0000000140230168     cl_snd.obj
 0002:000341a0       ??_C@_0EC@ODIFFPAO@Head?9related?5transfer?5function?5@ 00000001402301a0     cl_snd.obj
 0002:000341f0       ??_C@_0FF@PAMBJKGD@Head?9related?5transfer?5function?5@ 00000001402301f0     cl_snd.obj
 0002:00034248       ??_C@_0CL@LPKCLMHP@Unknown?5HRTF?5status?5received?5fr@ 0000000140230248     cl_snd.obj
 0002:00034278       ??_C@_0BD@MCAADFCE@Shader?5error?3?5?$CFs?4?6@ 0000000140230278     cl_snd.obj
 0002:00034290       ??_C@_0BJ@GIIEPCJP@CSoundEngine?3?3ClearCache@ 0000000140230290     cl_snd.obj
 0002:000342b0       ??_C@_0EH@NDEMHGAA@?$CFs?5?9?5Effect?5with?5entity?5?$CFd?0?5ser@ 00000001402302b0     cl_snd.obj
 0002:000342f8       ??_C@_06PFKKMJJD@sound?2@  00000001402302f8     cl_snd.obj
 0002:00034300       ??_C@_0BM@NJIEPPCN@CSoundEngine?3?3LoadSoundData@ 0000000140230300     cl_snd.obj
 0002:00034320       ??_C@_0BO@LELGJDDC@?$CFs?5?9?5Could?5not?5precache?3?5?$CFs?4?6@ 0000000140230320     cl_snd.obj
 0002:00034340       ??_C@_04EPCGJKAP@RIFF@     0000000140230340     cl_snd.obj
 0002:00034348       ??_C@_0CD@EAFFHAMJ@?$CFs?5?9?5?$CFs?5is?5not?5a?5valid?5?4WAV?5fil@ 0000000140230348     cl_snd.obj
 0002:0003436c       ??_C@_04CAJPEBPP@fmt?5@    000000014023036c     cl_snd.obj
 0002:00034374       ??_C@_04GADGHILI@cue?5@    0000000140230374     cl_snd.obj
 0002:0003437c       ??_C@_04PJOLNDGD@data@     000000014023037c     cl_snd.obj
 0002:00034388       ??_C@_0CM@LNBBODMJ@?$CFs?5?9?5Sound?5?8?$CFs?8?5marked?5for?5on?9d@ 0000000140230388     cl_snd.obj
 0002:000343b4       ??_C@_04IMEPLDLJ@?4WAV@    00000001402303b4     cl_snd.obj
 0002:000343bc       ??_C@_04EDENFOBH@?4ogg@    00000001402303bc     cl_snd.obj
 0002:000343c4       ??_C@_04EOLGJDGL@?4OGG@    00000001402303c4     cl_snd.obj
 0002:000343d0       ??_C@_0CC@BMGKICBK@CSoundEngine?3?3PrecacheServerSou@ 00000001402303d0     cl_snd.obj
 0002:000343f8       ??_C@_0BO@OFKOLMLK@?$CFs?5?9?5Unknown?5file?5type?5?8?$CFs?8?4?6@ 00000001402303f8     cl_snd.obj
 0002:00034418       ??_C@_0BM@DPFIHMJO@CSoundEngine?3?3GetSoundCache@ 0000000140230418     cl_snd.obj
 0002:00034438       ??_C@_0CB@ECDNCOLC@?$CFs?5?9?5Invalid?5sentence?5index?5?$CFd?4@ 0000000140230438     cl_snd.obj
 0002:00034460       ??_C@_0DA@NIAHMJPP@?$CFs?5?9Failed?5to?5cache?5server?5soun@ 0000000140230460     cl_snd.obj
 0002:00034490       ??_C@_0BK@IBCEPPIP@CSoundEngine?3?3UpdateSound@ 0000000140230490     cl_snd.obj
 0002:000344b0       ??_C@_0CP@GJKHBBJC@?$CFs?5?9?5Non?9update?5call?5recieved?5f@ 00000001402304b0     cl_snd.obj
 0002:000344e0       ??_C@_0DN@EKIMEJJH@?$CFs?5?9?5Couldn?8t?5update?5sound?5?8?$CFs?8@ 00000001402304e0     cl_snd.obj
 0002:00034520       ??_C@_0BI@MLKMBMLM@CSoundEngine?3?3PlaySound@ 0000000140230520     cl_snd.obj
 0002:00034540       ??_C@_0EE@NFJCMBJL@?$CFs?5?9?5Attempted?5to?5play?5game?5sou@ 0000000140230540     cl_snd.obj
 0002:00034590       ??_C@_0FE@NEPDDDLL@?$CFs?5?9?5Attempted?5to?5play?5game?5sou@ 0000000140230590     cl_snd.obj
 0002:000345e8       ??_C@_0DJ@BKJFKHBP@?$CFs?5?9?5Invalid?5volume?5?$CFf?5for?5soun@ 00000001402305e8     cl_snd.obj
 0002:00034628       ??_C@_0CL@KEAHLLG@?$CFs?5?9?5Update?5call?5recieved?5for?5s@ 0000000140230628     cl_snd.obj
 0002:00034658       ??_C@_0DM@IADBIMMB@?$CFs?5?9?5Could?5not?5allocate?5sound?5s@ 0000000140230658     cl_snd.obj
 0002:00034698       ??_C@_0CG@KAMFAPDL@?$CFs?5?9?5Playing?5sound?5?$CFs?5for?5entit@ 0000000140230698     cl_snd.obj
 0002:000346c0       ??_C@_0DN@BFMNCPDB@Warning?3?5Sound?5?$CFs?5with?5small?5ra@ 00000001402306c0     cl_snd.obj
 0002:00034700       ??_C@_0BF@OHLOHKPH@CSoundEngine?3?3Stream@ 0000000140230700     cl_snd.obj
 0002:00034720       ??_C@_0EB@OGBLICBL@?$CFs?5?9?5Error?5streaming?5?8?$CFs?8?4?5Corr@ 0000000140230720     cl_snd.obj
 0002:00034768       ??_C@_0DF@MNDDMDDN@?$CFs?5?9?5Error?5streaming?5?8?$CFs?8?4?5Inva@ 0000000140230768     cl_snd.obj
 0002:000347a0       ??_C@_0DE@JHKDOLDC@?$CFs?5?9?5Error?5streaming?5?8?$CFs?8?4?5Stre@ 00000001402307a0     cl_snd.obj
 0002:000347d8       ??_C@_0BF@KNAJBDDN@CSoundEngine?3?3Update@ 00000001402307d8     cl_snd.obj
 0002:000347f0       ??_C@_0DF@GJKLKJED@?$CFs?5?9?5Playing?5chunk?5?$CFs?5of?5senten@ 00000001402307f0     cl_snd.obj
 0002:00034828       ??_C@_0L@GHIHOBPC@Bip01?5Head@ 0000000140230828     cl_snd.obj
 0002:00034838       ??_C@_0BN@BEMBAJIP@?$CFs?5?9?5Sound?5system?5overflow?$CB?6@ 0000000140230838     cl_snd.obj
 0002:00034858       ??_C@_0BG@LOBEKGIC@CSoundEngine?3?3PlayOgg@ 0000000140230858     cl_snd.obj
 0002:00034870       ??_C@_0CM@BGGGOOIB@?$CFs?5?9?5Invalid?5music?5channel?5?8?$CFd?8@ 0000000140230870     cl_snd.obj
 0002:000348a0       ??_C@_0CI@ONCIEPME@?$CFs?5?9?5Decode?5error?5on?5music?5trac@ 00000001402308a0     cl_snd.obj
 0002:000348c8       ??_C@_0DK@PNIEKDKM@?$CFs?5?9?5Bad?5time?5offset?5?$CFf?5on?5file@ 00000001402308c8     cl_snd.obj
 0002:00034908       ??_C@_0CO@LOGBIIDH@?$CFs?5?9?5Bad?5seek?5on?5file?5?8?$CFs?8?5with@ 0000000140230908     cl_snd.obj
 0002:00034938       ??_C@_0BK@EKGOKGLL@CSoundEngine?3?3StopOggFade@ 0000000140230938     cl_snd.obj
 0002:00034960       ??_C@_0FB@OLBHBAME@?$CFs?5?9?5Called?5with?5incorrect?5file@ 0000000140230960     cl_snd.obj
 0002:000349b8       ??_C@_0BG@FDLAHAMJ@CSoundEngine?3?3StopOgg@ 00000001402309b8     cl_snd.obj
 0002:000349d0       ??_C@_0BD@HKEMMNLN@Failed?5to?5load?5?$CFs?6@ 00000001402309d0     cl_snd.obj
 0002:000349e8       ??_C@_0BP@FAGMDLHN@CSoundEngine?3?3ApplySoundEffect@ 00000001402309e8     cl_snd.obj
 0002:00034a08       ??_C@_0DH@DBJKILNN@?$CFs?5?9?5Couldn?8t?5find?5sound?5file?5w@ 0000000140230a08     cl_snd.obj
 0002:00034a40       ??_C@_0CO@JKEJJLPL@?$CFs?5?9?5Invalid?5entity?5index?5?$CFd?5fo@ 0000000140230a40     cl_snd.obj
 0002:00034a70       ??_C@_0EB@PIJIBEKI@?$CFs?5?9?5No?5duration?5specified?5for?5@ 0000000140230a70     cl_snd.obj
 0002:00034ab8       ??_C@_0DJ@GAFNMPDD@?$CFs?5?9?5Unknown?5effect?5type?5?8?$CFd?8?5s@ 0000000140230ab8     cl_snd.obj
 0002:00034af8       ??_C@_0BM@CBOBAOFB@CSoundEngine?3?3LoadSentences@ 0000000140230af8     cl_snd.obj
 0002:00034b18       ??_C@_0CA@MCJODJIN@?$CFs?5?9?5Failed?5to?5init?5sentences?4?6@ 0000000140230b18     cl_snd.obj
 0002:00034b38       ??_C@_0DK@LMNJENOC@s_sethrtf?5usage?5?9?5s_sethrtf?5?$DM0?5@ 0000000140230b38     cl_snd.obj
 0002:00034b78       ??_C@_0DP@DDDGLPFJ@HRTF?5setting?5will?5only?5take?5eff@ 0000000140230b78     cl_snd.obj
 0002:00034bb8       ??_C@_0BL@NCKBKLCE@HRTF?5setting?5not?5changed?4?6@ 0000000140230bb8     cl_snd.obj
 0002:00034bd8       ??_C@_0L@FKMMBKBD@sv_gravity@ 0000000140230bd8     cl_tempentities.obj
 0002:00034be8       ??_C@_0BJ@HDOGMKJC@CTempEntityManager?3?3Init@ 0000000140230be8     cl_tempentities.obj
 0002:00034c08       ??_C@_0CH@MJLCLPPI@?$CFs?5?9?5Failed?5to?5get?5cvar?5?8sv_gra@ 0000000140230c08     cl_tempentities.obj
 0002:00034c30       ??_C@_0O@FNHPFKJA@glass_clatter@ 0000000140230c30     cl_tempentities.obj
 0002:00034c40       ??_C@_0O@LMFJLHGA@metal_clatter@ 0000000140230c40     cl_tempentities.obj
 0002:00034c50       ??_C@_0P@FNBKBEGJ@flesh_splatter@ 0000000140230c50     cl_tempentities.obj
 0002:00034c60       ??_C@_0N@LBMBEGMG@wood_clatter@ 0000000140230c60     cl_tempentities.obj
 0002:00034c70       ??_C@_05OOLEAMGB@shell@    0000000140230c70     cl_tempentities.obj
 0002:00034c78       ??_C@_0BB@CKHCJDGJ@concrete_clatter@ 0000000140230c78     cl_tempentities.obj
 0002:00034c90       ??_C@_09FHNFJOLM@shotshell@ 0000000140230c90     cl_tempentities.obj
 0002:00034ca0       ??_C@_0CI@BALODJIN@CTempEntityManager?3?3PlayTempEnt@ 0000000140230ca0     cl_tempentities.obj
 0002:00034cc8       ??_C@_0BP@GCKPGGJK@?$CFs?5?9?5Unknown?5sound?5type?5?8?$CFd?8?4?6@ 0000000140230cc8     cl_tempentities.obj
 0002:00034ce8       ??_C@_0CB@LAKIILLC@CTempEntityManager?3?3CreateFunne@ 0000000140230ce8     cl_tempentities.obj
 0002:00034d10       ??_C@_0BK@DLGAKCIL@?$CFs?5?9?5No?5model?5specified?4?6@ 0000000140230d10     cl_tempentities.obj
 0002:00034d30       ??_C@_0CF@MPIGNAF@?$CFs?5?9?5?$CFd?5is?5not?5a?5valid?5model?5in@ 0000000140230d30     cl_tempentities.obj
 0002:00034d58       ??_C@_0CA@MLCABNJH@?$CFs?5?9?5?$CFd?5is?5not?5a?5sprite?5model?4?6@ 0000000140230d58     cl_tempentities.obj
 0002:00034d78       ??_C@_0CF@EKGJBDPB@CTempEntityManager?3?3CreateBreak@ 0000000140230d78     cl_tempentities.obj
 0002:00034da0       ??_C@_0CC@GFGMAHJL@CTempEntityManager?3?3CreateBubbl@ 0000000140230da0     cl_tempentities.obj
 0002:00034dc8       ??_C@_0CG@PPBADBP@CTempEntityManager?3?3CreateBubbl@ 0000000140230dc8     cl_tempentities.obj
 0002:00034df0       ??_C@_0CE@GPBKADPP@CTempEntityManager?3?3CreateTempM@ 0000000140230df0     cl_tempentities.obj
 0002:00034e18       ??_C@_0BN@LNFBAHF@?$CFs?5?9?5?$CFd?5is?5not?5a?5vbm?5model?4?6@ 0000000140230e18     cl_tempentities.obj
 0002:00034e38       ??_C@_0CF@EHMFBCOD@CTempEntityManager?3?3CreateTempS@ 0000000140230e38     cl_tempentities.obj
 0002:00034e60       ??_C@_0CG@HBAENJOB@CTempEntityManager?3?3CreateSpher@ 0000000140230e60     cl_tempentities.obj
 0002:00034e88       ??_C@_0BB@OAOPFDFN@CL_PrecacheSound@ 0000000140230e88     cl_utils.obj
 0002:00034ea0       ??_C@_0BP@FIBMLNEC@?$CFs?5?9?5Could?5not?5precache?5?8?$CFs?8?4?6@ 0000000140230ea0     cl_utils.obj
 0002:00034ec0       ??_C@_0BB@BILGFIDD@CL_GetAttachment@ 0000000140230ec0     cl_utils.obj
 0002:00034ed8       ??_C@_0CB@CDGMIBBF@?$CFs?5?9?5Bogus?5attachment?5index?5?$CFd?4@ 0000000140230ed8     cl_utils.obj
 0002:00034f00       ??_C@_0BD@HJKFKFPK@CL_GetBonePosition@ 0000000140230f00     cl_utils.obj
 0002:00034f18       ??_C@_0CN@JKNDINOF@?$CFs?5?9?5Failed?5to?5get?5bone?5?8?$CFs?8?5fo@ 0000000140230f18     cl_utils.obj
 0002:00034f48       ??_C@_0BE@DBKCLMCE@Toggles?5the?5console@ 0000000140230f48     console.obj
 0002:00034f60       ??_C@_0BL@JKOGLGC@Clears?5the?5console?5history@ 0000000140230f60     console.obj
 0002:00034f7c       ??_C@_05MEHLAELG@clear@    0000000140230f7c     console.obj
 0002:00034f88       ??_C@_0DG@BCCJBKAO@Prints?5the?5list?5of?5cvars?5to?5the@ 0000000140230f88     console.obj
 0002:00034fc0       ??_C@_08HKAEGNIC@cvarlist@ 0000000140230fc0     console.obj
 0002:00034fd0       ??_C@_0DH@DFCDICJK@Prints?5a?5list?5of?5commands?5to?5th@ 0000000140230fd0     console.obj
 0002:00035008       ??_C@_07LKLFKPJJ@cmdlist@  0000000140231008     console.obj
 0002:00035010       ??_C@_0CF@BEHKDKCH@Dumps?5the?5console?5contents?5to?5a@ 0000000140231010     console.obj
 0002:00035038       ??_C@_07NENKHFEO@condump@  0000000140231038     console.obj
 0002:00035040       ??_C@_0CB@MAEAEPEP@Draws?5recent?5console?5history?5bo@ 0000000140231040     console.obj
 0002:00035068       ??_C@_0P@MHJJJBGA@con_historybox@ 0000000140231068     console.obj
 0002:00035078       ??_C@_0CC@CCNGBHPN@Failed?5to?5create?5console?5window@ 0000000140231078     console.obj
 0002:000350a0       ??_C@_0BL@MLHHBMCP@CVar?5?$CFs?5is?5already?5added?4?6@ 00000001402310a0     console.obj
 0002:000350c0       ??_C@_0CF@NKDBHIGC@Unknown?5cvar?5type?5specified?5for@ 00000001402310c0     console.obj
 0002:000350e8       ??_C@_0CO@JBPFMCAI@Failed?5to?5set?5userconfig?5data?5f@ 00000001402310e8     console.obj
 0002:00035118       ??_C@_0CN@OEKPGNCP@Invalid?5value?5?8?$CFs?8?5set?5for?5floa@ 0000000140231118     console.obj
 0002:00035148       ??_C@_0CP@ILLDNDF@Duplicate?5entry?5for?5?$CFs?5in?5conso@ 0000000140231148     console.obj
 0002:00035178       ??_C@_01CLKCMJKC@?5@       0000000140231178     console.obj
 0002:00035180       ??_C@_0P@NHHAJOOL@The?5value?5of?5?8@ 0000000140231180     console.obj
 0002:00035190       ??_C@_06GAAFMMGO@?8?5is?5?8@ 0000000140231190     console.obj
 0002:00035198       ??_C@_02MHFDJOAC@?8?6@     0000000140231198     console.obj
 0002:000351a0       ??_C@_0CI@GFEOOKAL@?$CFs?5can?5only?5be?5modified?5by?5the?5@ 00000001402311a0     console.obj
 0002:000351c8       ??_C@_0BL@DGDIPCDL@Failed?5to?5set?5cvar?5value?4?6@ 00000001402311c8     console.obj
 0002:000351e8       ??_C@_0BD@LKAAPMKK@?8?$CFs?8?5set?5to?5?8?$CFf?8?4?6@ 00000001402311e8     console.obj
 0002:00035200       ??_C@_0BD@BCAAOEFI@?8?$CFs?8?5set?5to?5?8?$CFs?8?4?6@ 0000000140231200     console.obj
 0002:00035218       ??_C@_0CJ@DGCAFIKA@Failed?5to?5set?5userconfig?5for?5cv@ 0000000140231218     console.obj
 0002:00035248       ??_C@_08BPLPECIC@commands@ 0000000140231248     console.obj
 0002:00035258       ??_C@_0BC@NPBCKGD@console?5variables@ 0000000140231258     console.obj
 0002:0003526c       ??_C@_01OGPIMHDM@?$DP@     000000014023126c     console.obj
 0002:00035270       ??_C@_0BL@FKGBNHF@?$CFs?5?9?5Prints?5a?5list?5of?5?$CFs?4?6@ 0000000140231270     console.obj
 0002:0003528c       ??_C@_06PHNONPAL@Usage?3@  000000014023128c     console.obj
 0002:00035298       ??_C@_0DI@KEIGOLCN@?7?$CFs?5?$FLpartial?$FN?5?9?5Lists?5all?5?$CFs?5be@ 0000000140231298     console.obj
 0002:000352d0       ??_C@_0EE@EKLDIGKN@?7?$CFs?5?$FL?$CKpartial?$FN?5?9?5Lists?5all?5?$CFs?5c@ 00000001402312d0     console.obj
 0002:00035320       ??_C@_0FK@INMHJJHI@?7?$CFs?5log?5?$FLpartial?$FN?5?9?5Writes?5all?5@ 0000000140231320     console.obj
 0002:00035380       ??_C@_0GM@PCCNBJFD@?7?$CFs?5log?5?$FL?$CKpartial?$FN?5?9?5Writes?5all@ 0000000140231380     console.obj
 0002:000353f0       ??_C@_0BC@LKCPFLEJ@?$CFs?5?$DP?5for?5syntax?4?6@ 00000001402313f0     console.obj
 0002:00035404       ??_C@_03MGHMBJCF@log@      0000000140231404     console.obj
 0002:00035408       ??_C@_0BI@MIBJHDOJ@Console?5variables?5list?4@ 0000000140231408     console.obj
 0002:00035420       ??_C@_0O@OMFLFDMK@Command?5list?4@ 0000000140231420     console.obj
 0002:00035430       ??_C@_0BA@PJCADNHP@?9?9?9?9?9?9?9?9?9?9?9?9?9?9?9@ 0000000140231430     console.obj
 0002:00035440       ??_C@_0BJ@CDPBKLCF@Console?5variables?5list?4?6@ 0000000140231440     console.obj
 0002:00035460       ??_C@_0P@IBLCJIHH@Command?5list?4?6@ 0000000140231460     console.obj
 0002:00035470       ??_C@_0BB@DKKMKEBK@?9?9?9?9?9?9?9?9?9?9?9?9?9?9?9?6@ 0000000140231470     console.obj
 0002:00035484       ??_C@_03OFAPEBGM@?$CFs?6@  0000000140231484     console.obj
 0002:00035488       ??_C@_0BD@JGGGFKFF@?5console?5variables@ 0000000140231488     console.obj
 0002:000354a0       ??_C@_0N@LFNFNDEG@cvarlist?4log@ 00000001402314a0     console.obj
 0002:000354b0       ??_C@_09FFGBDNIK@?5commands@ 00000001402314b0     console.obj
 0002:000354c0       ??_C@_0M@MGFMBMLP@cmdlist?4log@ 00000001402314c0     console.obj
 0002:000354d0       ??_C@_0BH@DAFAIAOJ@?$CFd?5console?5variables?4?6@ 00000001402314d0     console.obj
 0002:000354e8       ??_C@_0O@HMNLPDAE@?$CFd?5commands?4?6@ 00000001402314e8     console.obj
 0002:000354f8       ??_C@_04LCMACLFG@?4txt@    00000001402314f8     console.obj
 0002:00035500       ??_C@_0BC@EOODALEL@Unknown?5exception@ 0000000140231500     discordrpc.obj
 0002:00035518       ??_C@_0BF@KINCDENJ@bad?5array?5new?5length@ 0000000140231518     discordrpc.obj
 0002:00035530       ??_C@_0BA@JFNIOLAK@string?5too?5long@ 0000000140231530     discordrpc.obj
 0002:00035540       ??_C@_02LMMGGCAJ@?3?5@     0000000140231540     discordrpc.obj
 0002:00035548       ??_C@_08LLGCOLLL@iostream@ 0000000140231548     discordrpc.obj
 0002:00035558       ??_C@_0BF@PHHKMMFD@ios_base?3?3badbit?5set@ 0000000140231558     discordrpc.obj
 0002:00035570       ??_C@_0BG@FMKFHCIL@ios_base?3?3failbit?5set@ 0000000140231570     discordrpc.obj
 0002:00035588       ??_C@_0BF@OOHOMBOF@ios_base?3?3eofbit?5set@ 0000000140231588     discordrpc.obj
 0002:000355a0       ??_C@_0BE@MOBJCPLK@Discord?3?5connected?6@ 00000001402315a0     discordrpc.obj
 0002:000355b8       ??_C@_0BE@GLLNANDC@1235165455237255238@ 00000001402315b8     discordrpc.obj
 0002:000355cc       ??_C@_05HBJBFCNN@maps?1@   00000001402315cc     discordrpc.obj
 0002:000355d8       ??_C@_0O@MHINCEJE@Playing?5Map?3?5@ 00000001402315d8     discordrpc.obj
 0002:000355e8       ??_C@_0N@CCLHCEG@In?5Main?5Menu@ 00000001402315e8     discordrpc.obj
 0002:000355f8       ??_C@_0BJ@LCKMKPDJ@Developing?5Matrix?5Engine@ 00000001402315f8     discordrpc.obj
 0002:00035618       ??_C@_0BI@CFPLBAOH@invalid?5string?5position@ 0000000140231618     discordrpc.obj
 0002:00035630       ?_Iostream_error@?4??message@_Iostream_error_category2@std@@UEBA?AV?$basic_string@DU?$char_traits@D@std@@V?$allocator@D@2@@3@H@Z@4QBDB 0000000140231630     discordrpc.obj
 0002:00035648       ??_C@_02JDPG@rb@           0000000140231648     dllexports.obj
 0002:00035650       ??_C@_0BN@LDHCJKML@Map?5entity?5data?5is?5invalid?4?6@ 0000000140231650     edictmanager.obj
 0002:00035670       ??_C@_0L@MICAPEB@rendertype@ 0000000140231670     edictmanager.obj
 0002:00035680       ??_C@_0DH@PBCKLGEM@Entity?5property?5?8rendertype?8?5no@ 0000000140231680     edictmanager.obj
 0002:000356b8       ??_C@_05NCCFOPHA@model@    00000001402316b8     edictmanager.obj
 0002:000356c0       ??_C@_09LELCMKMF@modelname@ 00000001402316c0     edictmanager.obj
 0002:000356cc       ??_C@_05FECBCJJD@angle@    00000001402316cc     edictmanager.obj
 0002:000356d4       ??_C@_06DNDLPIFN@0?5?$CFf?50@ 00000001402316d4     edictmanager.obj
 0002:000356e0       ??_C@_07BHMOBHIL@?990?50?50@ 00000001402316e0     edictmanager.obj
 0002:000356e8       ??_C@_06INPDGABL@90?50?50@ 00000001402316e8     edictmanager.obj
 0002:000356f0       ??_C@_06GNEAMJOC@angles@   00000001402316f0     edictmanager.obj
 0002:000356f8       ??_C@_0DC@CJDLHJBI@Failed?5to?5allocate?5private?5data@ 00000001402316f8     edictmanager.obj
 0002:00035730       ??_C@_0CG@BNBBDBJL@Entity?5?$CFs?5?9?5Unhandled?5keyvalue?5@ 0000000140231730     edictmanager.obj
 0002:00035758       ??_C@_0BM@MPOELLGC@CEdictManager?3?3LoadEntities@ 0000000140231758     edictmanager.obj
 0002:00035778       ??_C@_0L@LOCKCKGL@?5?9?5Entity?5@ 0000000140231778     edictmanager.obj
 0002:00035784       ??_C@_01PKGAHCOL@?$CJ@     0000000140231784     edictmanager.obj
 0002:00035788       ??_C@_0BL@LHLLEJJG@?5returned?5error?5on?5spawn?4?6@ 0000000140231788     edictmanager.obj
 0002:000357a8       ??_C@_0DJ@BJMHFEBG@Bogus?5player?5index?5?$CFd?5specified@ 00000001402317a8     edictmanager.obj
 0002:000357e4       ??_C@_06BALNJMNP@player@   00000001402317e4     edictmanager.obj
 0002:000357f0       ??_C@_0CF@LEPIDLKE@Failed?5to?5initialize?5player?5ent@ 00000001402317f0     edictmanager.obj
 0002:00035818       ??_C@_0BK@GLPBHOB@CEdictManager?3?3AllocEdict@ 0000000140231818     edictmanager.obj
 0002:00035838       ??_C@_0BL@CKOBADJM@?$CFs?5?9?5No?5free?5edicts?5left?4?6@ 0000000140231838     edictmanager.obj
 0002:00035860       ??_C@_1JE@JKNNHPHI@?$AAD?$AA?3?$AA?2?$AAs?$AAo?$AAu?$AAr?$AAc?$AAe?$AAs?$AAd?$AAk?$AA?2?$AAM?$AAa@ 0000000140231860     edictmanager.obj
 0002:000358f8       ??_C@_1BK@KPHOHBEK@?$AAp?$AAe?$AAd?$AAi?$AAc?$AAt?$AA?9?$AA?$DO?$AAf?$AAr?$AAe?$AAe@ 00000001402318f8     edictmanager.obj
